
main.exe:     file format elf32-sparc

Disassembly of section .text:

40000000 <_trap_table>:
40000000:	0d 10 00 00 	sethi  %hi(0x40000000), %g6
40000004:	81 c1 a2 ac 	jmp  %g6 + 0x2ac	! 400002ac <_start_svt_weak>
40000008:	01 00 00 00 	nop 

4000000c <_start>:
4000000c:	9d e3 bf c0 	save  %sp, -64, %sp
40000010:	05 10 00 05 	sethi  %hi(0x40001400), %g2
40000014:	84 10 a3 e0 	or  %g2, 0x3e0, %g2	! 400017e0 <__bss_start>
40000018:	07 10 00 06 	sethi  %hi(0x40001800), %g3
4000001c:	86 10 e3 28 	or  %g3, 0x328, %g3	! 40001b28 <__JCR_END__>
40000020:	82 10 00 00 	mov  %g0, %g1
40000024:	86 20 c0 02 	sub  %g3, %g2, %g3
40000028:	86 a0 e0 08 	subcc  %g3, 8, %g3

4000002c <zerobss>:
4000002c:	06 80 00 05 	bl  40000040 <zerobss+0x14>
40000030:	01 00 00 00 	nop 
40000034:	c0 38 80 03 	std  %g0, [ %g2 + %g3 ]
40000038:	10 bf ff fd 	b  4000002c <zerobss>
4000003c:	86 a0 e0 08 	subcc  %g3, 8, %g3
40000040:	11 10 00 06 	sethi  %hi(0x40001800), %o0
40000044:	90 12 23 28 	or  %o0, 0x328, %o0	! 40001b28 <__JCR_END__>
40000048:	c0 22 00 00 	clr  [ %o0 ]
4000004c:	40 00 00 8f 	call  40000288 <bdinit2>
40000050:	01 00 00 00 	nop 
40000054:	40 00 00 8f 	call  40000290 <prelibchook>
40000058:	01 00 00 00 	nop 
4000005c:	40 00 00 ce 	call  40000394 <_call_initcalls>
40000060:	01 00 00 00 	nop 
40000064:	11 10 00 04 	sethi  %hi(0x40001000), %o0
40000068:	90 12 21 e8 	or  %o0, 0x1e8, %o0	! 400011e8 <_fini>
4000006c:	40 00 00 6f 	call  40000228 <atexit>
40000070:	01 00 00 00 	nop 
40000074:	40 00 04 56 	call  400011cc <_init>
40000078:	01 00 00 00 	nop 
4000007c:	40 00 00 43 	call  40000188 <main>
40000080:	01 00 00 00 	nop 
40000084:	40 00 00 85 	call  40000298 <_exit>
40000088:	01 00 00 00 	nop 
4000008c:	81 c7 e0 08 	ret 
40000090:	81 e8 00 00 	restore 

40000094 <__do_global_dtors_aux>:
40000094:	9d e3 bf 98 	save  %sp, -104, %sp
40000098:	23 10 00 05 	sethi  %hi(0x40001400), %l1
4000009c:	c2 0c 63 e0 	ldub  [ %l1 + 0x3e0 ], %g1	! 400017e0 <__bss_start>
400000a0:	80 a0 60 00 	cmp  %g1, 0
400000a4:	12 80 00 15 	bne  400000f8 <__do_global_dtors_aux+0x64>
400000a8:	21 10 00 04 	sethi  %hi(0x40001000), %l0
400000ac:	10 80 00 05 	b  400000c0 <__do_global_dtors_aux+0x2c>
400000b0:	c2 04 22 0c 	ld  [ %l0 + 0x20c ], %g1	! 4000120c <p.0>
400000b4:	9f c3 40 00 	call  %o5
400000b8:	c2 24 22 0c 	st  %g1, [ %l0 + 0x20c ]
400000bc:	c2 04 22 0c 	ld  [ %l0 + 0x20c ], %g1
400000c0:	da 00 40 00 	ld  [ %g1 ], %o5
400000c4:	80 a3 60 00 	cmp  %o5, 0
400000c8:	12 bf ff fb 	bne  400000b4 <__do_global_dtors_aux+0x20>
400000cc:	82 00 60 04 	add  %g1, 4, %g1
400000d0:	03 00 00 00 	sethi  %hi(0), %g1
400000d4:	82 10 60 00 	mov  %g1, %g1	! 0 <_trap_table-0x40000000>
400000d8:	80 a0 60 00 	cmp  %g1, 0
400000dc:	02 80 00 06 	be  400000f4 <__do_global_dtors_aux+0x60>
400000e0:	82 10 20 01 	mov  1, %g1
400000e4:	11 10 00 04 	sethi  %hi(0x40001000), %o0
400000e8:	6f ff ff c6 	call  0 <_trap_table-0x40000000>
400000ec:	90 12 20 40 	or  %o0, 0x40, %o0	! 40001040 <__EH_FRAME_BEGIN__>
400000f0:	82 10 20 01 	mov  1, %g1
400000f4:	c2 2c 63 e0 	stb  %g1, [ %l1 + 0x3e0 ]
400000f8:	81 c7 e0 08 	ret 
400000fc:	81 e8 00 00 	restore 

40000100 <call___do_global_dtors_aux>:
40000100:	9d e3 bf 98 	save  %sp, -104, %sp
40000104:	81 c7 e0 08 	ret 
40000108:	81 e8 00 00 	restore 

4000010c <frame_dummy>:
4000010c:	9d e3 bf 98 	save  %sp, -104, %sp
40000110:	03 00 00 00 	sethi  %hi(0), %g1
40000114:	82 10 60 00 	mov  %g1, %g1	! 0 <_trap_table-0x40000000>
40000118:	11 10 00 04 	sethi  %hi(0x40001000), %o0
4000011c:	13 10 00 05 	sethi  %hi(0x40001400), %o1
40000120:	80 a0 60 00 	cmp  %g1, 0
40000124:	90 12 20 40 	or  %o0, 0x40, %o0
40000128:	02 80 00 04 	be  40000138 <frame_dummy+0x2c>
4000012c:	92 12 63 e4 	or  %o1, 0x3e4, %o1
40000130:	6f ff ff b4 	call  0 <_trap_table-0x40000000>
40000134:	01 00 00 00 	nop 
40000138:	1b 10 00 06 	sethi  %hi(0x40001800), %o5
4000013c:	c2 03 63 28 	ld  [ %o5 + 0x328 ], %g1	! 40001b28 <__JCR_END__>
40000140:	80 a0 60 00 	cmp  %g1, 0
40000144:	02 80 00 09 	be  40000168 <frame_dummy+0x5c>
40000148:	b0 13 63 28 	or  %o5, 0x328, %i0
4000014c:	03 00 00 00 	sethi  %hi(0), %g1
40000150:	82 10 60 00 	mov  %g1, %g1	! 0 <_trap_table-0x40000000>
40000154:	80 a0 60 00 	cmp  %g1, 0
40000158:	02 80 00 04 	be  40000168 <frame_dummy+0x5c>
4000015c:	01 00 00 00 	nop 
40000160:	6f ff ff a8 	call  0 <_trap_table-0x40000000>
40000164:	81 e8 00 00 	restore 
40000168:	01 00 00 00 	nop 
4000016c:	81 c7 e0 08 	ret 
40000170:	81 e8 00 00 	restore 

40000174 <call_frame_dummy>:
40000174:	9d e3 bf 98 	save  %sp, -104, %sp
40000178:	81 c7 e0 08 	ret 
4000017c:	81 e8 00 00 	restore 

40000180 <pnpinit>:
40000180:	81 c3 e0 08 	retl 
40000184:	01 00 00 00 	nop 

40000188 <main>:
40000188:	9d e3 bf 98 	save  %sp, -104, %sp
4000018c:	03 20 00 02 	sethi  %hi(0x80000800), %g1
40000190:	ba 10 60 08 	or  %g1, 8, %i5	! 80000808 <LEON_REG+0x808>
40000194:	82 10 3f ff 	mov  -1, %g1
40000198:	c2 27 40 00 	st  %g1, [ %i5 ]
4000019c:	03 20 00 02 	sethi  %hi(0x80000800), %g1
400001a0:	82 10 60 04 	or  %g1, 4, %g1	! 80000804 <LEON_REG+0x804>
400001a4:	c0 20 40 00 	clr  [ %g1 ]
400001a8:	03 10 00 04 	sethi  %hi(0x40001000), %g1
400001ac:	ba 10 62 10 	or  %g1, 0x210, %i5	! 40001210 <a>
400001b0:	82 10 20 06 	mov  6, %g1
400001b4:	c2 27 40 00 	st  %g1, [ %i5 ]
400001b8:	03 10 00 04 	sethi  %hi(0x40001000), %g1
400001bc:	ba 10 62 14 	or  %g1, 0x214, %i5	! 40001214 <b>
400001c0:	03 10 00 04 	sethi  %hi(0x40001000), %g1
400001c4:	82 10 62 10 	or  %g1, 0x210, %g1	! 40001210 <a>
400001c8:	c2 00 40 00 	ld  [ %g1 ], %g1
400001cc:	82 00 60 01 	inc  %g1
400001d0:	c2 27 40 00 	st  %g1, [ %i5 ]
400001d4:	03 20 00 02 	sethi  %hi(0x80000800), %g1
400001d8:	ba 10 60 04 	or  %g1, 4, %i5	! 80000804 <LEON_REG+0x804>
400001dc:	03 20 00 02 	sethi  %hi(0x80000800), %g1
400001e0:	82 10 60 04 	or  %g1, 4, %g1	! 80000804 <LEON_REG+0x804>
400001e4:	c2 00 40 00 	ld  [ %g1 ], %g1
400001e8:	82 10 60 40 	or  %g1, 0x40, %g1
400001ec:	c2 27 40 00 	st  %g1, [ %i5 ]
400001f0:	03 20 00 02 	sethi  %hi(0x80000800), %g1
400001f4:	82 10 60 04 	or  %g1, 4, %g1	! 80000804 <LEON_REG+0x804>
400001f8:	c0 20 40 00 	clr  [ %g1 ]
400001fc:	03 20 00 02 	sethi  %hi(0x80000800), %g1
40000200:	ba 10 60 04 	or  %g1, 4, %i5	! 80000804 <LEON_REG+0x804>
40000204:	03 20 00 02 	sethi  %hi(0x80000800), %g1
40000208:	82 10 60 04 	or  %g1, 4, %g1	! 80000804 <LEON_REG+0x804>
4000020c:	c2 00 40 00 	ld  [ %g1 ], %g1
40000210:	82 10 60 80 	or  %g1, 0x80, %g1
40000214:	c2 27 40 00 	st  %g1, [ %i5 ]
40000218:	82 10 20 00 	clr  %g1
4000021c:	b0 10 00 01 	mov  %g1, %i0
40000220:	81 c7 e0 08 	ret 
40000224:	81 e8 00 00 	restore 

40000228 <atexit>:
40000228:	03 10 00 04 	sethi  %hi(0x40001000), %g1
4000022c:	c2 00 60 70 	ld  [ %g1 + 0x70 ], %g1	! 40001070 <___DTOR_END__>
40000230:	d8 00 61 48 	ld  [ %g1 + 0x148 ], %o4
40000234:	94 10 00 08 	mov  %o0, %o2
40000238:	80 a3 20 00 	cmp  %o4, 0
4000023c:	02 80 00 0c 	be  4000026c <atexit+0x44>
40000240:	90 10 3f ff 	mov  -1, %o0
40000244:	c2 03 20 04 	ld  [ %o4 + 4 ], %g1
40000248:	9b 28 60 02 	sll  %g1, 2, %o5
4000024c:	9a 03 40 0c 	add  %o5, %o4, %o5
40000250:	80 a0 60 1f 	cmp  %g1, 0x1f
40000254:	14 80 00 09 	bg  40000278 <atexit+0x50>
40000258:	96 00 60 01 	add  %g1, 1, %o3
4000025c:	d4 23 60 08 	st  %o2, [ %o5 + 8 ]
40000260:	d6 23 20 04 	st  %o3, [ %o4 + 4 ]
40000264:	10 80 00 05 	b  40000278 <atexit+0x50>
40000268:	90 10 20 00 	clr  %o0
4000026c:	98 00 61 4c 	add  %g1, 0x14c, %o4
40000270:	10 bf ff f5 	b  40000244 <atexit+0x1c>
40000274:	d8 20 61 48 	st  %o4, [ %g1 + 0x148 ]
40000278:	81 c3 e0 08 	retl 
4000027c:	01 00 00 00 	nop 

40000280 <bdinit1>:
40000280:	81 c3 e0 08 	retl 
40000284:	01 00 00 00 	nop 

40000288 <bdinit2>:
40000288:	81 c3 e0 08 	retl 
4000028c:	01 00 00 00 	nop 

40000290 <prelibchook>:
40000290:	81 c3 e0 08 	retl 
40000294:	01 00 00 00 	nop 

40000298 <_exit>:
40000298:	82 10 20 01 	mov  1, %g1	! 1 <_trap_table-0x3fffffff>
4000029c:	91 d0 20 00 	ta  0
400002a0:	81 c3 e0 08 	retl 
400002a4:	01 00 00 00 	nop 

400002a8 <_start_svt_real>:
400002a8:	01 00 00 00 	nop 

400002ac <_start_svt_weak>:
400002ac:	a7 58 00 00 	rd  %tbr, %l3
400002b0:	a1 48 00 00 	rd  %psr, %l0
400002b4:	a6 0c ef f0 	and  %l3, 0xff0, %l3
400002b8:	a7 34 e0 04 	srl  %l3, 4, %l3
400002bc:	2b 10 00 04 	sethi  %hi(0x40001000), %l5
400002c0:	aa 15 60 7c 	or  %l5, 0x7c, %l5	! 4000107c <trap_table>
400002c4:	ac 10 00 13 	mov  %l3, %l6
400002c8:	e8 05 40 00 	ld  [ %l5 ], %l4
400002cc:	80 a5 00 16 	cmp  %l4, %l6
400002d0:	34 80 00 07 	bg,a   400002ec <_start_svt_weak+0x40>
400002d4:	aa 05 60 0c 	add  %l5, 0xc, %l5
400002d8:	e6 05 60 04 	ld  [ %l5 + 4 ], %l3
400002dc:	80 a4 c0 16 	cmp  %l3, %l6
400002e0:	36 80 00 13 	bge,a   4000032c <_start_svt_weak+0x80>
400002e4:	e6 05 60 08 	ld  [ %l5 + 8 ], %l3
400002e8:	aa 05 60 0c 	add  %l5, 0xc, %l5
400002ec:	e6 05 40 00 	ld  [ %l5 ], %l3
400002f0:	a8 94 e0 00 	orcc  %l3, 0, %l4
400002f4:	12 bf ff f7 	bne  400002d0 <_start_svt_weak+0x24>
400002f8:	80 a5 00 16 	cmp  %l4, %l6
400002fc:	e6 05 60 04 	ld  [ %l5 + 4 ], %l3
40000300:	80 a4 e0 00 	cmp  %l3, 0
40000304:	12 bf ff f3 	bne  400002d0 <_start_svt_weak+0x24>
40000308:	80 a5 00 16 	cmp  %l4, %l6
4000030c:	e6 05 60 08 	ld  [ %l5 + 8 ], %l3
40000310:	80 a4 e0 00 	cmp  %l3, 0
40000314:	12 bf ff ef 	bne  400002d0 <_start_svt_weak+0x24>
40000318:	80 a5 00 16 	cmp  %l4, %l6
4000031c:	91 d0 20 00 	ta  0
40000320:	01 00 00 00 	nop 
40000324:	01 00 00 00 	nop 
40000328:	01 00 00 00 	nop 
4000032c:	81 c4 c0 00 	jmp  %l3
40000330:	01 00 00 00 	nop 

40000334 <_hardreset_svt_real>:
40000334:	01 00 00 00 	nop 

40000338 <_hardreset_svt>:
40000338:	a7 48 00 00 	rd  %psr, %l3
4000033c:	8b 34 e0 18 	srl  %l3, 0x18, %g5
40000340:	8a 09 60 03 	and  %g5, 3, %g5
40000344:	80 a1 60 03 	cmp  %g5, 3
40000348:	12 80 00 11 	bne  4000038c <_hardreset_svt+0x54>
4000034c:	01 00 00 00 	nop 
40000350:	8b 44 40 00 	rd  %asr17, %g5
40000354:	03 00 00 08 	sethi  %hi(0x2000), %g1
40000358:	8a 11 40 01 	or  %g5, %g1, %g5
4000035c:	a3 81 40 00 	mov  %g5, %asr17
40000360:	01 00 00 00 	nop 
40000364:	01 00 00 00 	nop 
40000368:	01 00 00 00 	nop 
4000036c:	8b 44 40 00 	rd  %asr17, %g5
40000370:	80 89 40 01 	btst  %g5, %g1
40000374:	02 80 00 06 	be  4000038c <_hardreset_svt+0x54>
40000378:	01 00 00 00 	nop 
4000037c:	27 10 00 02 	sethi  %hi(0x40000800), %l3
40000380:	a6 14 e2 d4 	or  %l3, 0x2d4, %l3	! 40000ad4 <_hardreset>
40000384:	81 c4 c0 00 	jmp  %l3
40000388:	01 00 00 00 	nop 
4000038c:	91 d0 20 00 	ta  0
40000390:	01 00 00 00 	nop 

40000394 <_call_initcalls>:
40000394:	9d e3 bf 98 	save  %sp, -104, %sp
40000398:	03 10 00 04 	sethi  %hi(0x40001000), %g1
4000039c:	1b 10 00 04 	sethi  %hi(0x40001000), %o5
400003a0:	a0 10 60 70 	or  %g1, 0x70, %l0
400003a4:	9a 13 60 70 	or  %o5, 0x70, %o5
400003a8:	80 a4 00 0d 	cmp  %l0, %o5
400003ac:	1a 80 00 10 	bcc  400003ec <_call_initcalls+0x58>
400003b0:	a2 10 00 0d 	mov  %o5, %l1
400003b4:	10 80 00 06 	b  400003cc <_call_initcalls+0x38>
400003b8:	c2 04 00 00 	ld  [ %l0 ], %g1
400003bc:	80 a4 00 11 	cmp  %l0, %l1
400003c0:	1a 80 00 0b 	bcc  400003ec <_call_initcalls+0x58>
400003c4:	01 00 00 00 	nop 
400003c8:	c2 04 00 00 	ld  [ %l0 ], %g1
400003cc:	80 a0 60 00 	cmp  %g1, 0
400003d0:	02 bf ff fb 	be  400003bc <_call_initcalls+0x28>
400003d4:	a0 04 20 04 	add  %l0, 4, %l0
400003d8:	9f c0 40 00 	call  %g1
400003dc:	01 00 00 00 	nop 
400003e0:	80 a4 00 11 	cmp  %l0, %l1
400003e4:	2a bf ff fa 	bcs,a   400003cc <_call_initcalls+0x38>
400003e8:	c2 04 00 00 	ld  [ %l0 ], %g1
400003ec:	81 c7 e0 08 	ret 
400003f0:	81 e8 00 00 	restore 

400003f4 <__window_overflow_rettseq>:
400003f4:	a7 50 00 00 	rd  %wim, %l3
400003f8:	ae 10 00 01 	mov  %g1, %l7
400003fc:	83 34 e0 01 	srl  %l3, 1, %g1

40000400 <__window_overflow_rettseq_ret>:
40000400:	29 10 00 05 	sethi  %hi(0x40001400), %l4
40000404:	e8 05 23 c4 	ld  [ %l4 + 0x3c4 ], %l4	! 400017c4 <_nwindows_min1>
40000408:	a9 2c c0 14 	sll  %l3, %l4, %l4
4000040c:	82 15 00 01 	or  %l4, %g1, %g1
40000410:	81 e0 00 00 	save 
40000414:	81 90 40 00 	mov  %g1, %wim
40000418:	01 00 00 00 	nop 
4000041c:	01 00 00 00 	nop 
40000420:	01 00 00 00 	nop 
40000424:	e0 3b a0 00 	std  %l0, [ %sp ]
40000428:	e4 3b a0 08 	std  %l2, [ %sp + 8 ]
4000042c:	e8 3b a0 10 	std  %l4, [ %sp + 0x10 ]
40000430:	ec 3b a0 18 	std  %l6, [ %sp + 0x18 ]
40000434:	f0 3b a0 20 	std  %i0, [ %sp + 0x20 ]
40000438:	f4 3b a0 28 	std  %i2, [ %sp + 0x28 ]
4000043c:	f8 3b a0 30 	std  %i4, [ %sp + 0x30 ]
40000440:	fc 3b a0 38 	std  %fp, [ %sp + 0x38 ]
40000444:	81 e8 00 00 	restore 
40000448:	82 10 00 17 	mov  %l7, %g1
4000044c:	81 c4 40 00 	jmp  %l1
40000450:	81 cc 80 00 	rett  %l2
40000454:	01 00 00 00 	nop 

40000458 <__window_overflow_slow1>:
40000458:	01 00 00 00 	nop 
4000045c:	01 00 00 00 	nop 

40000460 <_window_underflow>:
40000460:	a7 50 00 00 	rd  %wim, %l3
40000464:	a9 2c e0 01 	sll  %l3, 1, %l4
40000468:	2b 10 00 05 	sethi  %hi(0x40001400), %l5
4000046c:	ea 05 63 c4 	ld  [ %l5 + 0x3c4 ], %l5	! 400017c4 <_nwindows_min1>
40000470:	ab 34 c0 15 	srl  %l3, %l5, %l5
40000474:	aa 15 40 14 	or  %l5, %l4, %l5
40000478:	81 95 40 00 	mov  %l5, %wim
4000047c:	01 00 00 00 	nop 
40000480:	01 00 00 00 	nop 
40000484:	01 00 00 00 	nop 
40000488:	81 e8 00 00 	restore 
4000048c:	81 e8 00 00 	restore 
40000490:	e0 1b a0 00 	ldd  [ %sp ], %l0
40000494:	e4 1b a0 08 	ldd  [ %sp + 8 ], %l2
40000498:	e8 1b a0 10 	ldd  [ %sp + 0x10 ], %l4
4000049c:	ec 1b a0 18 	ldd  [ %sp + 0x18 ], %l6
400004a0:	f0 1b a0 20 	ldd  [ %sp + 0x20 ], %i0
400004a4:	f4 1b a0 28 	ldd  [ %sp + 0x28 ], %i2
400004a8:	f8 1b a0 30 	ldd  [ %sp + 0x30 ], %i4
400004ac:	fc 1b a0 38 	ldd  [ %sp + 0x38 ], %fp
400004b0:	81 e0 00 00 	save 
400004b4:	81 e0 00 00 	save 
400004b8:	81 c4 40 00 	jmp  %l1
400004bc:	81 cc 80 00 	rett  %l2

400004c0 <_flush_windows_svt>:
400004c0:	a7 50 00 00 	rd  %wim, %l3

400004c4 <_flush_windows>:
400004c4:	29 10 00 03 	sethi  %hi(0x40000c00), %l4
400004c8:	ad c5 20 10 	jmpl  %l4 + 0x10, %l6	! 40000c10 <leonbare_trapsetup>
400004cc:	01 00 00 00 	nop 
400004d0:	27 10 00 05 	sethi  %hi(0x40001400), %l3
400004d4:	a6 14 e3 94 	or  %l3, 0x394, %l3	! 40001794 <_lb_issideflush>
400004d8:	e0 24 c0 00 	st  %l0, [ %l3 ]
400004dc:	81 8c 20 20 	wr  %l0, 0x20, %psr
400004e0:	01 00 00 00 	nop 
400004e4:	01 00 00 00 	nop 
400004e8:	01 00 00 00 	nop 
400004ec:	9d e3 bf a0 	save  %sp, -96, %sp
400004f0:	9d e3 bf a0 	save  %sp, -96, %sp
400004f4:	9d e3 bf a0 	save  %sp, -96, %sp
400004f8:	9d e3 bf a0 	save  %sp, -96, %sp
400004fc:	9d e3 bf a0 	save  %sp, -96, %sp
40000500:	9d e3 bf a0 	save  %sp, -96, %sp
40000504:	9d e3 bf a0 	save  %sp, -96, %sp
40000508:	81 e8 00 00 	restore 
4000050c:	81 e8 00 00 	restore 
40000510:	81 e8 00 00 	restore 
40000514:	81 e8 00 00 	restore 
40000518:	81 e8 00 00 	restore 
4000051c:	81 e8 00 00 	restore 
40000520:	81 e8 00 00 	restore 
40000524:	27 10 00 05 	sethi  %hi(0x40001400), %l3
40000528:	a6 14 e3 94 	or  %l3, 0x394, %l3	! 40001794 <_lb_issideflush>
4000052c:	c0 24 c0 00 	clr  [ %l3 ]
40000530:	e2 03 a0 68 	ld  [ %sp + 0x68 ], %l1
40000534:	a4 04 60 04 	add  %l1, 4, %l2
40000538:	e2 23 a0 64 	st  %l1, [ %sp + 0x64 ]
4000053c:	e4 23 a0 68 	st  %l2, [ %sp + 0x68 ]
40000540:	10 80 01 da 	b  40000ca8 <leonbare_trapreturn>
40000544:	ac 10 00 00 	mov  %g0, %l6

40000548 <_irqcall_flush_windows>:
40000548:	29 10 00 05 	sethi  %hi(0x40001400), %l4
4000054c:	a8 15 23 78 	or  %l4, 0x378, %l4	! 40001778 <_lb_spillglobals>
40000550:	c2 25 20 00 	st  %g1, [ %l4 ]
40000554:	c8 25 20 04 	st  %g4, [ %l4 + 4 ]
40000558:	e0 25 20 10 	st  %l0, [ %l4 + 0x10 ]
4000055c:	e2 25 20 14 	st  %l1, [ %l4 + 0x14 ]
40000560:	e4 25 20 18 	st  %l2, [ %l4 + 0x18 ]
40000564:	e8 25 20 1c 	st  %l4, [ %l4 + 0x1c ]
40000568:	81 e8 00 00 	restore 
4000056c:	83 48 00 00 	rd  %psr, %g1
40000570:	82 10 6f 00 	or  %g1, 0xf00, %g1
40000574:	81 88 60 20 	wr  %g1, 0x20, %psr
40000578:	01 00 00 00 	nop 
4000057c:	01 00 00 00 	nop 
40000580:	01 00 00 00 	nop 
40000584:	09 10 00 05 	sethi  %hi(0x40001400), %g4
40000588:	c8 01 23 c4 	ld  [ %g4 + 0x3c4 ], %g4	! 400017c4 <_nwindows_min1>
4000058c:	81 e0 00 00 	save 
40000590:	88 21 20 01 	dec  %g4
40000594:	80 a9 20 ff 	andncc  %g4, 0xff, %g0
40000598:	02 80 00 03 	be  400005a4 <.lab1>
4000059c:	01 00 00 00 	nop 
400005a0:	01 00 00 00 	nop 

400005a4 <.lab1>:
400005a4:	80 a1 00 00 	cmp  %g4, %g0
400005a8:	12 bf ff f9 	bne  4000058c <_irqcall_flush_windows+0x44>
400005ac:	01 00 00 00 	nop 
400005b0:	09 10 00 05 	sethi  %hi(0x40001400), %g4
400005b4:	c8 01 23 c4 	ld  [ %g4 + 0x3c4 ], %g4	! 400017c4 <_nwindows_min1>
400005b8:	81 e8 00 00 	restore 
400005bc:	80 a9 20 ff 	andncc  %g4, 0xff, %g0
400005c0:	02 80 00 03 	be  400005cc <.lab2>
400005c4:	01 00 00 00 	nop 
400005c8:	01 00 00 00 	nop 

400005cc <.lab2>:
400005cc:	88 21 20 01 	dec  %g4
400005d0:	80 a1 00 00 	cmp  %g4, %g0
400005d4:	12 bf ff f9 	bne  400005b8 <.lab1+0x14>
400005d8:	01 00 00 00 	nop 
400005dc:	81 e0 00 00 	save 
400005e0:	29 10 00 05 	sethi  %hi(0x40001400), %l4
400005e4:	a8 15 23 78 	or  %l4, 0x378, %l4	! 40001778 <_lb_spillglobals>
400005e8:	c8 05 20 04 	ld  [ %l4 + 4 ], %g4
400005ec:	c2 05 20 00 	ld  [ %l4 ], %g1
400005f0:	e0 05 20 10 	ld  [ %l4 + 0x10 ], %l0
400005f4:	e2 05 20 14 	ld  [ %l4 + 0x14 ], %l1
400005f8:	e4 05 20 18 	ld  [ %l4 + 0x18 ], %l2
400005fc:	c0 25 20 1c 	clr  [ %l4 + 0x1c ]
40000600:	81 8c 20 00 	mov  %l0, %psr
40000604:	01 00 00 00 	nop 
40000608:	01 00 00 00 	nop 
4000060c:	01 00 00 00 	nop 
40000610:	81 c4 80 00 	jmp  %l2
40000614:	81 cc a0 04 	rett  %l2 + 4

40000618 <_irqcall_disableirq>:
40000618:	a0 14 2f 00 	or  %l0, 0xf00, %l0
4000061c:	81 8c 00 00 	mov  %l0, %psr
40000620:	01 00 00 00 	nop 
40000624:	01 00 00 00 	nop 
40000628:	01 00 00 00 	nop 
4000062c:	81 c4 80 00 	jmp  %l2
40000630:	81 cc a0 04 	rett  %l2 + 4

40000634 <_irqcall>:
40000634:	80 a6 60 02 	cmp  %i1, 2
40000638:	12 80 00 05 	bne  4000064c <_irqcall+0x18>
4000063c:	a8 14 2f 00 	or  %l0, 0xf00, %l4
40000640:	81 8d 00 00 	mov  %l4, %psr
40000644:	b0 14 20 20 	or  %l0, 0x20, %i0
40000648:	30 80 00 1f 	b,a   400006c4 <_irqcall+0x90>
4000064c:	80 a6 60 03 	cmp  %i1, 3
40000650:	12 80 00 06 	bne  40000668 <_irqcall+0x34>
40000654:	a8 0e 2f 00 	and  %i0, 0xf00, %l4
40000658:	aa 2c 2f 00 	andn  %l0, 0xf00, %l5
4000065c:	a8 15 40 14 	or  %l5, %l4, %l4
40000660:	81 8d 00 00 	mov  %l4, %psr
40000664:	30 80 00 18 	b,a   400006c4 <_irqcall+0x90>
40000668:	80 a6 60 04 	cmp  %i1, 4
4000066c:	12 80 00 08 	bne  4000068c <_irqcall+0x58>
40000670:	a9 48 00 00 	rd  %psr, %l4
40000674:	a8 15 20 40 	or  %l4, 0x40, %l4
40000678:	81 8d 00 00 	mov  %l4, %psr
4000067c:	01 00 00 00 	nop 
40000680:	01 00 00 00 	nop 
40000684:	01 00 00 00 	nop 
40000688:	30 80 00 0f 	b,a   400006c4 <_irqcall+0x90>
4000068c:	80 a6 60 05 	cmp  %i1, 5
40000690:	12 80 00 08 	bne  400006b0 <_irqcall+0x7c>
40000694:	a9 48 00 00 	rd  %psr, %l4
40000698:	a8 2d 20 40 	andn  %l4, 0x40, %l4
4000069c:	81 8d 00 00 	mov  %l4, %psr
400006a0:	01 00 00 00 	nop 
400006a4:	01 00 00 00 	nop 
400006a8:	01 00 00 00 	nop 
400006ac:	30 80 00 06 	b,a   400006c4 <_irqcall+0x90>
400006b0:	80 a6 60 06 	cmp  %i1, 6
400006b4:	12 80 00 03 	bne  400006c0 <_irqcall+0x8c>
400006b8:	01 00 00 00 	nop 
400006bc:	30 bf ff a3 	b,a   40000548 <_irqcall_flush_windows>
400006c0:	91 d0 20 00 	ta  0
400006c4:	81 c4 80 00 	jmp  %l2
400006c8:	81 cc a0 04 	rett  %l2 + 4

400006cc <leonbare_enable_traps>:
400006cc:	92 10 20 03 	mov  3, %o1
400006d0:	81 c3 e0 08 	retl 
400006d4:	91 d0 20 02 	ta  2

400006d8 <leonbare_disable_traps>:
400006d8:	92 10 20 02 	mov  2, %o1
400006dc:	81 c3 e0 08 	retl 
400006e0:	91 d0 20 02 	ta  2

400006e4 <leonbare_flush_windows>:
400006e4:	92 10 20 06 	mov  6, %o1
400006e8:	81 c3 e0 08 	retl 
400006ec:	91 d0 20 02 	ta  2

400006f0 <_leonbare_irq_entry_svt>:
400006f0:	ae 25 a0 10 	sub  %l6, 0x10, %l7
400006f4:	a7 50 00 00 	rd  %wim, %l3

400006f8 <leonbare_irq_entry>:
400006f8:	2d 10 00 01 	sethi  %hi(0x40000400), %l6
400006fc:	ac 15 a3 04 	or  %l6, 0x304, %l6	! 40000704 <leonbare_irq_entry+0xc>
40000700:	29 10 00 03 	sethi  %hi(0x40000c00), %l4
40000704:	81 c5 21 b8 	jmp  %l4 + 0x1b8	! 40000db8 <leonbare_trapsetup_fast>
40000708:	01 00 00 00 	nop 
4000070c:	11 10 00 05 	sethi  %hi(0x40001400), %o0
40000710:	90 12 23 a0 	or  %o0, 0x3a0, %o0	! 400017a0 <nestcount>
40000714:	d2 02 00 00 	ld  [ %o0 ], %o1
40000718:	92 02 60 01 	inc  %o1
4000071c:	d2 22 00 00 	st  %o1, [ %o0 ]
40000720:	93 2d e0 08 	sll  %l7, 8, %o1
40000724:	90 2c 2f 00 	andn  %l0, 0xf00, %o0
40000728:	92 12 00 09 	or  %o0, %o1, %o1
4000072c:	11 10 00 05 	sethi  %hi(0x40001400), %o0
40000730:	90 12 23 98 	or  %o0, 0x398, %o0	! 40001798 <nestedirq>
40000734:	d0 02 00 00 	ld  [ %o0 ], %o0
40000738:	80 a0 00 08 	cmp  %g0, %o0
4000073c:	22 80 00 02 	be,a   40000744 <leonbare_irq_entry+0x4c>
40000740:	92 12 6f 00 	or  %o1, 0xf00, %o1
40000744:	81 8a 60 20 	wr  %o1, 0x20, %psr
40000748:	01 00 00 00 	nop 
4000074c:	01 00 00 00 	nop 
40000750:	01 00 00 00 	nop 
40000754:	90 10 00 17 	mov  %l7, %o0
40000758:	40 00 00 31 	call  4000081c <handler_irq>
4000075c:	92 03 a0 60 	add  %sp, 0x60, %o1
40000760:	92 14 2f 00 	or  %l0, 0xf00, %o1
40000764:	81 8a 60 20 	wr  %o1, 0x20, %psr
40000768:	01 00 00 00 	nop 
4000076c:	01 00 00 00 	nop 
40000770:	01 00 00 00 	nop 
40000774:	11 10 00 05 	sethi  %hi(0x40001400), %o0
40000778:	90 12 23 a0 	or  %o0, 0x3a0, %o0	! 400017a0 <nestcount>
4000077c:	d2 02 00 00 	ld  [ %o0 ], %o1
40000780:	92 22 60 01 	dec  %o1
40000784:	d2 22 00 00 	st  %o1, [ %o0 ]
40000788:	10 80 01 ac 	b  40000e38 <leonbare_trapreturn_fast>
4000078c:	ac 10 00 00 	mov  %g0, %l6

40000790 <chained_catch_interrupt>:
40000790:	1b 10 00 06 	sethi  %hi(0x40001800), %o5
40000794:	9a 13 62 90 	or  %o5, 0x290, %o5	! 40001a90 <_irqtbl>
40000798:	91 2a 20 02 	sll  %o0, 2, %o0
4000079c:	c2 03 40 08 	ld  [ %o5 + %o0 ], %g1
400007a0:	c2 22 60 0c 	st  %g1, [ %o1 + 0xc ]
400007a4:	81 c3 e0 08 	retl 
400007a8:	d2 23 40 08 	st  %o1, [ %o5 + %o0 ]

400007ac <catch_interrupt>:
400007ac:	9d e3 bf 98 	save  %sp, -104, %sp
400007b0:	03 10 00 06 	sethi  %hi(0x40001800), %g1
400007b4:	82 10 62 90 	or  %g1, 0x290, %g1	! 40001a90 <_irqtbl>
400007b8:	99 2e 60 02 	sll  %i1, 2, %o4
400007bc:	1b 10 00 06 	sethi  %hi(0x40001800), %o5
400007c0:	97 2e 60 04 	sll  %i1, 4, %o3
400007c4:	d8 00 40 0c 	ld  [ %g1 + %o4 ], %o4
400007c8:	9a 13 60 90 	or  %o5, 0x90, %o5
400007cc:	90 10 00 19 	mov  %i1, %o0
400007d0:	92 02 c0 0d 	add  %o3, %o5, %o1
400007d4:	80 a6 60 1f 	cmp  %i1, 0x1f
400007d8:	14 80 00 0f 	bg  40000814 <catch_interrupt+0x68>
400007dc:	82 10 20 00 	clr  %g1
400007e0:	10 80 00 06 	b  400007f8 <catch_interrupt+0x4c>
400007e4:	80 a3 20 00 	cmp  %o4, 0
400007e8:	22 80 00 0a 	be,a   40000810 <catch_interrupt+0x64>
400007ec:	c2 02 40 00 	ld  [ %o1 ], %g1
400007f0:	d8 03 20 0c 	ld  [ %o4 + 0xc ], %o4
400007f4:	80 a3 20 00 	cmp  %o4, 0
400007f8:	12 bf ff fc 	bne  400007e8 <catch_interrupt+0x3c>
400007fc:	80 a3 00 09 	cmp  %o4, %o1
40000800:	7f ff ff e4 	call  40000790 <chained_catch_interrupt>
40000804:	f0 22 40 00 	st  %i0, [ %o1 ]
40000808:	10 80 00 03 	b  40000814 <catch_interrupt+0x68>
4000080c:	82 10 20 00 	clr  %g1
40000810:	f0 22 40 00 	st  %i0, [ %o1 ]
40000814:	81 c7 e0 08 	ret 
40000818:	91 e8 00 01 	restore  %g0, %g1, %o0

4000081c <handler_irq>:
4000081c:	9d e3 bf 98 	save  %sp, -104, %sp
40000820:	1b 10 00 05 	sethi  %hi(0x40001400), %o5
40000824:	82 13 63 b4 	or  %o5, 0x3b4, %g1	! 400017b4 <LEON3_IrqCtrl_Regs>
40000828:	d8 00 60 04 	ld  [ %g1 + 4 ], %o4
4000082c:	80 a3 00 18 	cmp  %o4, %i0
40000830:	02 80 00 44 	be  40000940 <handler_irq+0x124>
40000834:	c2 03 63 b4 	ld  [ %o5 + 0x3b4 ], %g1
40000838:	80 a6 20 00 	cmp  %i0, 0
4000083c:	22 80 00 02 	be,a   40000844 <handler_irq+0x28>
40000840:	b0 10 00 0c 	mov  %o4, %i0
40000844:	03 10 00 06 	sethi  %hi(0x40001800), %g1
40000848:	a3 2e 20 02 	sll  %i0, 2, %l1
4000084c:	82 10 62 90 	or  %g1, 0x290, %g1
40000850:	e0 00 40 11 	ld  [ %g1 + %l1 ], %l0
40000854:	80 a4 20 00 	cmp  %l0, 0
40000858:	02 80 00 3d 	be  4000094c <handler_irq+0x130>
4000085c:	03 10 00 06 	sethi  %hi(0x40001800), %g1
40000860:	10 80 00 12 	b  400008a8 <handler_irq+0x8c>
40000864:	a4 10 60 0c 	or  %g1, 0xc, %l2	! 4000180c <inirq>
40000868:	d2 04 20 08 	ld  [ %l0 + 8 ], %o1
4000086c:	94 10 00 19 	mov  %i1, %o2
40000870:	9f c3 00 00 	call  %o4
40000874:	90 10 00 18 	mov  %i0, %o0
40000878:	03 10 00 06 	sethi  %hi(0x40001800), %g1
4000087c:	c2 00 60 04 	ld  [ %g1 + 4 ], %g1	! 40001804 <handler_irq_post>
40000880:	80 a0 60 00 	cmp  %g1, 0
40000884:	12 80 00 2b 	bne  40000930 <handler_irq+0x114>
40000888:	01 00 00 00 	nop 
4000088c:	c2 04 80 11 	ld  [ %l2 + %l1 ], %g1
40000890:	82 00 7f ff 	add  %g1, -1, %g1
40000894:	c2 24 80 11 	st  %g1, [ %l2 + %l1 ]
40000898:	e0 04 20 0c 	ld  [ %l0 + 0xc ], %l0
4000089c:	80 a4 20 00 	cmp  %l0, 0
400008a0:	02 80 00 2b 	be  4000094c <handler_irq+0x130>
400008a4:	01 00 00 00 	nop 
400008a8:	d8 04 00 00 	ld  [ %l0 ], %o4
400008ac:	80 a3 20 00 	cmp  %o4, 0
400008b0:	22 bf ff fb 	be,a   4000089c <handler_irq+0x80>
400008b4:	e0 04 20 0c 	ld  [ %l0 + 0xc ], %l0
400008b8:	03 10 00 06 	sethi  %hi(0x40001800), %g1
400008bc:	da 00 60 8c 	ld  [ %g1 + 0x8c ], %o5	! 4000188c <no_inirq_check>
400008c0:	80 a3 60 00 	cmp  %o5, 0
400008c4:	12 80 00 08 	bne  400008e4 <handler_irq+0xc8>
400008c8:	96 10 00 12 	mov  %l2, %o3
400008cc:	03 10 00 06 	sethi  %hi(0x40001800), %g1
400008d0:	82 10 60 0c 	or  %g1, 0xc, %g1	! 4000180c <inirq>
400008d4:	da 00 40 11 	ld  [ %g1 + %l1 ], %o5
400008d8:	80 a3 60 00 	cmp  %o5, 0
400008dc:	32 bf ff f0 	bne,a   4000089c <handler_irq+0x80>
400008e0:	e0 04 20 0c 	ld  [ %l0 + 0xc ], %l0
400008e4:	da 02 c0 11 	ld  [ %o3 + %l1 ], %o5
400008e8:	03 10 00 06 	sethi  %hi(0x40001800), %g1
400008ec:	9a 03 60 01 	inc  %o5
400008f0:	c2 00 60 08 	ld  [ %g1 + 8 ], %g1
400008f4:	80 a0 60 00 	cmp  %g1, 0
400008f8:	02 bf ff dc 	be  40000868 <handler_irq+0x4c>
400008fc:	da 22 c0 11 	st  %o5, [ %o3 + %l1 ]
40000900:	9f c0 40 00 	call  %g1
40000904:	01 00 00 00 	nop 
40000908:	d8 04 00 00 	ld  [ %l0 ], %o4
4000090c:	d2 04 20 08 	ld  [ %l0 + 8 ], %o1
40000910:	94 10 00 19 	mov  %i1, %o2
40000914:	9f c3 00 00 	call  %o4
40000918:	90 10 00 18 	mov  %i0, %o0
4000091c:	03 10 00 06 	sethi  %hi(0x40001800), %g1
40000920:	c2 00 60 04 	ld  [ %g1 + 4 ], %g1	! 40001804 <handler_irq_post>
40000924:	80 a0 60 00 	cmp  %g1, 0
40000928:	22 bf ff da 	be,a   40000890 <handler_irq+0x74>
4000092c:	c2 04 80 11 	ld  [ %l2 + %l1 ], %g1
40000930:	9f c0 40 00 	call  %g1
40000934:	01 00 00 00 	nop 
40000938:	10 bf ff d6 	b  40000890 <handler_irq+0x74>
4000093c:	c2 04 80 11 	ld  [ %l2 + %l1 ], %g1
40000940:	da 00 60 c0 	ld  [ %g1 + 0xc0 ], %o5
40000944:	10 bf ff bd 	b  40000838 <handler_irq+0x1c>
40000948:	b0 0b 60 1f 	and  %o5, 0x1f, %i0
4000094c:	81 c7 e0 08 	ret 
40000950:	81 e8 00 00 	restore 

40000954 <traptable_genjmp>:
40000954:	9d e3 bf 98 	save  %sp, -104, %sp
40000958:	03 10 00 05 	sethi  %hi(0x40001400), %g1
4000095c:	98 10 63 a4 	or  %g1, 0x3a4, %o4	! 400017a4 <genseq>
40000960:	3b 3f ff f8 	sethi  %hi(0xffffe000), %i5
40000964:	de 03 20 08 	ld  [ %o4 + 8 ], %o7
40000968:	da 00 63 a4 	ld  [ %g1 + 0x3a4 ], %o5
4000096c:	9e 0b c0 1d 	and  %o7, %i5, %o7
40000970:	03 3f f0 00 	sethi  %hi(0xffc00000), %g1
40000974:	b3 2e 60 04 	sll  %i1, 4, %i1
40000978:	ba 0e e3 ff 	and  %i3, 0x3ff, %i5
4000097c:	f8 03 20 04 	ld  [ %o4 + 4 ], %i4
40000980:	9a 13 40 1a 	or  %o5, %i2, %o5
40000984:	da 26 00 19 	st  %o5, [ %i0 + %i1 ]
40000988:	b8 0f 00 01 	and  %i4, %g1, %i4
4000098c:	b7 36 e0 0a 	srl  %i3, 0xa, %i3
40000990:	b2 06 40 18 	add  %i1, %i0, %i1
40000994:	b8 17 00 1b 	or  %i4, %i3, %i4
40000998:	9e 13 c0 1d 	or  %o7, %i5, %o7
4000099c:	c2 03 20 0c 	ld  [ %o4 + 0xc ], %g1
400009a0:	c2 26 60 0c 	st  %g1, [ %i1 + 0xc ]
400009a4:	f8 26 60 04 	st  %i4, [ %i1 + 4 ]
400009a8:	de 26 60 08 	st  %o7, [ %i1 + 8 ]
400009ac:	81 c7 e0 08 	ret 
400009b0:	81 e8 00 00 	restore 

400009b4 <sparc_leon23_get_tbr_base>:
400009b4:	91 58 00 00 	rd  %tbr, %o0
400009b8:	81 c3 e0 08 	retl 
400009bc:	90 0a 30 00 	and  %o0, -4096, %o0

400009c0 <cpuinit>:
400009c0:	8c 10 00 0f 	mov  %o7, %g6
400009c4:	a7 48 00 00 	rd  %psr, %l3
400009c8:	8b 34 e0 18 	srl  %l3, 0x18, %g5
400009cc:	8a 09 60 0f 	and  %g5, 0xf, %g5
400009d0:	80 a1 60 03 	cmp  %g5, 3
400009d4:	02 80 00 02 	be  400009dc <cpuinit+0x1c>
400009d8:	10 80 00 39 	b  40000abc <cpuinit+0xfc>
400009dc:	90 10 20 01 	mov  1, %o0
400009e0:	92 10 20 06 	mov  6, %o1
400009e4:	40 00 01 4b 	call  40000f10 <ahbslv_scan>
400009e8:	01 00 00 00 	nop 
400009ec:	80 a0 00 08 	cmp  %g0, %o0
400009f0:	02 80 00 33 	be  40000abc <cpuinit+0xfc>
400009f4:	01 00 00 00 	nop 
400009f8:	c2 02 20 10 	ld  [ %o0 + 0x10 ], %g1
400009fc:	11 3f fc 00 	sethi  %hi(0xfff00000), %o0
40000a00:	82 08 40 08 	and  %g1, %o0, %g1
40000a04:	11 00 03 fc 	sethi  %hi(0xff000), %o0
40000a08:	84 10 40 08 	or  %g1, %o0, %g2
40000a0c:	90 10 00 02 	mov  %g2, %o0
40000a10:	92 10 20 01 	mov  1, %o1
40000a14:	94 10 20 0c 	mov  0xc, %o2
40000a18:	40 00 01 54 	call  40000f68 <apbslv_scan>
40000a1c:	01 00 00 00 	nop 
40000a20:	80 a0 00 08 	cmp  %g0, %o0
40000a24:	02 80 00 26 	be  40000abc <cpuinit+0xfc>
40000a28:	01 00 00 00 	nop 
40000a2c:	40 00 01 64 	call  40000fbc <iobar_getbase>
40000a30:	92 10 00 01 	mov  %g1, %o1
40000a34:	0b 10 00 05 	sethi  %hi(0x40001400), %g5
40000a38:	8a 11 63 bc 	or  %g5, 0x3bc, %g5	! 400017bc <console>
40000a3c:	d2 21 40 00 	st  %o1, [ %g5 ]
40000a40:	90 10 00 02 	mov  %g2, %o0
40000a44:	92 10 20 01 	mov  1, %o1
40000a48:	94 10 20 11 	mov  0x11, %o2
40000a4c:	40 00 01 47 	call  40000f68 <apbslv_scan>
40000a50:	01 00 00 00 	nop 
40000a54:	80 a0 00 08 	cmp  %g0, %o0
40000a58:	02 80 00 19 	be  40000abc <cpuinit+0xfc>
40000a5c:	01 00 00 00 	nop 
40000a60:	40 00 01 57 	call  40000fbc <iobar_getbase>
40000a64:	92 10 00 01 	mov  %g1, %o1
40000a68:	92 02 60 10 	add  %o1, 0x10, %o1
40000a6c:	0b 10 00 05 	sethi  %hi(0x40001400), %g5
40000a70:	8a 11 63 d8 	or  %g5, 0x3d8, %g5	! 400017d8 <rtc>
40000a74:	d2 21 40 00 	st  %o1, [ %g5 ]
40000a78:	90 10 00 02 	mov  %g2, %o0
40000a7c:	92 10 20 01 	mov  1, %o1
40000a80:	94 10 20 0d 	mov  0xd, %o2
40000a84:	40 00 01 39 	call  40000f68 <apbslv_scan>
40000a88:	01 00 00 00 	nop 
40000a8c:	80 a0 00 08 	cmp  %g0, %o0
40000a90:	02 80 00 0b 	be  40000abc <cpuinit+0xfc>
40000a94:	01 00 00 00 	nop 
40000a98:	40 00 01 49 	call  40000fbc <iobar_getbase>
40000a9c:	92 10 00 01 	mov  %g1, %o1
40000aa0:	0b 10 00 05 	sethi  %hi(0x40001400), %g5
40000aa4:	8a 11 63 b4 	or  %g5, 0x3b4, %g5	! 400017b4 <LEON3_IrqCtrl_Regs>
40000aa8:	d2 21 40 00 	st  %o1, [ %g5 ]
40000aac:	d4 02 60 10 	ld  [ %o1 + 0x10 ], %o2
40000ab0:	95 32 a0 10 	srl  %o2, 0x10, %o2
40000ab4:	94 0a a0 0f 	and  %o2, 0xf, %o2
40000ab8:	d4 21 60 04 	st  %o2, [ %g5 + 4 ]
40000abc:	9e 10 00 06 	mov  %g6, %o7
40000ac0:	81 c3 e0 08 	retl 
40000ac4:	01 00 00 00 	nop 
40000ac8:	03 10 00 05 	sethi  %hi(0x40001400), %g1
40000acc:	82 10 63 d0 	or  %g1, 0x3d0, %g1	! 400017d0 <jiffies_64>

40000ad0 <_hardreset_real>:
40000ad0:	01 00 00 00 	nop 

40000ad4 <_hardreset>:
40000ad4:	03 10 00 02 	sethi  %hi(0x40000800), %g1
40000ad8:	82 10 63 88 	or  %g1, 0x388, %g1	! 40000b88 <_hardreset_custom_weak>
40000adc:	9f c0 40 00 	call  %g1
40000ae0:	01 00 00 00 	nop 
40000ae4:	03 10 00 00 	sethi  %hi(0x40000000), %g1
40000ae8:	82 10 60 00 	mov  %g1, %g1	! 40000000 <_trap_table>
40000aec:	81 98 40 00 	mov  %g1, %tbr
40000af0:	03 10 00 02 	sethi  %hi(0x40000800), %g1
40000af4:	82 10 63 f0 	or  %g1, 0x3f0, %g1	! 40000bf0 <_hardreset_custom_svt_weak>
40000af8:	9f c0 40 00 	call  %g1
40000afc:	01 00 00 00 	nop 
40000b00:	03 10 00 02 	sethi  %hi(0x40000800), %g1
40000b04:	82 10 63 78 	or  %g1, 0x378, %g1	! 40000b78 <_cleanregs_libgloss>
40000b08:	9f c0 40 00 	call  %g1
40000b0c:	01 00 00 00 	nop 
40000b10:	8b 44 40 00 	rd  %asr17, %g5
40000b14:	8b 31 60 1c 	srl  %g5, 0x1c, %g5
40000b18:	80 a1 40 00 	cmp  %g5, %g0
40000b1c:	12 80 00 06 	bne  40000b34 <slavego>
40000b20:	01 00 00 00 	nop 

40000b24 <callcpuinit>:
40000b24:	7f ff ff a7 	call  400009c0 <cpuinit>
40000b28:	01 00 00 00 	nop 
40000b2c:	7f ff fd 95 	call  40000180 <pnpinit>
40000b30:	01 00 00 00 	nop 

40000b34 <slavego>:
40000b34:	9c 23 a0 40 	sub  %sp, 0x40, %sp
40000b38:	7f ff fd 35 	call  4000000c <_start>
40000b3c:	01 00 00 00 	nop 
40000b40:	82 10 20 01 	mov  1, %g1	! 1 <_trap_table-0x3fffffff>
40000b44:	91 d0 20 00 	ta  0
40000b48:	01 00 00 00 	nop 

40000b4c <_fpdis>:
40000b4c:	29 00 00 04 	sethi  %hi(0x1000), %l4
40000b50:	a6 8c 00 14 	andcc  %l0, %l4, %l3
40000b54:	32 80 00 03 	bne,a   40000b60 <_fpdis+0x14>
40000b58:	a0 2c 00 14 	andn  %l0, %l4, %l0
40000b5c:	91 d0 20 00 	ta  0
40000b60:	81 8c 00 00 	mov  %l0, %psr
40000b64:	01 00 00 00 	nop 
40000b68:	01 00 00 00 	nop 
40000b6c:	01 00 00 00 	nop 
40000b70:	81 c4 80 00 	jmp  %l2
40000b74:	81 cc a0 04 	rett  %l2 + 4

40000b78 <_cleanregs_libgloss>:
40000b78:	81 c3 e0 08 	retl 
40000b7c:	01 00 00 00 	nop 
40000b80:	81 c1 e0 08 	jmp  %g7 + 8
40000b84:	01 00 00 00 	nop 

40000b88 <_hardreset_custom_weak>:
40000b88:	a7 48 00 00 	rd  %psr, %l3
40000b8c:	8b 34 e0 18 	srl  %l3, 0x18, %g5
40000b90:	8a 09 60 03 	and  %g5, 3, %g5
40000b94:	80 a1 60 03 	cmp  %g5, 3
40000b98:	12 80 00 08 	bne  40000bb8 <_hardreset_custom_weak+0x30>
40000b9c:	01 00 00 00 	nop 
40000ba0:	21 10 00 05 	sethi  %hi(0x40001400), %l0
40000ba4:	a0 14 23 cc 	or  %l0, 0x3cc, %l0	! 400017cc <_leon_version>
40000ba8:	a2 10 20 03 	mov  3, %l1
40000bac:	e2 24 00 00 	st  %l1, [ %l0 ]
40000bb0:	8b 44 40 00 	rd  %asr17, %g5
40000bb4:	10 80 00 01 	b  40000bb8 <_hardreset_custom_weak+0x30>
40000bb8:	8a 09 60 1f 	and  %g5, 0x1f, %g5
40000bbc:	27 10 00 05 	sethi  %hi(0x40001400), %l3
40000bc0:	a6 14 e3 c4 	or  %l3, 0x3c4, %l3	! 400017c4 <_nwindows_min1>
40000bc4:	ca 24 c0 00 	st  %g5, [ %l3 ]
40000bc8:	8a 01 60 01 	inc  %g5
40000bcc:	27 10 00 05 	sethi  %hi(0x40001400), %l3
40000bd0:	a6 14 e3 c0 	or  %l3, 0x3c0, %l3	! 400017c0 <_nwindows>
40000bd4:	ca 24 c0 00 	st  %g5, [ %l3 ]
40000bd8:	27 10 00 05 	sethi  %hi(0x40001400), %l3
40000bdc:	a6 14 e3 c8 	or  %l3, 0x3c8, %l3	! 400017c8 <_nwindows_min2>
40000be0:	8a 21 60 02 	sub  %g5, 2, %g5
40000be4:	ca 24 c0 00 	st  %g5, [ %l3 ]
40000be8:	81 c3 e0 08 	retl 
40000bec:	01 00 00 00 	nop 

40000bf0 <_hardreset_custom_svt_weak>:
40000bf0:	81 c3 e0 08 	retl 
40000bf4:	01 00 00 00 	nop 

40000bf8 <_srmmu_fault>:
40000bf8:	91 d0 20 00 	ta  0
40000bfc:	01 00 00 00 	nop 
40000c00:	01 00 00 00 	nop 
40000c04:	01 00 00 00 	nop 
40000c08:	81 c4 40 00 	jmp  %l1
40000c0c:	81 cc 80 00 	rett  %l2

40000c10 <leonbare_trapsetup>:
40000c10:	aa 27 a0 b0 	sub  %fp, 0xb0, %l5
40000c14:	e0 25 60 60 	st  %l0, [ %l5 + 0x60 ]
40000c18:	e2 25 60 64 	st  %l1, [ %l5 + 0x64 ]
40000c1c:	e4 25 60 68 	st  %l2, [ %l5 + 0x68 ]
40000c20:	c2 25 60 74 	st  %g1, [ %l5 + 0x74 ]
40000c24:	c4 3d 60 78 	std  %g2, [ %l5 + 0x78 ]
40000c28:	c8 3d 60 80 	std  %g4, [ %l5 + 0x80 ]
40000c2c:	cc 3d 60 88 	std  %g6, [ %l5 + 0x88 ]
40000c30:	85 40 00 00 	rd  %y, %g2
40000c34:	c4 25 60 6c 	st  %g2, [ %l5 + 0x6c ]
40000c38:	f0 3d 60 90 	std  %i0, [ %l5 + 0x90 ]
40000c3c:	f4 3d 60 98 	std  %i2, [ %l5 + 0x98 ]
40000c40:	f8 3d 60 a0 	std  %i4, [ %l5 + 0xa0 ]
40000c44:	fc 3d 60 a8 	std  %fp, [ %l5 + 0xa8 ]
40000c48:	a8 10 20 01 	mov  1, %l4
40000c4c:	a9 2d 00 10 	sll  %l4, %l0, %l4
40000c50:	80 8d 00 13 	btst  %l4, %l3
40000c54:	02 80 00 13 	be  40000ca0 <leonbare_trapsetup+0x90>
40000c58:	01 00 00 00 	nop 
40000c5c:	85 34 e0 01 	srl  %l3, 1, %g2
40000c60:	07 10 00 05 	sethi  %hi(0x40001400), %g3
40000c64:	c6 00 e3 c4 	ld  [ %g3 + 0x3c4 ], %g3	! 400017c4 <_nwindows_min1>
40000c68:	a7 2c c0 03 	sll  %l3, %g3, %l3
40000c6c:	84 14 c0 02 	or  %l3, %g2, %g2
40000c70:	84 08 a0 ff 	and  %g2, 0xff, %g2
40000c74:	81 e0 00 00 	save 
40000c78:	81 90 a0 00 	mov  %g2, %wim
40000c7c:	e0 3b a0 00 	std  %l0, [ %sp ]
40000c80:	e4 3b a0 08 	std  %l2, [ %sp + 8 ]
40000c84:	e8 3b a0 10 	std  %l4, [ %sp + 0x10 ]
40000c88:	ec 3b a0 18 	std  %l6, [ %sp + 0x18 ]
40000c8c:	f0 3b a0 20 	std  %i0, [ %sp + 0x20 ]
40000c90:	f4 3b a0 28 	std  %i2, [ %sp + 0x28 ]
40000c94:	f8 3b a0 30 	std  %i4, [ %sp + 0x30 ]
40000c98:	fc 3b a0 38 	std  %fp, [ %sp + 0x38 ]
40000c9c:	81 e8 00 00 	restore 
40000ca0:	81 c5 a0 08 	jmp  %l6 + 8
40000ca4:	9c 10 00 15 	mov  %l5, %sp

40000ca8 <leonbare_trapreturn>:
40000ca8:	05 10 00 06 	sethi  %hi(0x40001800), %g2
40000cac:	84 10 a0 00 	mov  %g2, %g2	! 40001800 <schedule_callback>
40000cb0:	c4 00 80 00 	ld  [ %g2 ], %g2
40000cb4:	80 a0 80 00 	cmp  %g2, %g0
40000cb8:	02 80 00 04 	be  40000cc8 <leonbare_trapreturn+0x20>
40000cbc:	01 00 00 00 	nop 
40000cc0:	9f c0 80 00 	call  %g2
40000cc4:	92 03 a0 60 	add  %sp, 0x60, %o1
40000cc8:	81 8c 20 00 	mov  %l0, %psr
40000ccc:	82 10 20 02 	mov  2, %g1
40000cd0:	83 28 40 10 	sll  %g1, %l0, %g1
40000cd4:	05 10 00 05 	sethi  %hi(0x40001400), %g2
40000cd8:	c4 00 a3 c0 	ld  [ %g2 + 0x3c0 ], %g2	! 400017c0 <_nwindows>
40000cdc:	85 30 40 02 	srl  %g1, %g2, %g2
40000ce0:	82 10 40 02 	or  %g1, %g2, %g1
40000ce4:	85 50 00 00 	rd  %wim, %g2
40000ce8:	80 88 80 01 	btst  %g2, %g1
40000cec:	02 80 00 20 	be  40000d6c <leonbare_trapreturn+0xc4>
40000cf0:	83 28 a0 01 	sll  %g2, 1, %g1
40000cf4:	07 10 00 05 	sethi  %hi(0x40001400), %g3
40000cf8:	c6 00 e3 c4 	ld  [ %g3 + 0x3c4 ], %g3	! 400017c4 <_nwindows_min1>
40000cfc:	85 30 80 03 	srl  %g2, %g3, %g2
40000d00:	82 10 40 02 	or  %g1, %g2, %g1
40000d04:	82 08 60 ff 	and  %g1, 0xff, %g1
40000d08:	81 90 60 00 	mov  %g1, %wim
40000d0c:	c2 03 a0 6c 	ld  [ %sp + 0x6c ], %g1
40000d10:	81 80 60 00 	mov  %g1, %y
40000d14:	f0 1b a0 90 	ldd  [ %sp + 0x90 ], %i0
40000d18:	f4 1b a0 98 	ldd  [ %sp + 0x98 ], %i2
40000d1c:	f8 1b a0 a0 	ldd  [ %sp + 0xa0 ], %i4
40000d20:	fc 1b a0 a8 	ldd  [ %sp + 0xa8 ], %fp
40000d24:	c2 03 a0 74 	ld  [ %sp + 0x74 ], %g1
40000d28:	c4 1b a0 78 	ldd  [ %sp + 0x78 ], %g2
40000d2c:	c8 1b a0 80 	ldd  [ %sp + 0x80 ], %g4
40000d30:	cc 1b a0 88 	ldd  [ %sp + 0x88 ], %g6
40000d34:	e0 03 a0 60 	ld  [ %sp + 0x60 ], %l0
40000d38:	e2 03 a0 64 	ld  [ %sp + 0x64 ], %l1
40000d3c:	e4 03 a0 68 	ld  [ %sp + 0x68 ], %l2
40000d40:	81 e8 00 00 	restore 
40000d44:	e0 1b a0 00 	ldd  [ %sp ], %l0
40000d48:	e4 1b a0 08 	ldd  [ %sp + 8 ], %l2
40000d4c:	e8 1b a0 10 	ldd  [ %sp + 0x10 ], %l4
40000d50:	ec 1b a0 18 	ldd  [ %sp + 0x18 ], %l6
40000d54:	f0 1b a0 20 	ldd  [ %sp + 0x20 ], %i0
40000d58:	f4 1b a0 28 	ldd  [ %sp + 0x28 ], %i2
40000d5c:	f8 1b a0 30 	ldd  [ %sp + 0x30 ], %i4
40000d60:	fc 1b a0 38 	ldd  [ %sp + 0x38 ], %fp
40000d64:	10 80 00 0f 	b  40000da0 <leonbare_trapreturn+0xf8>
40000d68:	81 e0 00 00 	save 
40000d6c:	c2 03 a0 6c 	ld  [ %sp + 0x6c ], %g1
40000d70:	81 80 60 00 	mov  %g1, %y
40000d74:	f0 1b a0 90 	ldd  [ %sp + 0x90 ], %i0
40000d78:	f4 1b a0 98 	ldd  [ %sp + 0x98 ], %i2
40000d7c:	f8 1b a0 a0 	ldd  [ %sp + 0xa0 ], %i4
40000d80:	fc 1b a0 a8 	ldd  [ %sp + 0xa8 ], %fp
40000d84:	c2 03 a0 74 	ld  [ %sp + 0x74 ], %g1
40000d88:	c4 1b a0 78 	ldd  [ %sp + 0x78 ], %g2
40000d8c:	c8 1b a0 80 	ldd  [ %sp + 0x80 ], %g4
40000d90:	cc 1b a0 88 	ldd  [ %sp + 0x88 ], %g6
40000d94:	e0 03 a0 60 	ld  [ %sp + 0x60 ], %l0
40000d98:	e2 03 a0 64 	ld  [ %sp + 0x64 ], %l1
40000d9c:	e4 03 a0 68 	ld  [ %sp + 0x68 ], %l2
40000da0:	81 8c 20 00 	mov  %l0, %psr
40000da4:	01 00 00 00 	nop 
40000da8:	01 00 00 00 	nop 
40000dac:	01 00 00 00 	nop 
40000db0:	81 c4 40 00 	jmp  %l1
40000db4:	81 cc 80 00 	rett  %l2

40000db8 <leonbare_trapsetup_fast>:
40000db8:	aa 27 a0 b0 	sub  %fp, 0xb0, %l5
40000dbc:	01 00 00 00 	nop 
40000dc0:	c2 25 60 74 	st  %g1, [ %l5 + 0x74 ]
40000dc4:	c4 3d 60 78 	std  %g2, [ %l5 + 0x78 ]
40000dc8:	c8 3d 60 80 	std  %g4, [ %l5 + 0x80 ]
40000dcc:	cc 3d 60 88 	std  %g6, [ %l5 + 0x88 ]
40000dd0:	85 40 00 00 	rd  %y, %g2
40000dd4:	c4 25 60 6c 	st  %g2, [ %l5 + 0x6c ]
40000dd8:	a8 10 20 01 	mov  1, %l4
40000ddc:	a9 2d 00 10 	sll  %l4, %l0, %l4
40000de0:	80 8d 00 13 	btst  %l4, %l3
40000de4:	02 80 00 13 	be  40000e30 <leonbare_trapsetup_fast+0x78>
40000de8:	01 00 00 00 	nop 
40000dec:	85 34 e0 01 	srl  %l3, 1, %g2
40000df0:	07 10 00 05 	sethi  %hi(0x40001400), %g3
40000df4:	c6 00 e3 c4 	ld  [ %g3 + 0x3c4 ], %g3	! 400017c4 <_nwindows_min1>
40000df8:	a7 2c c0 03 	sll  %l3, %g3, %l3
40000dfc:	84 14 c0 02 	or  %l3, %g2, %g2
40000e00:	84 08 a0 ff 	and  %g2, 0xff, %g2
40000e04:	81 e0 00 00 	save 
40000e08:	81 90 a0 00 	mov  %g2, %wim
40000e0c:	e0 3b a0 00 	std  %l0, [ %sp ]
40000e10:	e4 3b a0 08 	std  %l2, [ %sp + 8 ]
40000e14:	e8 3b a0 10 	std  %l4, [ %sp + 0x10 ]
40000e18:	ec 3b a0 18 	std  %l6, [ %sp + 0x18 ]
40000e1c:	f0 3b a0 20 	std  %i0, [ %sp + 0x20 ]
40000e20:	f4 3b a0 28 	std  %i2, [ %sp + 0x28 ]
40000e24:	f8 3b a0 30 	std  %i4, [ %sp + 0x30 ]
40000e28:	fc 3b a0 38 	std  %fp, [ %sp + 0x38 ]
40000e2c:	81 e8 00 00 	restore 
40000e30:	81 c5 a0 08 	jmp  %l6 + 8
40000e34:	9c 10 00 15 	mov  %l5, %sp

40000e38 <leonbare_trapreturn_fast>:
40000e38:	05 10 00 06 	sethi  %hi(0x40001800), %g2
40000e3c:	84 10 a0 00 	mov  %g2, %g2	! 40001800 <schedule_callback>
40000e40:	c4 00 80 00 	ld  [ %g2 ], %g2
40000e44:	80 a0 80 00 	cmp  %g2, %g0
40000e48:	02 80 00 04 	be  40000e58 <leonbare_trapreturn_fast+0x20>
40000e4c:	01 00 00 00 	nop 
40000e50:	9f c0 80 00 	call  %g2
40000e54:	92 03 a0 60 	add  %sp, 0x60, %o1
40000e58:	81 8c 20 00 	mov  %l0, %psr
40000e5c:	82 10 20 02 	mov  2, %g1
40000e60:	83 28 40 10 	sll  %g1, %l0, %g1
40000e64:	05 10 00 05 	sethi  %hi(0x40001400), %g2
40000e68:	c4 00 a3 c0 	ld  [ %g2 + 0x3c0 ], %g2	! 400017c0 <_nwindows>
40000e6c:	85 30 40 02 	srl  %g1, %g2, %g2
40000e70:	82 10 40 02 	or  %g1, %g2, %g1
40000e74:	85 50 00 00 	rd  %wim, %g2
40000e78:	80 88 80 01 	btst  %g2, %g1
40000e7c:	02 80 00 19 	be  40000ee0 <leonbare_trapreturn_fast+0xa8>
40000e80:	83 28 a0 01 	sll  %g2, 1, %g1
40000e84:	07 10 00 05 	sethi  %hi(0x40001400), %g3
40000e88:	c6 00 e3 c4 	ld  [ %g3 + 0x3c4 ], %g3	! 400017c4 <_nwindows_min1>
40000e8c:	85 30 80 03 	srl  %g2, %g3, %g2
40000e90:	82 10 40 02 	or  %g1, %g2, %g1
40000e94:	82 08 60 ff 	and  %g1, 0xff, %g1
40000e98:	81 90 60 00 	mov  %g1, %wim
40000e9c:	c2 03 a0 6c 	ld  [ %sp + 0x6c ], %g1
40000ea0:	81 80 60 00 	mov  %g1, %y
40000ea4:	c2 03 a0 74 	ld  [ %sp + 0x74 ], %g1
40000ea8:	c4 1b a0 78 	ldd  [ %sp + 0x78 ], %g2
40000eac:	c8 1b a0 80 	ldd  [ %sp + 0x80 ], %g4
40000eb0:	cc 1b a0 88 	ldd  [ %sp + 0x88 ], %g6
40000eb4:	81 e8 00 00 	restore 
40000eb8:	e0 1b a0 00 	ldd  [ %sp ], %l0
40000ebc:	e4 1b a0 08 	ldd  [ %sp + 8 ], %l2
40000ec0:	e8 1b a0 10 	ldd  [ %sp + 0x10 ], %l4
40000ec4:	ec 1b a0 18 	ldd  [ %sp + 0x18 ], %l6
40000ec8:	f0 1b a0 20 	ldd  [ %sp + 0x20 ], %i0
40000ecc:	f4 1b a0 28 	ldd  [ %sp + 0x28 ], %i2
40000ed0:	f8 1b a0 30 	ldd  [ %sp + 0x30 ], %i4
40000ed4:	fc 1b a0 38 	ldd  [ %sp + 0x38 ], %fp
40000ed8:	10 80 00 08 	b  40000ef8 <leonbare_trapreturn_fast+0xc0>
40000edc:	81 e0 00 00 	save 
40000ee0:	c2 03 a0 6c 	ld  [ %sp + 0x6c ], %g1
40000ee4:	81 80 60 00 	mov  %g1, %y
40000ee8:	c2 03 a0 74 	ld  [ %sp + 0x74 ], %g1
40000eec:	c4 1b a0 78 	ldd  [ %sp + 0x78 ], %g2
40000ef0:	c8 1b a0 80 	ldd  [ %sp + 0x80 ], %g4
40000ef4:	cc 1b a0 88 	ldd  [ %sp + 0x88 ], %g6
40000ef8:	81 8c 20 00 	mov  %l0, %psr
40000efc:	01 00 00 00 	nop 
40000f00:	01 00 00 00 	nop 
40000f04:	01 00 00 00 	nop 
40000f08:	81 c4 40 00 	jmp  %l1
40000f0c:	81 cc 80 00 	rett  %l2

40000f10 <ahbslv_scan>:
40000f10:	82 10 00 08 	mov  %o0, %g1
40000f14:	9a 10 38 00 	mov  -2048, %o5
40000f18:	96 10 20 00 	clr  %o3
40000f1c:	91 2a e0 05 	sll  %o3, 5, %o0
40000f20:	98 03 40 08 	add  %o5, %o0, %o4
40000f24:	d4 03 40 08 	ld  [ %o5 + %o0 ], %o2
40000f28:	91 32 a0 18 	srl  %o2, 0x18, %o0
40000f2c:	80 a2 00 01 	cmp  %o0, %g1
40000f30:	32 80 00 08 	bne,a   40000f50 <ahbslv_scan+0x40>
40000f34:	96 02 e0 01 	inc  %o3
40000f38:	91 32 a0 0c 	srl  %o2, 0xc, %o0
40000f3c:	90 0a 2f ff 	and  %o0, 0xfff, %o0
40000f40:	80 a2 00 09 	cmp  %o0, %o1
40000f44:	02 80 00 07 	be  40000f60 <ahbslv_scan+0x50>
40000f48:	94 10 00 0c 	mov  %o4, %o2
40000f4c:	96 02 e0 01 	inc  %o3
40000f50:	80 a2 e0 07 	cmp  %o3, 7
40000f54:	28 bf ff f3 	bleu,a   40000f20 <ahbslv_scan+0x10>
40000f58:	91 2a e0 05 	sll  %o3, 5, %o0
40000f5c:	94 10 20 00 	clr  %o2
40000f60:	81 c3 e0 08 	retl 
40000f64:	90 10 00 0a 	mov  %o2, %o0

40000f68 <apbslv_scan>:
40000f68:	82 10 00 08 	mov  %o0, %g1
40000f6c:	98 10 20 00 	clr  %o4
40000f70:	91 2b 20 03 	sll  %o4, 3, %o0
40000f74:	9a 00 40 08 	add  %g1, %o0, %o5
40000f78:	d6 00 40 08 	ld  [ %g1 + %o0 ], %o3
40000f7c:	91 32 e0 18 	srl  %o3, 0x18, %o0
40000f80:	80 a2 00 09 	cmp  %o0, %o1
40000f84:	32 80 00 08 	bne,a   40000fa4 <apbslv_scan+0x3c>
40000f88:	98 03 20 01 	inc  %o4
40000f8c:	91 32 e0 0c 	srl  %o3, 0xc, %o0
40000f90:	90 0a 2f ff 	and  %o0, 0xfff, %o0
40000f94:	80 a2 00 0a 	cmp  %o0, %o2
40000f98:	02 80 00 07 	be  40000fb4 <apbslv_scan+0x4c>
40000f9c:	96 10 00 0d 	mov  %o5, %o3
40000fa0:	98 03 20 01 	inc  %o4
40000fa4:	80 a3 20 0f 	cmp  %o4, 0xf
40000fa8:	28 bf ff f3 	bleu,a   40000f74 <apbslv_scan+0xc>
40000fac:	91 2b 20 03 	sll  %o4, 3, %o0
40000fb0:	96 10 20 00 	clr  %o3
40000fb4:	81 c3 e0 08 	retl 
40000fb8:	90 10 00 0b 	mov  %o3, %o0

40000fbc <iobar_getbase>:
40000fbc:	d4 02 20 04 	ld  [ %o0 + 4 ], %o2
40000fc0:	17 3f fc 00 	sethi  %hi(0xfff00000), %o3
40000fc4:	92 0a 40 0b 	and  %o1, %o3, %o1
40000fc8:	90 0a 80 0b 	and  %o2, %o3, %o0
40000fcc:	91 32 20 0c 	srl  %o0, 0xc, %o0
40000fd0:	92 12 40 08 	or  %o1, %o0, %o1
40000fd4:	11 00 00 3f 	sethi  %hi(0xfc00), %o0
40000fd8:	90 12 23 f0 	or  %o0, 0x3f0, %o0	! fff0 <_trap_table-0x3fff0010>
40000fdc:	94 0a 80 08 	and  %o2, %o0, %o2
40000fe0:	95 2a a0 04 	sll  %o2, 4, %o2
40000fe4:	94 12 80 0b 	or  %o2, %o3, %o2
40000fe8:	92 0a 40 0a 	and  %o1, %o2, %o1
40000fec:	81 c3 e0 08 	retl 
40000ff0:	90 10 00 09 	mov  %o1, %o0

40000ff4 <__do_global_ctors_aux>:
40000ff4:	9d e3 bf 98 	save  %sp, -104, %sp
40000ff8:	03 10 00 04 	sethi  %hi(0x40001000), %g1
40000ffc:	82 10 60 58 	or  %g1, 0x58, %g1	! 40001058 <__CTOR_END__>
40001000:	da 00 7f fc 	ld  [ %g1 + -4 ], %o5
40001004:	80 a3 7f ff 	cmp  %o5, -1
40001008:	02 80 00 09 	be  4000102c <__do_global_ctors_aux+0x38>
4000100c:	a0 00 7f fc 	add  %g1, -4, %l0
40001010:	82 10 00 0d 	mov  %o5, %g1
40001014:	9f c0 40 00 	call  %g1
40001018:	a0 04 3f fc 	add  %l0, -4, %l0
4000101c:	c2 04 00 00 	ld  [ %l0 ], %g1
40001020:	80 a0 7f ff 	cmp  %g1, -1
40001024:	12 bf ff fc 	bne  40001014 <__do_global_ctors_aux+0x20>
40001028:	01 00 00 00 	nop 
4000102c:	81 c7 e0 08 	ret 
40001030:	81 e8 00 00 	restore 

40001034 <call___do_global_ctors_aux>:
40001034:	9d e3 bf 98 	save  %sp, -104, %sp
40001038:	81 c7 e0 08 	ret 
4000103c:	81 e8 00 00 	restore 

40001040 <__EH_FRAME_BEGIN__>:
	...

40001050 <___CTOR_LIST__>:
40001050:	00 00 00 02 	unimp  0x2

40001054 <__CTOR_LIST__>:
40001054:	ff ff ff ff 	unknown

40001058 <__CTOR_END__>:
	...

40001060 <___CTOR_END__>:
40001060:	00 00 00 02 	unimp  0x2

40001064 <__DTOR_LIST__>:
40001064:	ff ff ff ff 	unknown

40001068 <__DTOR_END__>:
	...

40001070 <___DTOR_END__>:
40001070:	40 00 12 20 	call  400058f0 <__JCR_END__+0x3dc8>
40001074:	00 00 00 00 	unimp  0
40001078:	43 00 00 00 	call  4c001078 <__JCR_END__+0xbfff550>

4000107c <trap_table>:
	...
40001084:	40 00 03 38 	call  40001d64 <__JCR_END__+0x23c>
40001088:	00 00 00 01 	unimp  0x1
4000108c:	00 00 00 01 	unimp  0x1
40001090:	40 00 0b f8 	call  40004070 <__JCR_END__+0x2548>
40001094:	00 00 00 04 	unimp  0x4
40001098:	00 00 00 04 	unimp  0x4
4000109c:	40 00 0b 4c 	call  40003dcc <__JCR_END__+0x22a4>
400010a0:	00 00 00 05 	unimp  0x5
400010a4:	00 00 00 05 	unimp  0x5
400010a8:	40 00 03 f4 	call  40002078 <__JCR_END__+0x550>
400010ac:	00 00 00 06 	unimp  0x6
400010b0:	00 00 00 06 	unimp  0x6
400010b4:	40 00 04 60 	call  40002234 <__JCR_END__+0x70c>
400010b8:	00 00 00 09 	unimp  0x9
400010bc:	00 00 00 09 	unimp  0x9
400010c0:	40 00 0b f8 	call  400040a0 <__JCR_END__+0x2578>
400010c4:	00 00 00 11 	unimp  0x11
400010c8:	00 00 00 1f 	unimp  0x1f
400010cc:	40 00 06 f0 	call  40002c8c <__JCR_END__+0x1164>
400010d0:	00 00 00 82 	unimp  0x82
400010d4:	00 00 00 82 	unimp  0x82
400010d8:	40 00 06 34 	call  400029a8 <__JCR_END__+0xe80>
400010dc:	00 00 00 83 	unimp  0x83
400010e0:	00 00 00 83 	unimp  0x83
400010e4:	40 00 04 c0 	call  400023e4 <__JCR_END__+0x8bc>
400010e8:	00 00 00 85 	unimp  0x85
400010ec:	00 00 00 85 	unimp  0x85
400010f0:	40 00 06 18 	call  40002950 <__JCR_END__+0xe28>

400010f4 <svt_trap_table_ext>:
	...

400011c0 <svt_trap_table_ext_end>:
	...

400011cc <_init>:
400011cc:	9d e3 bf a0 	save  %sp, -96, %sp

400011d0 <_erodata>:
400011d0:	7f ff fb cf 	call  4000010c <frame_dummy>
400011d4:	01 00 00 00 	nop 
400011d8:	7f ff ff 87 	call  40000ff4 <__do_global_ctors_aux>
400011dc:	01 00 00 00 	nop 
400011e0:	81 c7 e0 08 	ret 
400011e4:	81 e8 00 00 	restore 

400011e8 <_fini>:
400011e8:	9d e3 bf a0 	save  %sp, -96, %sp
400011ec:	7f ff fb aa 	call  40000094 <__do_global_dtors_aux>
400011f0:	01 00 00 00 	nop 
400011f4:	81 c7 e0 08 	ret 
400011f8:	81 e8 00 00 	restore 
400011fc:	00 00 00 00 	unimp  0
Disassembly of section .data:

40001200 <_environ>:
40001200:	00 00 00 01 	unimp  0x1
40001204:	00 00 00 00 	unimp  0

40001208 <__dso_handle>:
40001208:	00 00 00 00 	unimp  0

4000120c <p.0>:
4000120c:	40 00 10 68 	call  400053ac <__JCR_END__+0x3884>

40001210 <a>:
40001210:	00 00 00 09 	unimp  0x9

40001214 <b>:
40001214:	00 00 00 08 	unimp  0x8

40001218 <c>:
40001218:	00 00 00 04 	unimp  0x4

4000121c <d>:
4000121c:	00 00 00 05 	unimp  0x5

40001220 <impure_data>:
40001220:	00 00 00 00 	unimp  0
40001224:	40 00 15 0c 	call  40006654 <__JCR_END__+0x4b2c>
40001228:	40 00 15 d8 	call  40006988 <__JCR_END__+0x4e60>
4000122c:	40 00 16 a4 	call  40006cbc <__JCR_END__+0x5194>
40001230:	00 00 00 00 	unimp  0
	...
40001254:	40 00 10 78 	call  40005434 <__JCR_END__+0x390c>
40001258:	00 00 00 00 	unimp  0
	...
400012cc:	00 00 00 01 	unimp  0x1
400012d0:	33 0e ab cd 	sethi  %hi(0x3aaf3400), %i1
400012d4:	12 34 e6 6d 	unknown
400012d8:	de ec 00 05 	ldstuba  [ %l0 + %g5 ] (0), %o7
400012dc:	00 0b 00 00 	unimp  0xb0000
	...

40001770 <_impure_ptr>:
40001770:	40 00 12 20 	call  40005ff0 <__JCR_END__+0x44c8>
40001774:	00 00 00 00 	unimp  0

40001778 <_lb_spillglobals>:
	...

40001794 <_lb_issideflush>:
40001794:	00 00 00 00 	unimp  0

40001798 <nestedirq>:
40001798:	00 00 00 00 	unimp  0

4000179c <fastirq>:
4000179c:	00 00 00 00 	unimp  0

400017a0 <nestcount>:
400017a0:	00 00 00 00 	unimp  0

400017a4 <genseq>:
400017a4:	ae 10 20 00 	clr  %l7
400017a8:	27 10 00 49 	sethi  %hi(0x40012400), %l3
400017ac:	81 c4 e2 f4 	jmp  %l3 + 0x2f4	! 400126f4 <__JCR_END__+0x10bcc>
400017b0:	a1 48 00 00 	rd  %psr, %l0

400017b4 <LEON3_IrqCtrl_Regs>:
	...

400017bc <console>:
400017bc:	80 00 01 00 	unknown

400017c0 <_nwindows>:
400017c0:	00 00 00 08 	unimp  0x8

400017c4 <_nwindows_min1>:
400017c4:	00 00 00 07 	unimp  0x7

400017c8 <_nwindows_min2>:
400017c8:	00 00 00 06 	unimp  0x6

400017cc <_leon_version>:
400017cc:	00 00 00 03 	unimp  0x3

400017d0 <jiffies_64>:
400017d0:	00 00 00 00 	unimp  0
400017d4:	ff ff 8a d0 	unknown

400017d8 <rtc>:
400017d8:	80 00 03 10 	unknown
Disassembly of section .bss:

400017e0 <__bss_start>:
400017e0:	00 00 00 00 	unimp  0

400017e4 <object.2>:
	...

400017fc <i>:
400017fc:	00 00 00 00 	unimp  0

40001800 <schedule_callback>:
40001800:	00 00 00 00 	unimp  0

40001804 <handler_irq_post>:
40001804:	00 00 00 00 	unimp  0

40001808 <handler_irq_pre>:
40001808:	00 00 00 00 	unimp  0

4000180c <inirq>:
	...

4000188c <no_inirq_check>:
4000188c:	00 00 00 00 	unimp  0

40001890 <_oirqtbl>:
	...

40001a90 <_irqtbl>:
	...

40001b10 <x>:
	...

40001b20 <xtime>:
	...
Disassembly of section .jcr:

40001b28 <__JCR_END__>:
40001b28:	00 00 00 00 	unimp  0
Disassembly of section .debug_aranges:

00000000 <.debug_aranges>:
   0:	00 00 00 1c 	unimp  0x1c
   4:	00 02 00 00 	unimp  0x20000
   8:	00 00 04 00 	unimp  0x400
   c:	00 00 00 00 	unimp  0
  10:	40 00 00 00 	call  10 <_trap_table-0x3ffffff0>
  14:	00 00 00 0c 	unimp  0xc
	...
  20:	00 00 00 1c 	unimp  0x1c
  24:	00 02 00 00 	unimp  0x20000
  28:	00 cc 04 00 	unknown
  2c:	00 00 00 00 	unimp  0
  30:	40 00 00 0c 	call  60 <_trap_table-0x3fffffa0>
  34:	00 00 00 88 	unimp  0x88
	...
  40:	00 00 00 1c 	unimp  0x1c
  44:	00 02 00 00 	unimp  0x20000
  48:	01 92 04 00 	fbn  481048 <_trap_table-0x3fb7efb8>
  4c:	00 00 00 00 	unimp  0
  50:	40 00 01 80 	call  650 <_trap_table-0x3ffff9b0>
  54:	00 00 00 08 	unimp  0x8
	...
  60:	00 00 00 1c 	unimp  0x1c
  64:	00 02 00 00 	unimp  0x20000
  68:	02 18 04 00 	unknown
  6c:	00 00 00 00 	unimp  0
  70:	40 00 02 28 	call  910 <_trap_table-0x3ffff6f0>
  74:	00 00 00 58 	unimp  0x58
	...
  80:	00 00 00 1c 	unimp  0x1c
  84:	00 02 00 00 	unimp  0x20000
  88:	17 0e 04 00 	sethi  %hi(0x38100000), %o3
  8c:	00 00 00 00 	unimp  0
  90:	40 00 02 80 	call  a90 <_trap_table-0x3ffff570>
  94:	00 00 00 18 	unimp  0x18
	...
  a0:	00 00 00 1c 	unimp  0x1c
  a4:	00 02 00 00 	unimp  0x20000
  a8:	17 d6 04 00 	cb02  5810a8 <_trap_table-0x3fa7ef58>
  ac:	00 00 00 00 	unimp  0
  b0:	40 00 02 98 	call  b10 <_trap_table-0x3ffff4f0>
  b4:	00 00 00 10 	unimp  0x10
	...
  c0:	00 00 00 1c 	unimp  0x1c
  c4:	00 02 00 00 	unimp  0x20000
  c8:	18 28 04 00 	unknown
  cc:	00 00 00 00 	unimp  0
  d0:	40 00 02 a8 	call  b70 <_trap_table-0x3ffff490>
  d4:	00 00 00 8c 	unimp  0x8c
	...
  e0:	00 00 00 1c 	unimp  0x1c
  e4:	00 02 00 00 	unimp  0x20000
  e8:	18 f8 04 00 	unknown
  ec:	00 00 00 00 	unimp  0
  f0:	40 00 03 34 	call  dc0 <_trap_table-0x3ffff240>
  f4:	00 00 00 60 	unimp  0x60
	...
 100:	00 00 00 1c 	unimp  0x1c
 104:	00 02 00 00 	unimp  0x20000
 108:	19 ca 04 00 	cb023  281108 <_trap_table-0x3fd7eef8>
 10c:	00 00 00 00 	unimp  0
 110:	40 00 03 94 	call  f60 <_trap_table-0x3ffff0a0>
 114:	00 00 00 60 	unimp  0x60
	...
 120:	00 00 00 1c 	unimp  0x1c
 124:	00 02 00 00 	unimp  0x20000
 128:	1a 96 04 00 	bcc  581128 <_trap_table-0x3fa7eed8>
 12c:	00 00 00 00 	unimp  0
 130:	40 00 03 f4 	call  1100 <_trap_table-0x3fffef00>
 134:	00 00 00 cc 	unimp  0xcc
	...
 140:	00 00 00 1c 	unimp  0x1c
 144:	00 02 00 00 	unimp  0x20000
 148:	1b 5e 04 00 	unknown
 14c:	00 00 00 00 	unimp  0
 150:	40 00 04 c0 	call  1450 <_trap_table-0x3fffebb0>
 154:	00 00 02 30 	unimp  0x230
	...
 160:	00 00 00 1c 	unimp  0x1c
 164:	00 02 00 00 	unimp  0x20000
 168:	1c 2b 04 00 	unknown
 16c:	00 00 00 00 	unimp  0
 170:	40 00 06 f0 	call  1d30 <_trap_table-0x3fffe2d0>
 174:	00 00 00 a0 	unimp  0xa0
	...
 180:	00 00 00 1c 	unimp  0x1c
 184:	00 02 00 00 	unimp  0x20000
 188:	1c f9 04 00 	unknown
 18c:	00 00 00 00 	unimp  0
 190:	40 00 07 90 	call  1fd0 <_trap_table-0x3fffe030>
 194:	00 00 02 30 	unimp  0x230
	...
 1a0:	00 00 00 1c 	unimp  0x1c
 1a4:	00 02 00 00 	unimp  0x20000
 1a8:	22 2a 04 00 	unknown
 1ac:	00 00 00 00 	unimp  0
 1b0:	40 00 09 c0 	call  28b0 <_trap_table-0x3fffd750>
 1b4:	00 00 01 10 	unimp  0x110
	...
 1c0:	00 00 00 1c 	unimp  0x1c
 1c4:	00 02 00 00 	unimp  0x20000
 1c8:	23 7f 04 00 	unknown
 1cc:	00 00 00 00 	unimp  0
 1d0:	40 00 0a d0 	call  2d10 <_trap_table-0x3fffd2f0>
 1d4:	00 00 00 a8 	unimp  0xa8
	...
 1e0:	00 00 00 1c 	unimp  0x1c
 1e4:	00 02 00 00 	unimp  0x20000
 1e8:	24 47 04 00 	unknown
 1ec:	00 00 00 00 	unimp  0
 1f0:	40 00 0b 78 	call  2fd0 <_trap_table-0x3fffd030>
 1f4:	00 00 00 10 	unimp  0x10
	...
 200:	00 00 00 1c 	unimp  0x1c
 204:	00 02 00 00 	unimp  0x20000
 208:	25 15 04 00 	sethi  %hi(0x54100000), %l2
 20c:	00 00 00 00 	unimp  0
 210:	40 00 0b 88 	call  3030 <_trap_table-0x3fffcfd0>
 214:	00 00 00 68 	unimp  0x68
	...
 220:	00 00 00 1c 	unimp  0x1c
 224:	00 02 00 00 	unimp  0x20000
 228:	25 e1 04 00 	cb12,a   ff841228 <LEON_REG+0x7f841228>
 22c:	00 00 00 00 	unimp  0
 230:	40 00 0b f0 	call  31f0 <_trap_table-0x3fffce10>
 234:	00 00 00 08 	unimp  0x8
	...
 240:	00 00 00 1c 	unimp  0x1c
 244:	00 02 00 00 	unimp  0x20000
 248:	28 e6 04 00 	unknown
 24c:	00 00 00 00 	unimp  0
 250:	40 00 0b f8 	call  3230 <_trap_table-0x3fffcdd0>
 254:	00 00 00 18 	unimp  0x18
	...
 260:	00 00 00 1c 	unimp  0x1c
 264:	00 02 00 00 	unimp  0x20000
 268:	29 af 04 00 	fbl,a   ffbc1268 <LEON_REG+0x7fbc1268>
 26c:	00 00 00 00 	unimp  0
 270:	40 00 0c 10 	call  32b0 <_trap_table-0x3fffcd50>
 274:	00 00 00 98 	unimp  0x98
	...
 280:	00 00 00 1c 	unimp  0x1c
 284:	00 02 00 00 	unimp  0x20000
 288:	2a 76 04 00 	unknown
 28c:	00 00 00 00 	unimp  0
 290:	40 00 0c a8 	call  3530 <_trap_table-0x3fffcad0>
 294:	00 00 01 10 	unimp  0x110
	...
 2a0:	00 00 00 1c 	unimp  0x1c
 2a4:	00 02 00 00 	unimp  0x20000
 2a8:	2b 3d 04 00 	sethi  %hi(0xf4100000), %l5
 2ac:	00 00 00 00 	unimp  0
 2b0:	40 00 0d b8 	call  3990 <_trap_table-0x3fffc670>
 2b4:	00 00 00 80 	unimp  0x80
	...
 2c0:	00 00 00 1c 	unimp  0x1c
 2c4:	00 02 00 00 	unimp  0x20000
 2c8:	2c 09 04 00 	unknown
 2cc:	00 00 00 00 	unimp  0
 2d0:	40 00 0e 38 	call  3bb0 <_trap_table-0x3fffc450>
 2d4:	00 00 00 d8 	unimp  0xd8
	...
 2e0:	00 00 00 1c 	unimp  0x1c
 2e4:	00 02 00 00 	unimp  0x20000
 2e8:	2c d5 04 00 	unknown
 2ec:	00 00 00 00 	unimp  0
 2f0:	40 00 0f 10 	call  3f30 <_trap_table-0x3fffc0d0>
 2f4:	00 00 00 e4 	unimp  0xe4
	...
Disassembly of section .debug_pubnames:

00000000 <.debug_pubnames>:
   0:	00 00 00 1a 	unimp  0x1a
   4:	00 02 00 00 	unimp  0x20000
   8:	01 92 00 00 	fbn  480008 <_trap_table-0x3fb7fff8>
   c:	00 86 00 00 	bn  18000c <_trap_table-0x3fe7fff4>
  10:	00 72 70 6e 	unknown
  14:	70 69 6e 69 	call  c1a5b9b8 <LEON_REG+0x41a5b9b8>
  18:	74 00 00 00 	call  d0000018 <LEON_REG+0x50000018>
  1c:	00 00 00 00 	unimp  0
  20:	00 19 00 02 	unimp  0x190002
  24:	00 00 02 18 	unimp  0x218
  28:	00 00 0a 81 	unimp  0xa81
  2c:	00 00 0a 3a 	unimp  0xa3a
  30:	61 74 65 78 	call  85d19610 <LEON_REG+0x5d19610>
  34:	69 74 00 00 	call  a5d00034 <LEON_REG+0x25d00034>
  38:	00 00 00 00 	unimp  0
  3c:	00 00 35 00 	unimp  0x3500
  40:	02 00 00 0c 	unknown
  44:	99 00 00 0a 	taddcc  %g0, %o2, %o4
  48:	75 00 00 0a 	call  d4000070 <LEON_REG+0x54000070>
  4c:	3a 5f 69 6d 	unknown
  50:	70 75 72 65 	call  c1d5c9e4 <LEON_REG+0x41d5c9e4>
  54:	5f 70 74 72 	call  7dc1d21c <__JCR_END__+0x3dc1b6f4>
  58:	00 00 00 0a 	unimp  0xa
  5c:	4c 5f 67 6c 	call  317d9e0c <_trap_table-0xe8261f4>
  60:	6f 62 61 6c 	call  bd898610 <LEON_REG+0x3d898610>
  64:	5f 69 6d 70 	call  7da5b624 <__JCR_END__+0x3da59afc>
  68:	75 72 65 5f 	call  d5c995e4 <LEON_REG+0x55c995e4>
  6c:	70 74 72 00 	call  c1d1c86c <LEON_REG+0x41d1c86c>
  70:	00 00 00 00 	unimp  0
  74:	00 00 00 18 	unimp  0x18
  78:	00 02 00 00 	unimp  0x20000
  7c:	17 d6 00 00 	cb02  58007c <_trap_table-0x3fa7ff84>
  80:	00 52 00 00 	unknown
  84:	00 25 5f 65 	unimp  0xffe55f65
  88:	78 69 74 00 	call  e1a5d088 <LEON_REG+0x61a5d088>
  8c:	00 00 00 00 	unimp  0
  90:	00 00 00 22 	unimp  0x22
  94:	00 02 00 00 	unimp  0x20000
  98:	19 ca 00 00 	cb023  280098 <_trap_table-0x3fd7ff68>
  9c:	00 cc 00 00 	unknown
  a0:	00 89 5f 63 	bn  257e2c <_trap_table-0x3fda81d4>
  a4:	61 6c 6c 5f 	call  85b1b220 <LEON_REG+0x5b1b220>
  a8:	69 6e 69 74 	call  a5b9a678 <LEON_REG+0x25b9a678>
  ac:	63 61 6c 6c 	call  8d85b25c <LEON_REG+0xd85b25c>
  b0:	73 00 00 00 	call  cc0000b0 <LEON_REG+0x4c0000b0>
  b4:	00 00 00 00 	unimp  0
  b8:	00 f6 00 02 	unknown
  bc:	00 00 1c f9 	unimp  0x1cf9
  c0:	00 00 05 31 	unimp  0x531
  c4:	00 00 02 b5 	unimp  0x2b5
  c8:	63 68 61 69 	call  8da1866c <LEON_REG+0xda1866c>
  cc:	6e 65 64 5f 	call  b9959248 <LEON_REG+0x39959248>
  d0:	63 61 74 63 	call  8d85d25c <LEON_REG+0xd85d25c>
  d4:	68 5f 69 6e 	call  a17da68c <LEON_REG+0x217da68c>
  d8:	74 65 72 72 	call  d195caa0 <LEON_REG+0x5195caa0>
  dc:	75 70 74 00 	call  d5c1d0dc <LEON_REG+0x55c1d0dc>
  e0:	00 00 02 e5 	unimp  0x2e5
  e4:	63 61 74 63 	call  8d85d270 <LEON_REG+0xd85d270>
  e8:	68 5f 69 6e 	call  a17da6a0 <LEON_REG+0x217da6a0>
  ec:	74 65 72 72 	call  d195cab4 <LEON_REG+0x5195cab4>
  f0:	75 70 74 00 	call  d5c1d0f0 <LEON_REG+0x55c1d0f0>
  f4:	00 00 03 48 	unimp  0x348
  f8:	68 61 6e 64 	call  a185ba88 <LEON_REG+0x2185ba88>
  fc:	6c 65 72 5f 	call  b195ca78 <LEON_REG+0x3195ca78>
 100:	69 72 71 00 	call  a5c9c500 <LEON_REG+0x25c9c500>
 104:	00 00 03 89 	unimp  0x389
 108:	74 72 61 70 	call  d1c986c8 <LEON_REG+0x51c986c8>
 10c:	74 61 62 6c 	call  d1858abc <LEON_REG+0x51858abc>
 110:	65 5f 67 65 	call  957d9ea4 <LEON_REG+0x157d9ea4>
 114:	6e 6a 6d 70 	call  b9a9b6d4 <LEON_REG+0x39a9b6d4>
 118:	00 00 00 03 	unimp  0x3
 11c:	d6 73 70 61 	unknown
 120:	72 63 5f 6c 	call  c98d7ed0 <LEON_REG+0x498d7ed0>
 124:	65 6f 6e 32 	call  95bdb9ec <LEON_REG+0x15bdb9ec>
 128:	33 5f 67 65 	unknown
 12c:	74 5f 74 62 	call  d17dd2b4 <LEON_REG+0x517dd2b4>
 130:	72 5f 62 61 	call  c97d8ab4 <LEON_REG+0x497d8ab4>
 134:	73 65 00 00 	call  cd940134 <LEON_REG+0x4d940134>
 138:	00 04 5c 73 	unimp  0x45c73
 13c:	63 68 65 64 	call  8da196cc <LEON_REG+0xda196cc>
 140:	75 6c 65 5f 	call  d5b196bc <LEON_REG+0x55b196bc>
 144:	63 61 6c 6c 	call  8d85b2f4 <LEON_REG+0xd85b2f4>
 148:	62 61 63 6b 	call  89858ef4 <LEON_REG+0x9858ef4>
 14c:	00 00 00 04 	unimp  0x4
 150:	6e 6e 6f 5f 	call  b9b9becc <LEON_REG+0x39b9becc>
 154:	69 6e 69 72 	call  a5b9a71c <LEON_REG+0x25b9a71c>
 158:	71 5f 63 68 	call  c57d8ef8 <LEON_REG+0x457d8ef8>
 15c:	65 63 6b 00 	call  958dad5c <LEON_REG+0x158dad5c>
 160:	00 00 04 82 	unimp  0x482
 164:	68 61 6e 64 	call  a185baf4 <LEON_REG+0x2185baf4>
 168:	6c 65 72 5f 	call  b195cae4 <LEON_REG+0x3195cae4>
 16c:	69 72 71 5f 	call  a5c9c6e8 <LEON_REG+0x25c9c6e8>
 170:	70 72 65 00 	call  c1c99570 <LEON_REG+0x41c99570>
 174:	00 00 04 9a 	unimp  0x49a
 178:	68 61 6e 64 	call  a185bb08 <LEON_REG+0x2185bb08>
 17c:	6c 65 72 5f 	call  b195caf8 <LEON_REG+0x3195caf8>
 180:	69 72 71 5f 	call  a5c9c6fc <LEON_REG+0x25c9c6fc>
 184:	70 6f 73 74 	call  c1bdcf54 <LEON_REG+0x41bdcf54>
 188:	00 00 00 04 	unimp  0x4
 18c:	bc 5f 69 72 	smul  %i5, 0x972, %fp
 190:	71 74 62 6c 	call  c5d18b40 <LEON_REG+0x45d18b40>
 194:	00 00 00 04 	unimp  0x4
 198:	de 5f 6f 69 	unknown
 19c:	72 71 74 62 	call  c9c5d324 <LEON_REG+0x49c5d324>
 1a0:	6c 00 00 00 	call  b00001a0 <LEON_REG+0x300001a0>
 1a4:	05 00 69 6e 	sethi  %hi(0x1a5b800), %g2
 1a8:	69 72 71 00 	call  a5c9c5a8 <LEON_REG+0x25c9c5a8>
 1ac:	00 00 00 00 	unimp  0
 1b0:	00 00 00 1a 	unimp  0x1a
 1b4:	00 02 00 00 	unimp  0x20000
 1b8:	22 f4 00 00 	unknown
 1bc:	00 8b 00 00 	bn  2c01bc <_trap_table-0x3fd3fe44>
 1c0:	00 72 63 6f 	unknown
 1c4:	6e 73 6f 6c 	call  b9cdbf74 <LEON_REG+0x39cdbf74>
 1c8:	65 00 00 00 	call  940001c8 <LEON_REG+0x140001c8>
 1cc:	00 00 00 00 	unimp  0
 1d0:	00 27 00 02 	unimp  0xffe70002
 1d4:	00 00 26 b1 	unimp  0x26b1
 1d8:	00 00 02 35 	unimp  0x235
 1dc:	00 00 02 06 	unimp  0x206
 1e0:	6a 69 66 66 	call  a9a59b78 <LEON_REG+0x29a59b78>
 1e4:	69 65 73 5f 	call  a595cf60 <LEON_REG+0x2595cf60>
 1e8:	36 34 00 00 	unknown
 1ec:	00 02 1d 78 	unimp  0x21d78
 1f0:	74 69 6d 65 	call  d1a5b784 <LEON_REG+0x51a5b784>
 1f4:	00 00 00 00 	unimp  0
 1f8:	00 00 00 00 	unimp  0
 1fc:	16 00 02 00 	unknown
 200:	00 2d 9e 00 	unimp  0xffed9e00
 204:	00 00 45 00 	unimp  0x4500
 208:	00 00 25 72 	unimp  0x2572
 20c:	74 63 00 00 	call  d18c020c <LEON_REG+0x518c020c>
 210:	Address 0x00000210 is out of bounds.

Disassembly of section .debug_info:

00000000 <.debug_info>:
       0:	00 00 00 c8 	unimp  0xc8
       4:	00 02 00 00 	unimp  0x20000
       8:	00 00 04 01 	unimp  0x401
       c:	00 00 00 00 	unimp  0
      10:	40 00 00 00 	call  10 <_trap_table-0x3ffffff0>
      14:	40 00 00 0c 	call  44 <_trap_table-0x3fffffbc>
      18:	2e 2e 2f 2e 	unknown
      1c:	2e 2f 2e 2e 	unknown
      20:	2f 2e 2e 2f 	sethi  %hi(0xb8b8bc00), %l7
      24:	2e 2e 2f 6e 	unknown
      28:	65 77 6c 69 	call  95ddb1cc <LEON_REG+0x15ddb1cc>
      2c:	62 2d 31 2e 	call  88b4c4e4 <LEON_REG+0x8b4c4e4>
      30:	31 33 2e 30 	sethi  %hi(0xccb8c000), %i0
      34:	2f 6c 69 62 	unknown
      38:	67 6c 6f 73 	call  9db1be04 <LEON_REG+0x1db1be04>
      3c:	73 2f 73 70 	call  ccbdcdfc <LEON_REG+0x4cbdcdfc>
      40:	61 72 63 5f 	call  85c98dbc <LEON_REG+0x5c98dbc>
      44:	6c 65 6f 6e 	call  b195bdfc <LEON_REG+0x3195bdfc>
      48:	2f 6c 6f 63 	unknown
      4c:	6f 72 65 5f 	call  bdc995c8 <LEON_REG+0x3dc995c8>
      50:	73 76 74 2e 	call  cdd9d108 <LEON_REG+0x4dd9d108>
      54:	53 00 2f 68 	call  4c00bdf4 <__JCR_END__+0xc00a2cc>
      58:	6f 6d 65 2f 	call  bdb59514 <LEON_REG+0x3db59514>
      5c:	62 75 69 6c 	call  89d5a60c <LEON_REG+0x9d5a60c>
      60:	64 2f 62 63 	call  90bd89ec <LEON_REG+0x10bd89ec>
      64:	63 2f 42 43 	call  8cbd0970 <LEON_REG+0xcbd0970>
      68:	43 5f 52 45 	call  d7d497c <_trap_table-0x3282b684>
      6c:	50 2f 67 63 	call  40bd9df8 <__JCR_END__+0xbd82d0>
      70:	63 2d 33 2e 	call  8cb4cd28 <LEON_REG+0xcb4cd28>
      74:	34 2e 34 2d 	unknown
      78:	6d 69 6e 67 	call  b5a5ba14 <LEON_REG+0x35a5ba14>
      7c:	77 2d 31 2e 	call  dcb4c534 <LEON_REG+0x5cb4c534>
      80:	30 2e 34 36 	unknown
      84:	6e 65 77 6c 	call  b995de34 <LEON_REG+0x3995de34>
      88:	69 62 2d 31 	call  a588b54c <LEON_REG+0x2588b54c>
      8c:	2e 31 33 2e 	unknown
      90:	30 2d 62 75 	unknown
      94:	69 6c 64 2f 	call  a5b19150 <LEON_REG+0x25b19150>
      98:	73 70 61 72 	call  cdc18660 <LEON_REG+0x4dc18660>
      9c:	63 2d 65 6c 	call  8cb5964c <LEON_REG+0xcb5964c>
      a0:	66 2f 73 6f 	call  98bdce5c <LEON_REG+0x18bdce5c>
      a4:	66 74 2f 6c 	call  99d0be54 <LEON_REG+0x19d0be54>
      a8:	69 62 67 6c 	call  a5899e58 <LEON_REG+0x25899e58>
      ac:	6f 73 73 2f 	call  bdcdcd68 <LEON_REG+0x3dcdcd68>
      b0:	73 70 61 72 	call  cdc18678 <LEON_REG+0x4dc18678>
      b4:	63 5f 6c 65 	call  8d7db248 <LEON_REG+0xd7db248>
      b8:	6f 6e 00 47 	call  bdb801d4 <LEON_REG+0x3db801d4>
      bc:	4e 55 20 41 	call  395481c0 <_trap_table-0x6ab7e40>
      c0:	53 20 32 2e 	call  4c80c978 <__JCR_END__+0xc80ae50>
      c4:	31 39 2e 35 	sethi  %hi(0xe4b8d400), %i0
      c8:	31 00 80 01 	sethi  %hi(0x2000400), %i0
      cc:	00 00 00 c2 	unimp  0xc2
      d0:	00 02 00 00 	unimp  0x20000
      d4:	00 14 04 01 	unimp  0x140401
      d8:	00 00 00 6f 	unimp  0x6f
      dc:	40 00 00 0c 	call  10c <_trap_table-0x3ffffef4>
      e0:	40 00 00 94 	call  330 <_trap_table-0x3ffffcd0>
      e4:	2e 2e 2f 2e 	unknown
      e8:	2e 2f 2e 2e 	unknown
      ec:	2f 2e 2e 2f 	sethi  %hi(0xb8b8bc00), %l7
      f0:	2e 2e 2f 6e 	unknown
      f4:	65 77 6c 69 	call  95ddb298 <LEON_REG+0x15ddb298>
      f8:	62 2d 31 2e 	call  88b4c5b0 <LEON_REG+0x8b4c5b0>
      fc:	31 33 2e 30 	sethi  %hi(0xccb8c000), %i0
     100:	2f 6c 69 62 	unknown
     104:	67 6c 6f 73 	call  9db1bed0 <LEON_REG+0x1db1bed0>
     108:	73 2f 73 70 	call  ccbdcec8 <LEON_REG+0x4cbdcec8>
     10c:	61 72 63 5f 	call  85c98e88 <LEON_REG+0x5c98e88>
     110:	6c 65 6f 6e 	call  b195bec8 <LEON_REG+0x3195bec8>
     114:	2f 63 72 74 	unknown
     118:	30 2e 53 00 	unknown
     11c:	2f 68 6f 6d 	unknown
     120:	65 2f 62 75 	call  94bd8af4 <LEON_REG+0x14bd8af4>
     124:	69 6c 64 2f 	call  a5b191e0 <LEON_REG+0x25b191e0>
     128:	62 63 63 2f 	call  898d8de4 <LEON_REG+0x98d8de4>
     12c:	42 43 43 5f 	call  90d0ea8 <_trap_table-0x36f2f158>
     130:	52 45 50 2f 	call  491541ec <__JCR_END__+0x91526c4>
     134:	67 63 63 2d 	call  9d8d8de8 <LEON_REG+0x1d8d8de8>
     138:	33 2e 34 2e 	sethi  %hi(0xb8d0b800), %i1
     13c:	34 2d 6d 69 	unknown
     140:	6e 67 77 2d 	call  b99dddf4 <LEON_REG+0x399dddf4>
     144:	31 2e 30 2e 	sethi  %hi(0xb8c0b800), %i0
     148:	34 36 6e 65 	unknown
     14c:	77 6c 69 62 	call  ddb1a6d4 <LEON_REG+0x5db1a6d4>
     150:	2d 31 2e 31 	sethi  %hi(0xc4b8c400), %l6
     154:	33 2e 30 2d 	sethi  %hi(0xb8c0b400), %i1
     158:	62 75 69 6c 	call  89d5a708 <LEON_REG+0x9d5a708>
     15c:	64 2f 73 70 	call  90bdcf1c <LEON_REG+0x10bdcf1c>
     160:	61 72 63 2d 	call  85c98e14 <LEON_REG+0x5c98e14>
     164:	65 6c 66 2f 	call  95b19a20 <LEON_REG+0x15b19a20>
     168:	73 6f 66 74 	call  cdbd9b38 <LEON_REG+0x4dbd9b38>
     16c:	2f 6c 69 62 	unknown
     170:	67 6c 6f 73 	call  9db1bf3c <LEON_REG+0x1db1bf3c>
     174:	73 2f 73 70 	call  ccbdcf34 <LEON_REG+0x4cbdcf34>
     178:	61 72 63 5f 	call  85c98ef4 <LEON_REG+0x5c98ef4>
     17c:	6c 65 6f 6e 	call  b195bf34 <LEON_REG+0x3195bf34>
     180:	00 47 4e 55 	unknown
     184:	20 41 53 20 	unknown
     188:	32 2e 31 39 	unknown
     18c:	2e 35 31 00 	unknown
     190:	80 01 00 00 	add  %g4, %g0, %g0
     194:	00 82 00 02 	bn  8019c <_trap_table-0x3ff7fe64>
     198:	00 00 00 28 	unimp  0x28
     19c:	04 01 00 00 	unknown
     1a0:	00 f5 40 00 	unknown
     1a4:	01 88 40 00 	fbn  2101a4 <_trap_table-0x3fdefe5c>
     1a8:	01 80 00 00 	fbn  1a8 <_trap_table-0x3ffffe58>
     1ac:	00 ab 01 00 	bn  ffac05ac <LEON_REG+0x7fac05ac>
     1b0:	00 00 c9 00 	unimp  0xc900
     1b4:	00 00 46 02 	unimp  0x4602
     1b8:	00 00 00 18 	unimp  0x18
     1bc:	04 07 02 00 	unknown
     1c0:	00 00 18 04 	unimp  0x1804
     1c4:	07 03 69 6e 	sethi  %hi(0xda5b800), %g3
     1c8:	74 00 04 05 	call  d00011dc <LEON_REG+0x500011dc>
     1cc:	02 00 00 00 	unknown
     1d0:	00 01 08 02 	unimp  0x10802
     1d4:	00 00 00 33 	unimp  0x33
     1d8:	02 07 02 00 	unknown
     1dc:	00 00 09 01 	unimp  0x901
     1e0:	06 02 00 00 	unknown
     1e4:	00 2a 04 05 	unimp  0xffea0405
     1e8:	02 00 00 00 	unknown
     1ec:	25 08 05 02 	sethi  %hi(0x20140800), %l2
     1f0:	00 00 00 13 	unimp  0x13
     1f4:	04 07 02 00 	unknown
     1f8:	00 00 bf 02 	unimp  0xbf02
     1fc:	05 02 00 00 	sethi  %hi(0x8000000), %g2
     200:	00 0e 08 07 	unimp  0xe0807
     204:	04 01 00 00 	unknown
     208:	00 b7 01 06 	bn  ffdc0620 <LEON_REG+0x7fdc0620>
     20c:	01 40 00 01 	unknown
     210:	80 40 00 01 	addx  %g0, %g1, %g0
     214:	88 01 5e 00 	unknown
     218:	00 00 0a 7d 	unimp  0xa7d
     21c:	00 02 00 00 	unimp  0x20000
     220:	00 67 04 01 	unknown
     224:	00 00 01 64 	unimp  0x164
     228:	40 00 02 80 	call  c28 <_trap_table-0x3ffff3d8>
     22c:	40 00 02 28 	call  acc <_trap_table-0x3ffff534>
     230:	00 00 00 ab 	unimp  0xab
     234:	01 00 00 01 	sethi  %hi(0x400), %g0
     238:	68 00 00 00 	call  a0000238 <LEON_REG+0x20000238>
     23c:	46 02 69 6e 	call  1809a7f4 <_trap_table-0x27f6580c>
     240:	74 00 04 05 	call  d0001254 <LEON_REG+0x50001254>
     244:	03 00 00 00 	sethi  %hi(0), %g1
     248:	18 04 07 03 	unknown
     24c:	00 00 00 2a 	unimp  0x2a
     250:	04 05 04 00 	unknown
     254:	00 03 05 05 	unimp  0x30505
     258:	27 00 00 00 	sethi  %hi(0), %l3
     25c:	25 05 00 00 	sethi  %hi(0x14000000), %l2
     260:	00 7c 00 00 	unknown
     264:	02 2f 0c 05 	unknown
     268:	29 06 00 00 	sethi  %hi(0x18000000), %l4
     26c:	03 5f 05 29 	unknown
     270:	00 00 00 82 	unimp  0x82
     274:	02 23 00 06 	unknown
     278:	00 00 05 02 	unimp  0x502
     27c:	05 29 00 00 	sethi  %hi(0xa4000000), %g2
     280:	00 88 02 23 	bn  200b0c <_trap_table-0x3fdff4f4>
     284:	04 06 00 00 	unknown
     288:	04 6c 05 29 	unknown
     28c:	00 00 00 8e 	unimp  0x8e
     290:	02 23 08 00 	unknown
     294:	07 00 00 01 	sethi  %hi(0x400), %g3
     298:	c3 01 08 04 	ld  [ %g4 + %g4 ], %f1
     29c:	00 00 00 7c 	unimp  0x7c
     2a0:	08 04 00 00 	unknown
     2a4:	00 82 08 04 	bn  822b4 <_trap_table-0x3ff7dd4c>
     2a8:	00 00 00 94 	unimp  0x94
     2ac:	03 00 00 00 	sethi  %hi(0), %g1
     2b0:	09 01 06 09 	sethi  %hi(0x4182400), %g4
     2b4:	00 00 00 c0 	unimp  0xc0
     2b8:	08 05 35 06 	unknown
     2bc:	00 00 02 ce 	unimp  0x2ce
     2c0:	05 35 00 00 	sethi  %hi(0xd4000000), %g2
     2c4:	01 67 02 23 	unknown
     2c8:	00 06 00 00 	unimp  0x60000
     2cc:	02 95 05 35 	be  5417a0 <_trap_table-0x3fabe860>
     2d0:	00 00 01 6d 	unimp  0x16d
     2d4:	02 23 04 00 	unknown
     2d8:	05 00 00 01 	sethi  %hi(0x400), %g2
     2dc:	67 00 00 01 	call  9c0002e0 <LEON_REG+0x1c0002e0>
     2e0:	34 74 05 2c 	unknown
     2e4:	06 00 00 02 	unknown
     2e8:	37 05 2d 00 	sethi  %hi(0x14b40000), %i3
     2ec:	00 00 45 02 	unimp  0x4502
     2f0:	23 00 06 00 	sethi  %hi(0x180000), %l1
     2f4:	00 02 4c 05 	unimp  0x24c05
     2f8:	2e 00 00 00 	unknown
     2fc:	94 02 23 0c 	add  %o0, 0x30c, %o2
     300:	06 00 00 03 	unknown
     304:	b4 05 2f 00 	add  %l4, 0xf00, %i2
     308:	00 00 82 02 	unimp  0x8202
     30c:	23 10 06 00 	sethi  %hi(0x40180000), %l1
     310:	00 02 12 05 	unimp  0x21205
     314:	30 00 00 00 	unknown
     318:	25 02 23 14 	sethi  %hi(0x88c5000), %l2
     31c:	06 00 00 02 	unknown
     320:	a7 05 31 00 	taddcc  %l4, -3840, %l3
     324:	00 00 25 02 	unimp  0x2502
     328:	23 18 06 00 	sethi  %hi(0x60180000), %l1
     32c:	00 05 a7 05 	unimp  0x5a705
     330:	32 00 00 00 	unknown
     334:	25 02 23 1c 	sethi  %hi(0x88c7000), %l2
     338:	06 00 00 02 	unknown
     33c:	ea 05 33 00 	ld  [ %l4 + -3328 ], %l5
     340:	00 00 3a 02 	unimp  0x3a02
     344:	23 20 06 00 	sethi  %hi(0x80180000), %l1
     348:	00 03 9e 05 	unimp  0x39e05
     34c:	34 00 00 00 	unknown
     350:	25 02 23 24 	sethi  %hi(0x88c9000), %l2
     354:	06 00 00 02 	unknown
     358:	65 05 35 00 	call  9414d758 <LEON_REG+0x1414d758>
     35c:	00 00 9b 02 	unimp  0x9b02
     360:	23 28 06 00 	sethi  %hi(0xa0180000), %l1
     364:	00 03 46 05 	unimp  0x34605
     368:	36 00 00 00 	unknown
     36c:	8e 02 23 30 	add  %o0, 0x330, %g7
     370:	06 00 00 04 	unknown
     374:	37 05 37 00 	sethi  %hi(0x14dc0000), %i3
     378:	00 01 73 02 	unimp  0x17302
     37c:	23 34 00 08 	sethi  %hi(0xd0002000), %l1
     380:	04 00 00 00 	unknown
     384:	c0 08 04 00 	unknown
     388:	00 01 67 0a 	unimp  0x1670a
     38c:	00 00 01 83 	unimp  0x183
     390:	00 00 00 25 	unimp  0x25
     394:	0b 00 00 01 	sethi  %hi(0x400), %g5
     398:	83 0f 00 03 	tsubcc  %i4, %g3, %g1
     39c:	00 00 00 18 	unimp  0x18
     3a0:	04 07 04 00 	unknown
     3a4:	00 02 1f 05 	unimp  0x21f05
     3a8:	38 00 00 00 	unknown
     3ac:	c0 04 00 00 	ld  [ %l0 ], %g0
     3b0:	01 ef 04 62 	cbn  ffbc1538 <LEON_REG+0x7fbc1538>
     3b4:	00 00 01 8a 	unimp  0x18a
     3b8:	04 00 00 02 	unknown
     3bc:	7c 04 e0 00 	call  f01383bc <LEON_REG+0x701383bc>
     3c0:	00 01 95 03 	unimp  0x19503
     3c4:	00 00 00 25 	unimp  0x25
     3c8:	08 05 0c 00 	unknown
     3cc:	00 02 75 06 	unimp  0x27506
     3d0:	01 62 00 00 	unknown
     3d4:	00 33 0d 00 	unimp  0xfff30d00
     3d8:	00 01 dd 04 	unimp  0x1dd04
     3dc:	03 22 0e 00 	sethi  %hi(0x88380000), %g1
     3e0:	00 01 42 03 	unimp  0x14203
     3e4:	20 00 00 01 	unknown
     3e8:	b2 0e 00 00 	and  %i0, %g0, %i1
     3ec:	03 d2 03 21 	cb123  481070 <_trap_table-0x3fb7ef90>
     3f0:	00 00 01 dd 	unimp  0x1dd
     3f4:	00 0a 00 00 	unimp  0xa0000
     3f8:	01 ed 00 00 	cbn  ffb403f8 <LEON_REG+0x7fb403f8>
     3fc:	01 ed 0b 00 	cbn  ffb42ffc <LEON_REG+0x7fb42ffc>
     400:	00 01 83 03 	unimp  0x18303
     404:	00 03 00 00 	unimp  0x30000
     408:	00 00 01 08 	unimp  0x108
     40c:	09 00 00 02 	sethi  %hi(0x800), %g4
     410:	19 08 03 23 	sethi  %hi(0x200c8c00), %o4
     414:	06 00 00 02 	unknown
     418:	a5 03 1d 00 	unknown
     41c:	00 00 25 02 	unimp  0x2502
     420:	23 00 06 00 	sethi  %hi(0x180000), %l1
     424:	00 01 60 03 	unimp  0x16003
     428:	22 00 00 01 	unknown
     42c:	be 02 23 04 	add  %o0, 0x304, %i7
     430:	00 04 00 00 	unimp  0x40000
     434:	04 a3 03 23 	ble  ff8c10c0 <LEON_REG+0x7f8c10c0>
     438:	00 00 01 f4 	unimp  0x1f4
     43c:	04 00 00 03 	unknown
     440:	69 03 25 00 	call  a40c9840 <LEON_REG+0x240c9840>
     444:	00 01 a0 0f 	unimp  0x1a00f
     448:	04 04 00 00 	unknown
     44c:	04 ec 02 13 	unknown
     450:	00 00 02 3c 	unimp  0x23c
     454:	03 00 00 00 	sethi  %hi(0), %g1
     458:	13 04 07 05 	sethi  %hi(0x101c1400), %o1
     45c:	00 00 02 a2 	unimp  0x2a2
     460:	00 00 04 ae 	unimp  0x4ae
     464:	18 02 29 06 	unknown
     468:	00 00 05 54 	unimp  0x554
     46c:	02 2a 00 00 	unknown
     470:	02 a2 02 23 	be  ff880cfc <LEON_REG+0x7f880cfc>
     474:	00 10 5f 6b 	unimp  0x105f6b
     478:	00 02 2b 00 	unimp  0x22b00
     47c:	00 00 25 02 	unimp  0x2502
     480:	23 04 06 00 	sethi  %hi(0x10180000), %l1
     484:	00 04 b6 02 	unimp  0x4b602
     488:	2b 00 00 00 	sethi  %hi(0), %l5
     48c:	25 02 23 08 	sethi  %hi(0x88c2000), %l2
     490:	06 00 00 05 	unknown
     494:	49 02 2b 00 	call  2408b094 <_trap_table-0x1bf74f6c>
     498:	00 00 25 02 	unimp  0x2502
     49c:	23 0c 06 00 	sethi  %hi(0x30180000), %l1
     4a0:	00 04 42 02 	unimp  0x44202
     4a4:	2b 00 00 00 	sethi  %hi(0), %l5
     4a8:	25 02 23 10 	sethi  %hi(0x88c4000), %l2
     4ac:	10 5f 78 00 	unknown
     4b0:	02 2c 00 00 	unknown
     4b4:	02 a8 02 23 	be  ffa00d40 <LEON_REG+0x7fa00d40>
     4b8:	14 00 08 04 	unknown
     4bc:	00 00 02 43 	unimp  0x243
     4c0:	0a 00 00 02 	unknown
     4c4:	b8 00 00 02 	add  %g0, %g2, %i4
     4c8:	31 0b 00 00 	sethi  %hi(0x2c000000), %i0
     4cc:	01 83 00 00 	fbn  c04cc <_trap_table-0x3ff3fb34>
     4d0:	05 00 00 03 	sethi  %hi(0xc00), %g2
     4d4:	43 00 00 04 	call  c0004e4 <_trap_table-0x33fffb1c>
     4d8:	47 24 02 31 	call  1c900d9c <_trap_table-0x236ff264>
     4dc:	06 00 00 03 	unknown
     4e0:	85 02 32 00 	taddcc  %o0, -3584, %g2
     4e4:	00 00 25 02 	unimp  0x2502
     4e8:	23 00 06 00 	sethi  %hi(0x180000), %l1
     4ec:	00 02 ba 02 	unimp  0x2ba02
     4f0:	33 00 00 00 	sethi  %hi(0), %i1
     4f4:	25 02 23 04 	sethi  %hi(0x88c1000), %l2
     4f8:	06 00 00 03 	unknown
     4fc:	8e 02 34 00 	add  %o0, -3072, %g7
     500:	00 00 25 02 	unimp  0x2502
     504:	23 08 06 00 	sethi  %hi(0x20180000), %l1
     508:	00 04 62 02 	unimp  0x46202
     50c:	35 00 00 00 	sethi  %hi(0), %i2
     510:	25 02 23 0c 	sethi  %hi(0x88c3000), %l2
     514:	06 00 00 04 	unknown
     518:	be 02 36 00 	add  %o0, -2560, %i7
     51c:	00 00 25 02 	unimp  0x2502
     520:	23 10 06 00 	sethi  %hi(0x40180000), %l1
     524:	00 04 8f 02 	unimp  0x48f02
     528:	37 00 00 00 	sethi  %hi(0), %i3
     52c:	25 02 23 14 	sethi  %hi(0x88c5000), %l2
     530:	06 00 00 02 	unknown
     534:	f3 02 38 00 	ld  [ %o0 + -2048 ], %f25
     538:	00 00 25 02 	unimp  0x2502
     53c:	23 18 06 00 	sethi  %hi(0x60180000), %l1
     540:	00 04 e2 02 	unimp  0x4e202
     544:	39 00 00 00 	sethi  %hi(0), %i4
     548:	25 02 23 1c 	sethi  %hi(0x88c7000), %l2
     54c:	06 00 00 03 	unknown
     550:	23 02 3a 00 	sethi  %hi(0x8e80000), %l1
     554:	00 00 25 02 	unimp  0x2502
     558:	23 20 00 11 	sethi  %hi(0x80004400), %l1
     55c:	00 00 03 8c 	unimp  0x38c
     560:	00 00 03 e1 	unimp  0x3e1
     564:	01 08 02 43 	sethi  %hi(0x20090c00), %g0
     568:	06 00 00 02 	unknown
     56c:	fd 02 44 00 	ld  [ %o1 ], %f30
     570:	00 03 8c 02 	unimp  0x38c02
     574:	23 00 06 00 	sethi  %hi(0x180000), %l1
     578:	00 05 38 02 	unimp  0x53802
     57c:	45 00 00 03 	call  14000588 <_trap_table-0x2bfffa78>
     580:	8c 03 23 80 	add  %o4, 0x380, %g6
     584:	01 06 00 00 	sethi  %hi(0x18000000), %g0
     588:	03 4e 02 47 	unknown
     58c:	00 00 02 31 	unimp  0x231
     590:	03 23 80 02 	sethi  %hi(0x8e000800), %g1
     594:	06 00 00 04 	unknown
     598:	87 02 4a 00 	unknown
     59c:	00 02 31 03 	unimp  0x23103
     5a0:	23 84 02 00 	fbne,a   100da0 <_trap_table-0x3feff260>
     5a4:	0a 00 00 03 	unknown
     5a8:	9c 00 00 02 	add  %g0, %g2, %sp
     5ac:	2f 0b 00 00 	sethi  %hi(0x2c000000), %l7
     5b0:	01 83 1f 00 	fbn  c81b0 <_trap_table-0x3ff37e50>
     5b4:	11 00 00 03 	sethi  %hi(0xc00), %o0
     5b8:	e3 00 00 02 	ld  [ %g0 + %g2 ], %f17
     5bc:	5d 01 90 02 	call  740645c4 <__JCR_END__+0x34062a9c>
     5c0:	55 06 00 00 	call  541805c0 <__JCR_END__+0x1417ea98>
     5c4:	05 54 02 56 	unknown
     5c8:	00 00 03 e3 	unimp  0x3e3
     5cc:	02 23 00 06 	unknown
     5d0:	00 00 05 25 	unimp  0x525
     5d4:	02 57 00 00 	unknown
     5d8:	00 25 02 23 	unimp  0xffe50223
     5dc:	04 06 00 00 	unknown
     5e0:	05 44 02 59 	unknown
     5e4:	00 00 03 e9 	unimp  0x3e9
     5e8:	02 23 08 06 	unknown
     5ec:	00 00 03 e1 	unimp  0x3e1
     5f0:	02 5a 00 00 	unknown
     5f4:	03 43 03 23 	unknown
     5f8:	88 01 00 08 	add  %g4, %o0, %g4
     5fc:	04 00 00 03 	unknown
     600:	9c 0a 00 00 	and  %o0, %g0, %sp
     604:	03 f9 00 00 	cb123  ffe40604 <LEON_REG+0x7fe40604>
     608:	03 fb 0b 00 	cb123  ffec3208 <LEON_REG+0x7fec3208>
     60c:	00 01 83 1f 	unimp  0x1831f
     610:	00 12 01 08 	unimp  0x120108
     614:	04 00 00 03 	unknown
     618:	f9 05 00 00 	ld  [ %l4 ], %f28
     61c:	04 2a 00 00 	unknown
     620:	01 a9 08 02 	fbn  ffa42628 <LEON_REG+0x7fa42628>
     624:	65 06 00 00 	call  94180624 <LEON_REG+0x14180624>
     628:	08 60 02 66 	unknown
     62c:	00 00 04 2a 	unimp  0x42a
     630:	02 23 00 06 	unknown
     634:	00 00 05 94 	unimp  0x594
     638:	02 67 00 00 	unknown
     63c:	00 25 02 23 	unimp  0xffe50223
     640:	04 00 08 04 	unknown
     644:	00 00 01 ed 	unimp  0x1ed
     648:	04 00 00 03 	unknown
     64c:	57 02 6f 00 	call  5c09c24c <__JCR_END__+0x1c09a724>
     650:	00 00 33 05 	unimp  0x3305
     654:	00 00 05 79 	unimp  0x579
     658:	00 00 05 b3 	unimp  0x5b3
     65c:	cc 02 a6 10 	ld  [ %o2 + 0x610 ], %g6
     660:	5f 70 00 02 	call  7dc00668 <__JCR_END__+0x3dbfeb40>
     664:	a7 00 00 04 	taddcc  %g0, %g4, %l3
     668:	2a 02 23 00 	unknown
     66c:	10 5f 72 00 	unknown
     670:	02 a8 00 00 	be  ffa00670 <LEON_REG+0x7fa00670>
     674:	00 25 02 23 	unimp  0xffe50223
     678:	04 10 5f 77 	unknown
     67c:	00 02 a9 00 	unimp  0x2a900
     680:	00 00 25 02 	unimp  0x2502
     684:	23 08 06 00 	sethi  %hi(0x20180000), %l1
     688:	00 02 11 02 	unimp  0x21102
     68c:	aa 00 00 05 	add  %g0, %g5, %l5
     690:	79 02 23 0c 	call  e40892c0 <LEON_REG+0x640892c0>
     694:	06 00 00 04 	unknown
     698:	fc 02 ab 00 	ld  [ %o2 + 0xb00 ], %fp
     69c:	00 05 79 02 	unimp  0x57902
     6a0:	23 0e 10 5f 	sethi  %hi(0x38417c00), %l1
     6a4:	62 66 00 02 	call  899806ac <LEON_REG+0x99806ac>
     6a8:	ac 00 00 04 	add  %g0, %g4, %l6
     6ac:	01 02 23 10 	sethi  %hi(0x88c4000), %g0
     6b0:	06 00 00 01 	unknown
     6b4:	57 02 ad 00 	call  5c0abab4 <__JCR_END__+0x1c0a9f8c>
     6b8:	00 00 25 02 	unimp  0x2502
     6bc:	23 18 06 00 	sethi  %hi(0x60180000), %l1
     6c0:	00 04 20 02 	unimp  0x42002
     6c4:	b4 00 00 02 	add  %g0, %g2, %i2
     6c8:	2f 02 23 1c 	sethi  %hi(0x88c7000), %l7
     6cc:	06 00 00 03 	unknown
     6d0:	c0 02 b6 00 	ld  [ %o2 + -2560 ], %g0
     6d4:	00 05 9a 02 	unimp  0x59a02
     6d8:	23 20 06 00 	sethi  %hi(0x80180000), %l1
     6dc:	00 02 18 02 	unimp  0x21802
     6e0:	b7 00 00 05 	taddcc  %g0, %g5, %i3
     6e4:	c5 02 23 24 	ld  [ %o0 + 0x324 ], %f2
     6e8:	06 00 00 01 	unknown
     6ec:	e9 02 b9 00 	ld  [ %o2 + -1792 ], %f20
     6f0:	00 05 e5 02 	unimp  0x5e502
     6f4:	23 28 06 00 	sethi  %hi(0xa0180000), %l1
     6f8:	00 01 0b 02 	unimp  0x10b02
     6fc:	ba 00 00 05 	add  %g0, %g5, %i5
     700:	fb 02 23 2c 	ld  [ %o0 + 0x32c ], %f29
     704:	10 5f 75 62 	unknown
     708:	00 02 bd 00 	unimp  0x2bd00
     70c:	00 04 01 02 	unimp  0x40102
     710:	23 30 10 5f 	sethi  %hi(0xc0417c00), %l1
     714:	75 70 00 02 	call  d5c0071c <LEON_REG+0x55c0071c>
     718:	be 00 00 04 	add  %g0, %g4, %i7
     71c:	2a 02 23 38 	unknown
     720:	10 5f 75 72 	unknown
     724:	00 02 bf 00 	unimp  0x2bf00
     728:	00 00 25 02 	unimp  0x2502
     72c:	23 3c 06 00 	sethi  %hi(0xf0180000), %l1
     730:	00 05 8e 02 	unimp  0x58e02
     734:	c2 00 00 06 	ld  [ %g0 + %g6 ], %g1
     738:	01 02 23 40 	sethi  %hi(0x88d0000), %g0
     73c:	06 00 00 03 	unknown
     740:	98 02 c3 00 	unknown
     744:	00 06 11 02 	unimp  0x61102
     748:	23 43 10 5f 	unknown
     74c:	6c 62 00 02 	call  b1880754 <LEON_REG+0x31880754>
     750:	c6 00 00 04 	ld  [ %g0 + %g4 ], %g3
     754:	01 02 23 44 	sethi  %hi(0x88d1000), %g0
     758:	06 00 00 03 	unknown
     75c:	3d 02 c9 00 	sethi  %hi(0xb240000), %fp
     760:	00 00 25 02 	unimp  0x2502
     764:	23 4c 06 00 	unknown
     768:	00 01 d5 02 	unimp  0x1d502
     76c:	ca 00 00 00 	ld  [ %g0 ], %g5
     770:	25 02 23 50 	sethi  %hi(0x88d4000), %l2
     774:	06 00 00 05 	unknown
     778:	c1 02 cd 00 	ld  [ %o3 ], %f0
     77c:	00 07 7e 02 	unimp  0x77e02
     780:	23 54 06 00 	unknown
     784:	00 02 4b 02 	unimp  0x24b02
     788:	d1 00 00 02 	ld  [ %g0 + %g2 ], %f8
     78c:	24 02 23 58 	unknown
     790:	00 03 00 00 	unimp  0x30000
     794:	00 bf 02 05 	bn  fffc0fa8 <LEON_REG+0x7ffc0fa8>
     798:	13 00 00 05 	sethi  %hi(0x1400), %o1
     79c:	9a 01 00 00 	add  %g4, %g0, %o5
     7a0:	00 25 14 00 	unimp  0xffe51400
     7a4:	00 02 2f 14 	unimp  0x22f14
     7a8:	00 00 00 8e 	unimp  0x8e
     7ac:	14 00 00 00 	unknown
     7b0:	25 00 08 04 	sethi  %hi(0x201000), %l2
     7b4:	00 00 05 80 	unimp  0x580
     7b8:	13 00 00 05 	sethi  %hi(0x1400), %o1
     7bc:	ba 01 00 00 	add  %g4, %g0, %i5
     7c0:	00 25 14 00 	unimp  0xffe51400
     7c4:	00 02 2f 14 	unimp  0x22f14
     7c8:	00 00 05 ba 	unimp  0x5ba
     7cc:	14 00 00 00 	unknown
     7d0:	25 00 08 04 	sethi  %hi(0x201000), %l2
     7d4:	00 00 05 c0 	unimp  0x5c0
     7d8:	15 00 00 00 	sethi  %hi(0), %o2
     7dc:	94 08 04 00 	unknown
     7e0:	00 05 a0 13 	unimp  0x5a013
     7e4:	00 00 05 e5 	unimp  0x5e5
     7e8:	01 00 00 04 	sethi  %hi(0x1000), %g0
     7ec:	30 14 00 00 	unknown
     7f0:	02 2f 14 00 	unknown
     7f4:	00 04 30 14 	unimp  0x43014
     7f8:	00 00 00 25 	unimp  0x25
     7fc:	00 08 04 00 	unimp  0x80400
     800:	00 05 cb 13 	unimp  0x5cb13
     804:	00 00 05 fb 	unimp  0x5fb
     808:	01 00 00 00 	nop 
     80c:	25 14 00 00 	sethi  %hi(0x50000000), %l2
     810:	02 2f 00 08 	unknown
     814:	04 00 00 05 	unknown
     818:	eb 0a 00 00 	unknown
     81c:	06 11 00 00 	unknown
     820:	01 ed 0b 00 	cbn  ffb43420 <LEON_REG+0x7fb43420>
     824:	00 01 83 02 	unimp  0x18302
     828:	00 0a 00 00 	unimp  0xa0000
     82c:	06 21 00 00 	unknown
     830:	01 ed 0b 00 	cbn  ffb43430 <LEON_REG+0x7fb43430>
     834:	00 01 83 00 	unimp  0x18300
     838:	00 11 00 00 	unimp  0x110000
     83c:	07 7e 00 00 	unknown
     840:	05 72 05 50 	unknown
     844:	02 cd 16 00 	unknown
     848:	00 03 cb 02 	unimp  0x3cb02
     84c:	02 37 00 00 	unknown
     850:	00 25 02 23 	unimp  0xffe50223
     854:	00 16 00 00 	unimp  0x160000
     858:	05 5a 02 02 	unknown
     85c:	3c 00 00 07 	unknown
     860:	d1 02 23 04 	ld  [ %o0 + 0x304 ], %f8
     864:	16 00 00 03 	unknown
     868:	72 02 02 3c 	call  c8081158 <LEON_REG+0x48081158>
     86c:	00 00 07 d1 	unimp  0x7d1
     870:	02 23 08 16 	unknown
     874:	00 00 05 86 	unimp  0x586
     878:	02 02 3c 00 	unknown
     87c:	00 07 d1 02 	unimp  0x7d102
     880:	23 0c 16 00 	sethi  %hi(0x30580000), %l1
     884:	00 05 20 02 	unimp  0x52002
     888:	02 3e 00 00 	unknown
     88c:	00 25 02 23 	unimp  0xffe50223
     890:	10 16 00 00 	unknown
     894:	03 7a 02 02 	unknown
     898:	3f 00 00 09 	sethi  %hi(0x2400), %i7
     89c:	ea 02 23 14 	ld  [ %o0 + 0x314 ], %l5
     8a0:	16 00 00 04 	unknown
     8a4:	75 02 02 41 	call  d40811a8 <LEON_REG+0x540811a8>
     8a8:	00 00 00 25 	unimp  0x25
     8ac:	02 23 30 16 	unknown
     8b0:	00 00 05 0b 	unimp  0x50b
     8b4:	02 02 42 00 	unknown
     8b8:	00 05 ba 02 	unimp  0x5ba02
     8bc:	23 34 16 00 	sethi  %hi(0xd0580000), %l1
     8c0:	00 02 c3 02 	unimp  0x2c302
     8c4:	02 44 00 00 	unknown
     8c8:	00 25 02 23 	unimp  0xffe50223
     8cc:	38 16 00 00 	unknown
     8d0:	04 99 02 02 	ble  6410d8 <_trap_table-0x3f9bef28>
     8d4:	46 00 00 0a 	call  180008fc <_trap_table-0x27fff704>
     8d8:	06 02 23 3c 	unknown
     8dc:	16 00 00 04 	unknown
     8e0:	f4 02 02 49 	ld  [ %o0 + %o1 ], %i2
     8e4:	00 00 02 a2 	unimp  0x2a2
     8e8:	02 23 40 16 	unknown
     8ec:	00 00 01 cb 	unimp  0x1cb
     8f0:	02 02 4a 00 	unknown
     8f4:	00 00 25 02 	unimp  0x2502
     8f8:	23 44 16 00 	unknown
     8fc:	00 03 c6 02 	unimp  0x3c602
     900:	02 4b 00 00 	unknown
     904:	02 a2 02 23 	be  ff881190 <LEON_REG+0x7f881190>
     908:	48 16 00 00 	call  20580908 <_trap_table-0x1fa7f6f8>
     90c:	02 e0 02 02 	unknown
     910:	4c 00 00 0a 	call  30000938 <_trap_table-0xffff6c8>
     914:	0c 02 23 4c 	unknown
     918:	16 00 00 02 	unknown
     91c:	6d 02 02 4f 	call  b4081258 <LEON_REG+0x34081258>
     920:	00 00 00 25 	unimp  0x25
     924:	02 23 50 16 	unknown
     928:	00 00 04 18 	unimp  0x418
     92c:	02 02 50 00 	unknown
     930:	00 00 8e 02 	unimp  0x8e02
     934:	23 54 16 00 	unknown
     938:	00 03 18 02 	unimp  0x31802
     93c:	02 72 00 00 	unknown
     940:	09 c8 02 23 	cb1  2011cc <_trap_table-0x3fdfee34>
     944:	58 16 00 00 	call  60580944 <__JCR_END__+0x2057ee1c>
     948:	02 5d 02 02 	unknown
     94c:	75 00 00 03 	call  d4000958 <LEON_REG+0x54000958>
     950:	e3 03 23 c8 	ld  [ %o4 + 0x3c8 ], %f17
     954:	02 16 00 00 	unknown
     958:	04 0f 02 02 	unknown
     95c:	76 00 00 03 	call  d8000968 <LEON_REG+0x58000968>
     960:	9c 03 23 cc 	add  %o4, 0x3cc, %sp
     964:	02 16 00 00 	unknown
     968:	02 07 02 02 	unknown
     96c:	79 00 00 0a 	call  e4000994 <LEON_REG+0x64000994>
     970:	1e 03 23 dc 	unknown
     974:	05 16 00 00 	sethi  %hi(0x58000000), %g2
     978:	03 d9 02 02 	cb123  641180 <_trap_table-0x3f9bee80>
     97c:	7e 00 00 07 	call  f8000998 <LEON_REG+0x78000998>
     980:	90 03 23 e0 	add  %o4, 0x3e0, %o0
     984:	05 16 00 00 	sethi  %hi(0x58000000), %g2
     988:	01 25 02 02 	sethi  %hi(0x94080800), %g0
     98c:	7f 00 00 0a 	call  fc0009b4 <LEON_REG+0x7c0009b4>
     990:	2a 03 23 ec 	unknown
     994:	05 00 08 04 	sethi  %hi(0x201000), %g2
     998:	00 00 06 21 	unimp  0x621
     99c:	0c 00 00 02 	unknown
     9a0:	9e 02 01 03 	unknown
     9a4:	00 00 04 3b 	unimp  0x43b
     9a8:	17 00 00 07 	sethi  %hi(0x1c00), %o3
     9ac:	cb 00 00 03 	ld  [ %g0 + %g3 ], %f5
     9b0:	ba 0c 02 01 	unknown
     9b4:	07 16 00 00 	sethi  %hi(0x58000000), %g3
     9b8:	05 54 02 01 	unknown
     9bc:	08 00 00 07 	unknown
     9c0:	cb 02 23 00 	ld  [ %o0 + 0x300 ], %f5
     9c4:	16 00 00 02 	unknown
     9c8:	8e 02 01 09 	unknown
     9cc:	00 00 00 25 	unimp  0x25
     9d0:	02 23 04 16 	unknown
     9d4:	00 00 01 12 	unimp  0x112
     9d8:	02 01 0a 00 	unknown
     9dc:	00 07 d1 02 	unimp  0x7d102
     9e0:	23 08 00 08 	sethi  %hi(0x20002000), %l1
     9e4:	04 00 00 07 	unknown
     9e8:	90 08 04 00 	unknown
     9ec:	00 07 84 17 	unimp  0x78417
     9f0:	00 00 08 12 	unimp  0x812
     9f4:	00 00 04 da 	unimp  0x4da
     9f8:	0e 02 01 22 	unknown
     9fc:	16 00 00 04 	unknown
     a00:	d4 02 01 23 	ld  [ %o0 + %g3 ], %o2
     a04:	00 00 08 12 	unimp  0x812
     a08:	02 23 00 16 	unknown
     a0c:	00 00 03 1d 	unimp  0x31d
     a10:	02 01 24 00 	unknown
     a14:	00 08 12 02 	unimp  0x81202
     a18:	23 06 16 00 	sethi  %hi(0x18580000), %l1
     a1c:	00 05 1b 02 	unimp  0x51b02
     a20:	01 25 00 00 	sethi  %hi(0x94000000), %g0
     a24:	08 22 02 23 	unknown
     a28:	0c 00 0a 00 	unknown
     a2c:	00 08 22 00 	unimp  0x82200
     a30:	00 08 22 0b 	unimp  0x8220b
     a34:	00 00 01 83 	unimp  0x183
     a38:	02 00 03 00 	unknown
     a3c:	00 00 33 02 	unimp  0x3302
     a40:	07 18 00 00 	sethi  %hi(0x60000000), %g3
     a44:	09 49 d0 02 	unknown
     a48:	02 68 16 00 	unknown
     a4c:	00 05 79 02 	unimp  0x57902
     a50:	02 56 00 00 	unknown
     a54:	00 2c 02 23 	unimp  0xffec0223
     a58:	00 16 00 00 	unimp  0x160000
     a5c:	04 c7 02 02 	unknown
     a60:	57 00 00 00 	call  5c000a60 <__JCR_END__+0x1bffef38>
     a64:	8e 02 23 04 	add  %o0, 0x304, %g7
     a68:	16 00 00 05 	unknown
     a6c:	9a 02 02 58 	unknown
     a70:	00 00 09 49 	unimp  0x949
     a74:	02 23 08 16 	unknown
     a78:	00 00 03 2e 	unimp  0x32e
     a7c:	02 02 59 00 	unknown
     a80:	00 02 b8 02 	unimp  0x2b802
     a84:	23 24 16 00 	sethi  %hi(0x90580000), %l1
     a88:	00 04 28 02 	unimp  0x42802
     a8c:	02 5a 00 00 	unknown
     a90:	00 25 02 23 	unimp  0xffe50223
     a94:	48 16 00 00 	call  20580a94 <_trap_table-0x1fa7f56c>
     a98:	05 4f 02 02 	unknown
     a9c:	5b 00 00 09 	call  6c000ac0 <__JCR_END__+0x2bffef98>
     aa0:	59 02 23 50 	call  640897e0 <__JCR_END__+0x24087cb8>
     aa4:	16 00 00 02 	unknown
     aa8:	51 02 02 5c 	call  44081418 <__JCR_END__+0x407f8f0>
     aac:	00 00 07 d7 	unimp  0x7d7
     ab0:	02 23 58 16 	unknown
     ab4:	00 00 01 18 	unimp  0x118
     ab8:	02 02 5d 00 	unknown
     abc:	00 02 19 02 	unimp  0x21902
     ac0:	23 68 16 00 	unknown
     ac4:	00 04 54 02 	unimp  0x45402
     ac8:	02 5e 00 00 	unknown
     acc:	02 19 02 23 	unknown
     ad0:	70 16 00 00 	call  c0580ad0 <LEON_REG+0x40580ad0>
     ad4:	05 2a 02 02 	sethi  %hi(0xa8080800), %g2
     ad8:	5f 00 00 02 	call  7c000ae0 <__JCR_END__+0x3bffefb8>
     adc:	19 02 23 78 	sethi  %hi(0x88de000), %o4
     ae0:	16 00 00 01 	unknown
     ae4:	2a 02 02 60 	unknown
     ae8:	00 00 09 60 	unimp  0x960
     aec:	03 23 80 01 	sethi  %hi(0x8e000400), %g1
     af0:	16 00 00 01 	unknown
     af4:	dd 02 02 61 	ld  [ %o0 + %g1 ], %f14
     af8:	00 00 09 70 	unimp  0x970
     afc:	03 23 88 01 	sethi  %hi(0x8e200400), %g1
     b00:	16 00 00 02 	unknown
     b04:	ad 02 02 62 	unknown
     b08:	00 00 00 25 	unimp  0x25
     b0c:	03 23 a0 01 	sethi  %hi(0x8e800400), %g1
     b10:	16 00 00 02 	unknown
     b14:	3d 02 02 63 	sethi  %hi(0x8098c00), %fp
     b18:	00 00 02 19 	unimp  0x219
     b1c:	03 23 a4 01 	sethi  %hi(0x8e900400), %g1
     b20:	16 00 00 03 	unknown
     b24:	ef 02 02 64 	ld  [ %o0 + %g4 ], %f23
     b28:	00 00 02 19 	unimp  0x219
     b2c:	03 23 ac 01 	sethi  %hi(0x8eb00400), %g1
     b30:	16 00 00 05 	unknown
     b34:	61 02 02 65 	call  840814c8 <LEON_REG+0x40814c8>
     b38:	00 00 02 19 	unimp  0x219
     b3c:	03 23 b4 01 	sethi  %hi(0x8ed00400), %g1
     b40:	16 00 00 01 	unknown
     b44:	48 02 02 66 	call  200814dc <_trap_table-0x1ff7eb24>
     b48:	00 00 02 19 	unimp  0x219
     b4c:	03 23 bc 01 	sethi  %hi(0x8ef00400), %g1
     b50:	16 00 00 03 	unknown
     b54:	fe 02 02 67 	ld  [ %o0 + %g7 ], %i7
     b58:	00 00 02 19 	unimp  0x219
     b5c:	03 23 c4 01 	sethi  %hi(0x8f100400), %g1
     b60:	00 0a 00 00 	unimp  0xa0000
     b64:	09 59 00 00 	unknown
     b68:	00 94 0b 00 	bn  503768 <_trap_table-0x3fafc898>
     b6c:	00 01 83 19 	unimp  0x18319
     b70:	00 03 00 00 	unimp  0x30000
     b74:	00 0e 08 07 	unimp  0xe0807
     b78:	0a 00 00 09 	unknown
     b7c:	70 00 00 00 	call  c0000b7c <LEON_REG+0x40000b7c>
     b80:	94 0b 00 00 	and  %o4, %g0, %o2
     b84:	01 83 07 00 	fbn  c2784 <_trap_table-0x3ff3d87c>
     b88:	0a 00 00 09 	unknown
     b8c:	80 00 00 00 	add  %g0, %g0, %g0
     b90:	94 0b 00 00 	and  %o4, %g0, %o2
     b94:	01 83 17 00 	fbn  c6794 <_trap_table-0x3ff3986c>
     b98:	18 00 00 09 	unknown
     b9c:	a8 f0 02 02 	unknown
     ba0:	71 16 00 00 	call  c4580ba0 <LEON_REG+0x44580ba0>
     ba4:	02 56 02 02 	unknown
     ba8:	6f 00 00 09 	call  bc000bcc <LEON_REG+0x3c000bcc>
     bac:	a8 02 23 00 	add  %o0, 0x300, %l4
     bb0:	16 00 00 02 	unknown
     bb4:	d7 02 02 70 	ld  [ %o0 + %l0 ], %f11
     bb8:	00 00 09 b8 	unimp  0x9b8
     bbc:	02 23 78 00 	unknown
     bc0:	0a 00 00 09 	unknown
     bc4:	b8 00 00 04 	add  %g0, %g4, %i4
     bc8:	2a 0b 00 00 	unknown
     bcc:	01 83 1d 00 	fbn  c7fcc <_trap_table-0x3ff38034>
     bd0:	0a 00 00 09 	unknown
     bd4:	c8 00 00 00 	ld  [ %g0 ], %g4
     bd8:	2c 0b 00 00 	unknown
     bdc:	01 83 1d 00 	fbn  c7fdc <_trap_table-0x3ff38024>
     be0:	19 00 00 09 	sethi  %hi(0x2400), %o4
     be4:	ea f0 02 02 	unknown
     be8:	72 1a 00 00 	call  c8680be8 <LEON_REG+0x48680be8>
     bec:	05 72 02 02 	unknown
     bf0:	68 00 00 08 	call  a0000c10 <LEON_REG+0x20000c10>
     bf4:	29 1a 00 00 	sethi  %hi(0x68000000), %l4
     bf8:	04 4c 02 02 	unknown
     bfc:	71 00 00 09 	call  c4000c20 <LEON_REG+0x44000c20>
     c00:	80 00 0a 00 	unknown
     c04:	00 09 fa 00 	unimp  0x9fa00
     c08:	00 00 94 0b 	unimp  0x940b
     c0c:	00 00 01 83 	unimp  0x183
     c10:	18 00 1b 00 	unknown
     c14:	00 0a 06 01 	unimp  0xa0601
     c18:	14 00 00 07 	unknown
     c1c:	7e 00 08 04 	call  f8002c2c <LEON_REG+0x78002c2c>
     c20:	00 00 09 fa 	unimp  0x9fa
     c24:	08 04 00 00 	unknown
     c28:	02 a2 1b 00 	be  ff887828 <LEON_REG+0x7f887828>
     c2c:	00 0a 1e 01 	unimp  0xa1e01
     c30:	14 00 00 00 	unknown
     c34:	25 00 08 04 	sethi  %hi(0x201000), %l2
     c38:	00 00 0a 24 	unimp  0xa24
     c3c:	08 04 00 00 	unknown
     c40:	0a 12 0a 00 	unknown
     c44:	00 0a 3a 00 	unimp  0xa3a00
     c48:	00 07 84 0b 	unimp  0x7840b
     c4c:	00 00 01 83 	unimp  0x183
     c50:	02 00 1c 00 	unknown
     c54:	00 0a 6d 01 	unimp  0xa6d01
     c58:	00 00 02 5e 	unimp  0x25e
     c5c:	01 24 01 00 	sethi  %hi(0x90040000), %g0
     c60:	00 00 25 40 	unimp  0x2540
     c64:	00 02 28 40 	unimp  0x22840
     c68:	00 02 80 01 	unimp  0x28001
     c6c:	5e 1d 66 6e 	call  7875a624 <__JCR_END__+0x38758afc>
     c70:	00 01 23 00 	unimp  0x12300
     c74:	00 03 fb 01 	unimp  0x3fb01
     c78:	5a 1e 70 00 	call  6879cc78 <__JCR_END__+0x2879b150>
     c7c:	01 25 00 00 	sethi  %hi(0x94000000), %g0
     c80:	03 e3 01 5c 	cb123  ff8c11f0 <LEON_REG+0x7f8c11f0>
     c84:	00 1f 00 00 	unimp  0x1f0000
     c88:	01 b0 02 03 	fbn  ffc01494 <LEON_REG+0x7fc01494>
     c8c:	20 00 00 0a 	unknown
     c90:	7b 01 01 15 	call  ec0410e4 <LEON_REG+0x6c0410e4>
     c94:	00 00 07 7e 	unimp  0x77e
     c98:	00 00 00 0a 	unimp  0xa
     c9c:	71 00 02 00 	call  c400149c <LEON_REG+0x4400149c>
     ca0:	00 01 ef 04 	unimp  0x1ef04
     ca4:	01 00 00 02 	sethi  %hi(0x800), %g0
     ca8:	e6 40 00 02 	unknown
     cac:	80 40 00 02 	addx  %g0, %g2, %g0
     cb0:	80 00 00 00 	add  %g0, %g0, %g0
     cb4:	ab 01 00 00 	taddcc  %g4, %g0, %l5
     cb8:	06 2a 00 00 	unknown
     cbc:	05 c7 02 00 	cb12  1c14bc <_trap_table-0x3fe3eb44>
     cc0:	00 03 05 05 	unimp  0x30505
     cc4:	27 00 00 00 	sethi  %hi(0), %l3
     cc8:	30 03 69 6e 	unknown
     ccc:	74 00 04 05 	call  d0001ce0 <LEON_REG+0x50001ce0>
     cd0:	04 00 00 00 	unknown
     cd4:	6e 00 00 02 	call  b8000cdc <LEON_REG+0x38000cdc>
     cd8:	2f 0c 05 29 	sethi  %hi(0x3014a400), %l7
     cdc:	05 00 00 03 	sethi  %hi(0xc00), %g2
     ce0:	5f 05 29 00 	call  7c14b0e0 <__JCR_END__+0x3c1495b8>
     ce4:	00 00 74 02 	unimp  0x7402
     ce8:	23 00 05 00 	sethi  %hi(0x140000), %l1
     cec:	00 05 02 05 	unimp  0x50205
     cf0:	29 00 00 00 	sethi  %hi(0), %l4
     cf4:	7a 02 23 04 	call  e8089904 <LEON_REG+0x68089904>
     cf8:	05 00 00 04 	sethi  %hi(0x1000), %g2
     cfc:	6c 05 29 00 	call  b014b0fc <LEON_REG+0x3014b0fc>
     d00:	00 00 80 02 	unimp  0x8002
     d04:	23 08 00 06 	sethi  %hi(0x20001800), %l1
     d08:	00 00 01 c3 	unimp  0x1c3
     d0c:	01 07 04 00 	sethi  %hi(0x1c100000), %g0
     d10:	00 00 6e 07 	unimp  0x6e07
     d14:	04 00 00 00 	unknown
     d18:	74 07 04 00 	call  d01c1d18 <LEON_REG+0x501c1d18>
     d1c:	00 00 86 08 	unimp  0x8608
     d20:	00 00 00 09 	unimp  0x9
     d24:	01 06 09 00 	sethi  %hi(0x18240000), %g0
     d28:	00 00 b2 08 	unimp  0xb208
     d2c:	05 35 05 00 	sethi  %hi(0xd4140000), %g2
     d30:	00 02 ce 05 	unimp  0x2ce05
     d34:	35 00 00 01 	sethi  %hi(0x400), %i2
     d38:	59 02 23 00 	call  64089938 <__JCR_END__+0x24087e10>
     d3c:	05 00 00 02 	sethi  %hi(0x800), %g2
     d40:	95 05 35 00 	taddcc  %l4, -2816, %o2
     d44:	00 01 5f 02 	unimp  0x15f02
     d48:	23 04 00 04 	sethi  %hi(0x10001000), %l1
     d4c:	00 00 01 59 	unimp  0x159
     d50:	00 00 01 34 	unimp  0x134
     d54:	74 05 2c 05 	call  d014bd68 <LEON_REG+0x5014bd68>
     d58:	00 00 02 37 	unimp  0x237
     d5c:	05 2d 00 00 	sethi  %hi(0xb4000000), %g2
     d60:	00 37 02 23 	unimp  0xfff70223
     d64:	00 05 00 00 	unimp  0x50000
     d68:	02 4c 05 2e 	unknown
     d6c:	00 00 00 86 	unimp  0x86
     d70:	02 23 0c 05 	unknown
     d74:	00 00 03 b4 	unimp  0x3b4
     d78:	05 2f 00 00 	sethi  %hi(0xbc000000), %g2
     d7c:	00 74 02 23 	unknown
     d80:	10 05 00 00 	unknown
     d84:	02 12 05 30 	unknown
     d88:	00 00 00 30 	unimp  0x30
     d8c:	02 23 14 05 	unknown
     d90:	00 00 02 a7 	unimp  0x2a7
     d94:	05 31 00 00 	sethi  %hi(0xc4000000), %g2
     d98:	00 30 02 23 	unimp  0xfff00223
     d9c:	18 05 00 00 	unknown
     da0:	05 a7 05 32 	fblg  ff9c2268 <LEON_REG+0x7f9c2268>
     da4:	00 00 00 30 	unimp  0x30
     da8:	02 23 1c 05 	unknown
     dac:	00 00 02 ea 	unimp  0x2ea
     db0:	05 33 00 00 	sethi  %hi(0xcc000000), %g2
     db4:	00 25 02 23 	unimp  0xffe50223
     db8:	20 05 00 00 	unknown
     dbc:	03 9e 05 34 	fbne  78228c <_trap_table-0x3f87dd74>
     dc0:	00 00 00 30 	unimp  0x30
     dc4:	02 23 24 05 	unknown
     dc8:	00 00 02 65 	unimp  0x265
     dcc:	05 35 00 00 	sethi  %hi(0xd4000000), %g2
     dd0:	00 8d 02 23 	bn  34165c <_trap_table-0x3fcbe9a4>
     dd4:	28 05 00 00 	unknown
     dd8:	03 46 05 36 	unknown
     ddc:	00 00 00 80 	unimp  0x80
     de0:	02 23 30 05 	unknown
     de4:	00 00 04 37 	unimp  0x437
     de8:	05 37 00 00 	sethi  %hi(0xdc000000), %g2
     dec:	01 65 02 23 	unknown
     df0:	34 00 07 04 	unknown
     df4:	00 00 00 b2 	unimp  0xb2
     df8:	07 04 00 00 	sethi  %hi(0x10000000), %g3
     dfc:	01 59 0a 00 	unknown
     e00:	00 01 75 00 	unimp  0x17500
     e04:	00 00 30 0b 	unimp  0x300b
     e08:	00 00 01 75 	unimp  0x175
     e0c:	0f 00 08 00 	sethi  %hi(0x200000), %g7
     e10:	00 00 18 04 	unimp  0x1804
     e14:	07 02 00 00 	sethi  %hi(0x8000000), %g3
     e18:	02 1f 05 38 	unknown
     e1c:	00 00 00 b2 	unimp  0xb2
     e20:	02 00 00 01 	unknown
     e24:	ef 04 62 00 	ld  [ %l1 + 0x200 ], %f23
     e28:	00 01 7c 02 	unimp  0x17c02
     e2c:	00 00 02 7c 	unimp  0x27c
     e30:	04 e0 00 00 	unknown
     e34:	01 87 08 00 	fbn  1c2e34 <_trap_table-0x3fe3d1cc>
     e38:	00 00 2a 04 	unimp  0x2a04
     e3c:	05 08 00 00 	sethi  %hi(0x20000000), %g2
     e40:	00 25 08 05 	unimp  0xffe50805
     e44:	0c 00 00 02 	unknown
     e48:	75 06 01 62 	call  d41813d0 <LEON_REG+0x541813d0>
     e4c:	00 00 01 9d 	unimp  0x19d
     e50:	0d 00 00 01 	sethi  %hi(0x400), %g6
     e54:	d6 04 03 22 	ld  [ %l0 + %g2 ], %o3
     e58:	0e 00 00 01 	unknown
     e5c:	42 03 20 00 	call  80c8e5c <_trap_table-0x37f371a4>
     e60:	00 01 ab 0e 	unimp  0x1ab0e
     e64:	00 00 03 d2 	unimp  0x3d2
     e68:	03 21 00 00 	sethi  %hi(0x84000000), %g1
     e6c:	01 d6 00 0a 	cbn  580e94 <_trap_table-0x3fa7f16c>
     e70:	00 00 01 e6 	unimp  0x1e6
     e74:	00 00 01 e6 	unimp  0x1e6
     e78:	0b 00 00 01 	sethi  %hi(0x400), %g5
     e7c:	75 03 00 08 	call  d40c0e9c <LEON_REG+0x540c0e9c>
     e80:	00 00 00 00 	unimp  0
     e84:	01 08 09 00 	sethi  %hi(0x20240000), %g0
     e88:	00 02 12 08 	unimp  0x21208
     e8c:	03 23 05 00 	sethi  %hi(0x8c140000), %g1
     e90:	00 02 a5 03 	unimp  0x2a503
     e94:	1d 00 00 00 	sethi  %hi(0), %sp
     e98:	30 02 23 00 	unknown
     e9c:	05 00 00 01 	sethi  %hi(0x400), %g2
     ea0:	60 03 22 00 	call  800c96a0 <LEON_REG+0xc96a0>
     ea4:	00 01 b7 02 	unimp  0x1b702
     ea8:	23 04 00 02 	sethi  %hi(0x10000800), %l1
     eac:	00 00 04 a3 	unimp  0x4a3
     eb0:	03 23 00 00 	sethi  %hi(0x8c000000), %g1
     eb4:	01 ed 02 00 	cbn  ffb416b4 <LEON_REG+0x7fb416b4>
     eb8:	00 03 69 03 	unimp  0x36903
     ebc:	25 00 00 01 	sethi  %hi(0x400), %l2
     ec0:	92 0f 04 02 	unknown
     ec4:	00 00 04 ec 	unimp  0x4ec
     ec8:	02 13 00 00 	unknown
     ecc:	02 35 08 00 	unknown
     ed0:	00 00 13 04 	unimp  0x1304
     ed4:	07 04 00 00 	sethi  %hi(0x10000000), %g3
     ed8:	02 9b 00 00 	be  6c0ed8 <_trap_table-0x3f93f128>
     edc:	04 ae 18 02 	ble  ffb86ee4 <LEON_REG+0x7fb86ee4>
     ee0:	29 05 00 00 	sethi  %hi(0x14000000), %l4
     ee4:	05 54 02 2a 	unknown
     ee8:	00 00 02 9b 	unimp  0x29b
     eec:	02 23 00 10 	unknown
     ef0:	5f 6b 00 02 	call  7dac0ef8 <__JCR_END__+0x3dabf3d0>
     ef4:	2b 00 00 00 	sethi  %hi(0), %l5
     ef8:	30 02 23 04 	unknown
     efc:	05 00 00 04 	sethi  %hi(0x1000), %g2
     f00:	b6 02 2b 00 	add  %o0, 0xb00, %i3
     f04:	00 00 30 02 	unimp  0x3002
     f08:	23 08 05 00 	sethi  %hi(0x20140000), %l1
     f0c:	00 05 49 02 	unimp  0x54902
     f10:	2b 00 00 00 	sethi  %hi(0), %l5
     f14:	30 02 23 0c 	unknown
     f18:	05 00 00 04 	sethi  %hi(0x1000), %g2
     f1c:	42 02 2b 00 	call  808bb1c <_trap_table-0x37f744e4>
     f20:	00 00 30 02 	unimp  0x3002
     f24:	23 10 10 5f 	sethi  %hi(0x40417c00), %l1
     f28:	78 00 02 2c 	call  e00017d8 <LEON_REG+0x600017d8>
     f2c:	00 00 02 a1 	unimp  0x2a1
     f30:	02 23 14 00 	unknown
     f34:	07 04 00 00 	sethi  %hi(0x10000000), %g3
     f38:	02 3c 0a 00 	unknown
     f3c:	00 02 b1 00 	unimp  0x2b100
     f40:	00 02 2a 0b 	unimp  0x22a0b
     f44:	00 00 01 75 	unimp  0x175
     f48:	00 00 04 00 	unimp  0x400
     f4c:	00 03 3c 00 	unimp  0x33c00
     f50:	00 04 47 24 	unimp  0x44724
     f54:	02 31 05 00 	unknown
     f58:	00 03 85 02 	unimp  0x38502
     f5c:	32 00 00 00 	unknown
     f60:	30 02 23 00 	unknown
     f64:	05 00 00 02 	sethi  %hi(0x800), %g2
     f68:	ba 02 33 00 	add  %o0, -3328, %i5
     f6c:	00 00 30 02 	unimp  0x3002
     f70:	23 04 05 00 	sethi  %hi(0x10140000), %l1
     f74:	00 03 8e 02 	unimp  0x38e02
     f78:	34 00 00 00 	unknown
     f7c:	30 02 23 08 	unknown
     f80:	05 00 00 04 	sethi  %hi(0x1000), %g2
     f84:	62 02 35 00 	call  8808e384 <LEON_REG+0x808e384>
     f88:	00 00 30 02 	unimp  0x3002
     f8c:	23 0c 05 00 	sethi  %hi(0x30140000), %l1
     f90:	00 04 be 02 	unimp  0x4be02
     f94:	36 00 00 00 	unknown
     f98:	30 02 23 10 	unknown
     f9c:	05 00 00 04 	sethi  %hi(0x1000), %g2
     fa0:	8f 02 37 00 	taddcc  %o0, -2304, %g7
     fa4:	00 00 30 02 	unimp  0x3002
     fa8:	23 14 05 00 	sethi  %hi(0x50140000), %l1
     fac:	00 02 f3 02 	unimp  0x2f302
     fb0:	38 00 00 00 	unknown
     fb4:	30 02 23 18 	unknown
     fb8:	05 00 00 04 	sethi  %hi(0x1000), %g2
     fbc:	e2 02 39 00 	ld  [ %o0 + -1792 ], %l1
     fc0:	00 00 30 02 	unimp  0x3002
     fc4:	23 1c 05 00 	sethi  %hi(0x70140000), %l1
     fc8:	00 03 23 02 	unimp  0x32302
     fcc:	3a 00 00 00 	unknown
     fd0:	30 02 23 20 	unknown
     fd4:	00 11 00 00 	unimp  0x110000
     fd8:	03 85 00 00 	fbne  140fd8 <_trap_table-0x3febf028>
     fdc:	03 e1 01 08 	cb123  ff8413fc <LEON_REG+0x7f8413fc>
     fe0:	02 43 05 00 	unknown
     fe4:	00 02 fd 02 	unimp  0x2fd02
     fe8:	44 00 00 03 	call  10000ff4 <_trap_table-0x2ffff00c>
     fec:	85 02 23 00 	taddcc  %o0, 0x300, %g2
     ff0:	05 00 00 05 	sethi  %hi(0x1400), %g2
     ff4:	38 02 45 00 	unknown
     ff8:	00 03 85 03 	unimp  0x38503
     ffc:	23 80 01 05 	fbne,a   1410 <_trap_table-0x3fffebf0>
    1000:	00 00 03 4e 	unimp  0x34e
    1004:	02 47 00 00 	unknown
    1008:	02 2a 03 23 	unknown
    100c:	80 02 05 00 	unknown
    1010:	00 04 87 02 	unimp  0x48702
    1014:	4a 00 00 02 	call  2800101c <_trap_table-0x17ffefe4>
    1018:	2a 03 23 84 	unknown
    101c:	02 00 0a 00 	unknown
    1020:	00 03 95 00 	unimp  0x39500
    1024:	00 02 28 0b 	unimp  0x2280b
    1028:	00 00 01 75 	unimp  0x175
    102c:	1f 00 11 00 	sethi  %hi(0x440000), %o7
    1030:	00 03 dc 00 	unimp  0x3dc00
    1034:	00 02 5d 01 	unimp  0x25d01
    1038:	90 02 55 05 	unknown
    103c:	00 00 05 54 	unimp  0x554
    1040:	02 56 00 00 	unknown
    1044:	03 dc 02 23 	cb123  7018d0 <_trap_table-0x3f8fe730>
    1048:	00 05 00 00 	unimp  0x50000
    104c:	05 25 02 57 	sethi  %hi(0x94095c00), %g2
    1050:	00 00 00 30 	unimp  0x30
    1054:	02 23 04 05 	unknown
    1058:	00 00 05 44 	unimp  0x544
    105c:	02 59 00 00 	unknown
    1060:	03 e2 02 23 	cb123  ff8818ec <LEON_REG+0x7f8818ec>
    1064:	08 05 00 00 	unknown
    1068:	03 e1 02 5a 	cb123  ff8419d0 <LEON_REG+0x7f8419d0>
    106c:	00 00 03 3c 	unimp  0x33c
    1070:	03 23 88 01 	sethi  %hi(0x8e200400), %g1
    1074:	00 07 04 00 	unimp  0x70400
    1078:	00 03 95 0a 	unimp  0x3950a
    107c:	00 00 03 f2 	unimp  0x3f2
    1080:	00 00 03 f4 	unimp  0x3f4
    1084:	0b 00 00 01 	sethi  %hi(0x400), %g5
    1088:	75 1f 00 12 	call  d47c10d0 <LEON_REG+0x547c10d0>
    108c:	01 07 04 00 	sethi  %hi(0x1c100000), %g0
    1090:	00 03 f2 04 	unimp  0x3f204
    1094:	00 00 04 23 	unimp  0x423
    1098:	00 00 01 a9 	unimp  0x1a9
    109c:	08 02 65 05 	unknown
    10a0:	00 00 08 60 	unimp  0x860
    10a4:	02 66 00 00 	unknown
    10a8:	04 23 02 23 	unknown
    10ac:	00 05 00 00 	unimp  0x50000
    10b0:	05 94 02 67 	fblg  501a4c <_trap_table-0x3fafe5b4>
    10b4:	00 00 00 30 	unimp  0x30
    10b8:	02 23 04 00 	unknown
    10bc:	07 04 00 00 	sethi  %hi(0x10000000), %g3
    10c0:	01 e6 02 00 	cbn  ff9818c0 <LEON_REG+0x7f9818c0>
    10c4:	00 03 57 02 	unimp  0x35702
    10c8:	6f 00 00 01 	call  bc0010cc <LEON_REG+0x3c0010cc>
    10cc:	9d 04 00 00 	taddcc  %l0, %g0, %sp
    10d0:	05 72 00 00 	unknown
    10d4:	05 b3 cc 02 	fblg  ffcf40dc <LEON_REG+0x7fcf40dc>
    10d8:	a6 10 5f 70 	unknown
    10dc:	00 02 a7 00 	unimp  0x2a700
    10e0:	00 04 23 02 	unimp  0x42302
    10e4:	23 00 10 5f 	sethi  %hi(0x417c00), %l1
    10e8:	72 00 02 a8 	call  c8001b88 <LEON_REG+0x48001b88>
    10ec:	00 00 00 30 	unimp  0x30
    10f0:	02 23 04 10 	unknown
    10f4:	5f 77 00 02 	call  7ddc10fc <__JCR_END__+0x3ddbf5d4>
    10f8:	a9 00 00 00 	taddcc  %g0, %g0, %l4
    10fc:	30 02 23 08 	unknown
    1100:	05 00 00 02 	sethi  %hi(0x800), %g2
    1104:	11 02 aa 00 	sethi  %hi(0xaa80000), %o0
    1108:	00 05 72 02 	unimp  0x57202
    110c:	23 0c 05 00 	sethi  %hi(0x30140000), %l1
    1110:	00 04 fc 02 	unimp  0x4fc02
    1114:	ab 00 00 05 	taddcc  %g0, %g5, %l5
    1118:	72 02 23 0e 	call  c8089d50 <LEON_REG+0x48089d50>
    111c:	10 5f 62 66 	unknown
    1120:	00 02 ac 00 	unimp  0x2ac00
    1124:	00 03 fa 02 	unimp  0x3fa02
    1128:	23 10 05 00 	sethi  %hi(0x40140000), %l1
    112c:	00 01 57 02 	unimp  0x15702
    1130:	ad 00 00 00 	taddcc  %g0, %g0, %l6
    1134:	30 02 23 18 	unknown
    1138:	05 00 00 04 	sethi  %hi(0x1000), %g2
    113c:	20 02 b4 00 	unknown
    1140:	00 02 28 02 	unimp  0x22802
    1144:	23 1c 05 00 	sethi  %hi(0x70140000), %l1
    1148:	00 03 c0 02 	unimp  0x3c002
    114c:	b6 00 00 05 	add  %g0, %g5, %i3
    1150:	93 02 23 20 	taddcc  %o0, 0x320, %o1
    1154:	05 00 00 02 	sethi  %hi(0x800), %g2
    1158:	18 02 b7 00 	unknown
    115c:	00 05 be 02 	unimp  0x5be02
    1160:	23 24 05 00 	sethi  %hi(0x90140000), %l1
    1164:	00 01 e9 02 	unimp  0x1e902
    1168:	b9 00 00 05 	taddcc  %g0, %g5, %i4
    116c:	de 02 23 28 	ld  [ %o0 + 0x328 ], %o7
    1170:	05 00 00 01 	sethi  %hi(0x400), %g2
    1174:	0b 02 ba 00 	sethi  %hi(0xae80000), %g5
    1178:	00 05 f4 02 	unimp  0x5f402
    117c:	23 2c 10 5f 	sethi  %hi(0xb0417c00), %l1
    1180:	75 62 00 02 	call  d5881188 <LEON_REG+0x55881188>
    1184:	bd 00 00 03 	taddcc  %g0, %g3, %fp
    1188:	fa 02 23 30 	ld  [ %o0 + 0x330 ], %i5
    118c:	10 5f 75 70 	unknown
    1190:	00 02 be 00 	unimp  0x2be00
    1194:	00 04 23 02 	unimp  0x42302
    1198:	23 38 10 5f 	sethi  %hi(0xe0417c00), %l1
    119c:	75 72 00 02 	call  d5c811a4 <LEON_REG+0x55c811a4>
    11a0:	bf 00 00 00 	taddcc  %g0, %g0, %i7
    11a4:	30 02 23 3c 	unknown
    11a8:	05 00 00 05 	sethi  %hi(0x1400), %g2
    11ac:	8e 02 c2 00 	unknown
    11b0:	00 05 fa 02 	unimp  0x5fa02
    11b4:	23 40 05 00 	unknown
    11b8:	00 03 98 02 	unimp  0x39802
    11bc:	c3 00 00 06 	ld  [ %g0 + %g6 ], %f1
    11c0:	0a 02 23 43 	unknown
    11c4:	10 5f 6c 62 	unknown
    11c8:	00 02 c6 00 	unimp  0x2c600
    11cc:	00 03 fa 02 	unimp  0x3fa02
    11d0:	23 44 05 00 	unknown
    11d4:	00 03 3d 02 	unimp  0x33d02
    11d8:	c9 00 00 00 	ld  [ %g0 ], %f4
    11dc:	30 02 23 4c 	unknown
    11e0:	05 00 00 01 	sethi  %hi(0x400), %g2
    11e4:	d5 02 ca 00 	ld  [ %o3 ], %f10
    11e8:	00 00 30 02 	unimp  0x3002
    11ec:	23 50 05 00 	unknown
    11f0:	00 05 c1 02 	unimp  0x5c102
    11f4:	cd 00 00 07 	ld  [ %g0 + %g7 ], %f6
    11f8:	77 02 23 54 	call  dc089f48 <LEON_REG+0x5c089f48>
    11fc:	05 00 00 02 	sethi  %hi(0x800), %g2
    1200:	4b 02 d1 00 	call  2c0b5600 <_trap_table-0x13f4aa00>
    1204:	00 02 1d 02 	unimp  0x21d02
    1208:	23 58 00 08 	unknown
    120c:	00 00 00 bf 	unimp  0xbf
    1210:	02 05 13 00 	unknown
    1214:	00 05 93 01 	unimp  0x59301
    1218:	00 00 00 30 	unimp  0x30
    121c:	14 00 00 02 	unknown
    1220:	28 14 00 00 	unknown
    1224:	00 80 14 00 	bn  6224 <_trap_table-0x3fff9ddc>
    1228:	00 00 30 00 	unimp  0x3000
    122c:	07 04 00 00 	sethi  %hi(0x10000000), %g3
    1230:	05 79 13 00 	unknown
    1234:	00 05 b3 01 	unimp  0x5b301
    1238:	00 00 00 30 	unimp  0x30
    123c:	14 00 00 02 	unknown
    1240:	28 14 00 00 	unknown
    1244:	05 b3 14 00 	fblg  ffcc6244 <LEON_REG+0x7fcc6244>
    1248:	00 00 30 00 	unimp  0x3000
    124c:	07 04 00 00 	sethi  %hi(0x10000000), %g3
    1250:	05 b9 15 00 	fblg  ffe46650 <LEON_REG+0x7fe46650>
    1254:	00 00 86 07 	unimp  0x8607
    1258:	04 00 00 05 	unknown
    125c:	99 13 00 00 	taddcctv  %o4, %g0, %o4
    1260:	05 de 01 00 	cb12  781660 <_trap_table-0x3f87e9a0>
    1264:	00 04 29 14 	unimp  0x42914
    1268:	00 00 02 28 	unimp  0x228
    126c:	14 00 00 04 	unknown
    1270:	29 14 00 00 	sethi  %hi(0x50000000), %l4
    1274:	00 30 00 07 	unimp  0xfff00007
    1278:	04 00 00 05 	unknown
    127c:	c4 13 00 00 	lduh  [ %o4 ], %g2
    1280:	05 f4 01 00 	cb12  ffd01680 <LEON_REG+0x7fd01680>
    1284:	00 00 30 14 	unimp  0x3014
    1288:	00 00 02 28 	unimp  0x228
    128c:	00 07 04 00 	unimp  0x70400
    1290:	00 05 e4 0a 	unimp  0x5e40a
    1294:	00 00 06 0a 	unimp  0x60a
    1298:	00 00 01 e6 	unimp  0x1e6
    129c:	0b 00 00 01 	sethi  %hi(0x400), %g5
    12a0:	75 02 00 0a 	call  d40812c8 <LEON_REG+0x540812c8>
    12a4:	00 00 06 1a 	unimp  0x61a
    12a8:	00 00 01 e6 	unimp  0x1e6
    12ac:	0b 00 00 01 	sethi  %hi(0x400), %g5
    12b0:	75 00 00 11 	call  d40012f4 <LEON_REG+0x540012f4>
    12b4:	00 00 07 77 	unimp  0x777
    12b8:	00 00 05 72 	unimp  0x572
    12bc:	05 50 02 cd 	unknown
    12c0:	16 00 00 03 	unknown
    12c4:	cb 02 02 37 	ld  [ %o0 + %l7 ], %f5
    12c8:	00 00 00 30 	unimp  0x30
    12cc:	02 23 00 16 	unknown
    12d0:	00 00 05 5a 	unimp  0x55a
    12d4:	02 02 3c 00 	unknown
    12d8:	00 07 ca 02 	unimp  0x7ca02
    12dc:	23 04 16 00 	sethi  %hi(0x10580000), %l1
    12e0:	00 03 72 02 	unimp  0x37202
    12e4:	02 3c 00 00 	unknown
    12e8:	07 ca 02 23 	cb13  281b74 <_trap_table-0x3fd7e48c>
    12ec:	08 16 00 00 	unknown
    12f0:	05 86 02 02 	fblg  181af8 <_trap_table-0x3fe7e508>
    12f4:	3c 00 00 07 	unknown
    12f8:	ca 02 23 0c 	ld  [ %o0 + 0x30c ], %g5
    12fc:	16 00 00 05 	unknown
    1300:	20 02 02 3e 	unknown
    1304:	00 00 00 30 	unimp  0x30
    1308:	02 23 10 16 	unknown
    130c:	00 00 03 7a 	unimp  0x37a
    1310:	02 02 3f 00 	unknown
    1314:	00 09 ea 02 	unimp  0x9ea02
    1318:	23 14 16 00 	sethi  %hi(0x50580000), %l1
    131c:	00 04 75 02 	unimp  0x47502
    1320:	02 41 00 00 	unknown
    1324:	00 30 02 23 	unimp  0xfff00223
    1328:	30 16 00 00 	unknown
    132c:	05 0b 02 02 	sethi  %hi(0x2c080800), %g2
    1330:	42 00 00 05 	call  8001344 <_trap_table-0x37ffecbc>
    1334:	b3 02 23 34 	taddcc  %o0, 0x334, %i1
    1338:	16 00 00 02 	unknown
    133c:	c3 02 02 44 	ld  [ %o0 + %g4 ], %f1
    1340:	00 00 00 30 	unimp  0x30
    1344:	02 23 38 16 	unknown
    1348:	00 00 04 99 	unimp  0x499
    134c:	02 02 46 00 	unknown
    1350:	00 0a 06 02 	unimp  0xa0602
    1354:	23 3c 16 00 	sethi  %hi(0xf0580000), %l1
    1358:	00 04 f4 02 	unimp  0x4f402
    135c:	02 49 00 00 	unknown
    1360:	02 9b 02 23 	be  6c1bec <_trap_table-0x3f93e414>
    1364:	40 16 00 00 	call  581364 <_trap_table-0x3fa7ec9c>
    1368:	01 cb 02 02 	cbn  2c1b70 <_trap_table-0x3fd3e490>
    136c:	4a 00 00 00 	call  2800136c <_trap_table-0x17ffec94>
    1370:	30 02 23 44 	unknown
    1374:	16 00 00 03 	unknown
    1378:	c6 02 02 4b 	ld  [ %o0 + %o3 ], %g3
    137c:	00 00 02 9b 	unimp  0x29b
    1380:	02 23 48 16 	unknown
    1384:	00 00 02 e0 	unimp  0x2e0
    1388:	02 02 4c 00 	unknown
    138c:	00 0a 0c 02 	unimp  0xa0c02
    1390:	23 4c 16 00 	unknown
    1394:	00 02 6d 02 	unimp  0x26d02
    1398:	02 4f 00 00 	unknown
    139c:	00 30 02 23 	unimp  0xfff00223
    13a0:	50 16 00 00 	call  405813a0 <__JCR_END__+0x57f878>
    13a4:	04 18 02 02 	unknown
    13a8:	50 00 00 00 	call  400013a8 <impure_data+0x188>
    13ac:	80 02 23 54 	add  %o0, 0x354, %g0
    13b0:	16 00 00 03 	unknown
    13b4:	18 02 02 72 	unknown
    13b8:	00 00 09 c8 	unimp  0x9c8
    13bc:	02 23 58 16 	unknown
    13c0:	00 00 02 5d 	unimp  0x25d
    13c4:	02 02 75 00 	unknown
    13c8:	00 03 dc 03 	unimp  0x3dc03
    13cc:	23 c8 02 16 	cb123,a   201c24 <_trap_table-0x3fdfe3dc>
    13d0:	00 00 04 0f 	unimp  0x40f
    13d4:	02 02 76 00 	unknown
    13d8:	00 03 95 03 	unimp  0x39503
    13dc:	23 cc 02 16 	cb123,a   301c34 <_trap_table-0x3fcfe3cc>
    13e0:	00 00 02 07 	unimp  0x207
    13e4:	02 02 79 00 	unknown
    13e8:	00 0a 1e 03 	unimp  0xa1e03
    13ec:	23 dc 05 16 	cb123,a   702844 <_trap_table-0x3f8fd7bc>
    13f0:	00 00 03 d9 	unimp  0x3d9
    13f4:	02 02 7e 00 	unknown
    13f8:	00 07 89 03 	unimp  0x78903
    13fc:	23 e0 05 16 	cb123,a   ff802854 <LEON_REG+0x7f802854>
    1400:	00 00 01 25 	unimp  0x125
    1404:	02 02 7f 00 	unknown
    1408:	00 0a 2a 03 	unimp  0xa2a03
    140c:	23 ec 05 00 	cb123,a   ffb0280c <LEON_REG+0x7fb0280c>
    1410:	07 04 00 00 	sethi  %hi(0x10000000), %g3
    1414:	06 1a 0c 00 	unknown
    1418:	00 02 9e 02 	unimp  0x29e02
    141c:	01 03 00 00 	sethi  %hi(0xc000000), %g0
    1420:	04 34 17 00 	unknown
    1424:	00 07 c4 00 	unimp  0x7c400
    1428:	00 03 ba 0c 	unimp  0x3ba0c
    142c:	02 01 07 16 	unknown
    1430:	00 00 05 54 	unimp  0x554
    1434:	02 01 08 00 	unknown
    1438:	00 07 c4 02 	unimp  0x7c402
    143c:	23 00 16 00 	sethi  %hi(0x580000), %l1
    1440:	00 02 8e 02 	unimp  0x28e02
    1444:	01 09 00 00 	sethi  %hi(0x24000000), %g0
    1448:	00 30 02 23 	unimp  0xfff00223
    144c:	04 16 00 00 	unknown
    1450:	01 12 02 01 	sethi  %hi(0x48080400), %g0
    1454:	0a 00 00 07 	unknown
    1458:	ca 02 23 08 	ld  [ %o0 + 0x308 ], %g5
    145c:	00 07 04 00 	unimp  0x70400
    1460:	00 07 89 07 	unimp  0x78907
    1464:	04 00 00 07 	unknown
    1468:	7d 17 00 00 	call  f45c1468 <LEON_REG+0x745c1468>
    146c:	08 0b 00 00 	unknown
    1470:	04 da 0e 02 	unknown
    1474:	01 22 16 00 	sethi  %hi(0x88580000), %g0
    1478:	00 04 d4 02 	unimp  0x4d402
    147c:	01 23 00 00 	sethi  %hi(0x8c000000), %g0
    1480:	08 0b 02 23 	unknown
    1484:	00 16 00 00 	unimp  0x160000
    1488:	03 1d 02 01 	sethi  %hi(0x74080400), %g1
    148c:	24 00 00 08 	unknown
    1490:	0b 02 23 06 	sethi  %hi(0x88c1800), %g5
    1494:	16 00 00 05 	unknown
    1498:	1b 02 01 25 	sethi  %hi(0x8049400), %o5
    149c:	00 00 08 1b 	unimp  0x81b
    14a0:	02 23 0c 00 	unknown
    14a4:	0a 00 00 08 	unknown
    14a8:	1b 00 00 08 	sethi  %hi(0x2000), %o5
    14ac:	1b 0b 00 00 	sethi  %hi(0x2c000000), %o5
    14b0:	01 75 02 00 	unknown
    14b4:	08 00 00 00 	unknown
    14b8:	33 02 07 18 	sethi  %hi(0x81c6000), %i1
    14bc:	00 00 09 42 	unimp  0x942
    14c0:	d0 02 02 68 	ld  [ %o0 + %o0 ], %o0
    14c4:	16 00 00 05 	unknown
    14c8:	79 02 02 56 	call  e4081e20 <LEON_REG+0x64081e20>
    14cc:	00 00 09 42 	unimp  0x942
    14d0:	02 23 00 16 	unknown
    14d4:	00 00 04 c7 	unimp  0x4c7
    14d8:	02 02 57 00 	unknown
    14dc:	00 00 80 02 	unimp  0x8002
    14e0:	23 04 16 00 	sethi  %hi(0x10580000), %l1
    14e4:	00 05 9a 02 	unimp  0x59a02
    14e8:	02 58 00 00 	unknown
    14ec:	09 49 02 23 	unknown
    14f0:	08 16 00 00 	unknown
    14f4:	03 2e 02 02 	sethi  %hi(0xb8080800), %g1
    14f8:	59 00 00 02 	call  64001500 <__JCR_END__+0x23fff9d8>
    14fc:	b1 02 23 24 	taddcc  %o0, 0x324, %i0
    1500:	16 00 00 04 	unknown
    1504:	28 02 02 5a 	unknown
    1508:	00 00 00 30 	unimp  0x30
    150c:	02 23 48 16 	unknown
    1510:	00 00 05 4f 	unimp  0x54f
    1514:	02 02 5b 00 	unknown
    1518:	00 09 59 02 	unimp  0x95902
    151c:	23 50 16 00 	unknown
    1520:	00 02 51 02 	unimp  0x25102
    1524:	02 5c 00 00 	unknown
    1528:	07 d0 02 23 	cb13  401db4 <_trap_table-0x3fbfe24c>
    152c:	58 16 00 00 	call  6058152c <__JCR_END__+0x2057fa04>
    1530:	01 18 02 02 	sethi  %hi(0x60080800), %g0
    1534:	5d 00 00 02 	call  7400153c <__JCR_END__+0x33fffa14>
    1538:	12 02 23 68 	unknown
    153c:	16 00 00 04 	unknown
    1540:	54 02 02 5e 	call  50081eb8 <__JCR_END__+0x10080390>
    1544:	00 00 02 12 	unimp  0x212
    1548:	02 23 70 16 	unknown
    154c:	00 00 05 2a 	unimp  0x52a
    1550:	02 02 5f 00 	unknown
    1554:	00 02 12 02 	unimp  0x21202
    1558:	23 78 16 00 	unknown
    155c:	00 01 2a 02 	unimp  0x12a02
    1560:	02 60 00 00 	unknown
    1564:	09 60 03 23 	unknown
    1568:	80 01 16 00 	unknown
    156c:	00 01 dd 02 	unimp  0x1dd02
    1570:	02 61 00 00 	unknown
    1574:	09 70 03 23 	unknown
    1578:	88 01 16 00 	unknown
    157c:	00 02 ad 02 	unimp  0x2ad02
    1580:	02 62 00 00 	unknown
    1584:	00 30 03 23 	unimp  0xfff00323
    1588:	a0 01 16 00 	unknown
    158c:	00 02 3d 02 	unimp  0x23d02
    1590:	02 63 00 00 	unknown
    1594:	02 12 03 23 	unknown
    1598:	a4 01 16 00 	unknown
    159c:	00 03 ef 02 	unimp  0x3ef02
    15a0:	02 64 00 00 	unknown
    15a4:	02 12 03 23 	unknown
    15a8:	ac 01 16 00 	unknown
    15ac:	00 05 61 02 	unimp  0x56102
    15b0:	02 65 00 00 	unknown
    15b4:	02 12 03 23 	unknown
    15b8:	b4 01 16 00 	unknown
    15bc:	00 01 48 02 	unimp  0x14802
    15c0:	02 66 00 00 	unknown
    15c4:	02 12 03 23 	unknown
    15c8:	bc 01 16 00 	unknown
    15cc:	00 03 fe 02 	unimp  0x3fe02
    15d0:	02 67 00 00 	unknown
    15d4:	02 12 03 23 	unknown
    15d8:	c4 01 00 08 	ld  [ %g4 + %o0 ], %g2
    15dc:	00 00 00 18 	unimp  0x18
    15e0:	04 07 0a 00 	unknown
    15e4:	00 09 59 00 	unimp  0x95900
    15e8:	00 00 86 0b 	unimp  0x860b
    15ec:	00 00 01 75 	unimp  0x175
    15f0:	19 00 08 00 	sethi  %hi(0x200000), %o4
    15f4:	00 00 0e 08 	unimp  0xe08
    15f8:	07 0a 00 00 	sethi  %hi(0x28000000), %g3
    15fc:	09 70 00 00 	unknown
    1600:	00 86 0b 00 	bn  184200 <_trap_table-0x3fe7be00>
    1604:	00 01 75 07 	unimp  0x17507
    1608:	00 0a 00 00 	unimp  0xa0000
    160c:	09 80 00 00 	fbl  160c <_trap_table-0x3fffe9f4>
    1610:	00 86 0b 00 	bn  184210 <_trap_table-0x3fe7bdf0>
    1614:	00 01 75 17 	unimp  0x17517
    1618:	00 18 00 00 	unimp  0x180000
    161c:	09 a8 f0 02 	fbl  ffa3d624 <LEON_REG+0x7fa3d624>
    1620:	02 71 16 00 	unknown
    1624:	00 02 56 02 	unimp  0x25602
    1628:	02 6f 00 00 	unknown
    162c:	09 a8 02 23 	fbl  ffa01eb8 <LEON_REG+0x7fa01eb8>
    1630:	00 16 00 00 	unimp  0x160000
    1634:	02 d7 02 02 	unknown
    1638:	70 00 00 09 	call  c000165c <LEON_REG+0x4000165c>
    163c:	b8 02 23 78 	add  %o0, 0x378, %i4
    1640:	00 0a 00 00 	unimp  0xa0000
    1644:	09 b8 00 00 	fbl  ffe01644 <LEON_REG+0x7fe01644>
    1648:	04 23 0b 00 	unknown
    164c:	00 01 75 1d 	unimp  0x1751d
    1650:	00 0a 00 00 	unimp  0xa0000
    1654:	09 c8 00 00 	cb1  201654 <_trap_table-0x3fdfe9ac>
    1658:	09 42 0b 00 	unknown
    165c:	00 01 75 1d 	unimp  0x1751d
    1660:	00 19 00 00 	unimp  0x190000
    1664:	09 ea f0 02 	cb1  ffabd66c <LEON_REG+0x7fabd66c>
    1668:	02 72 1a 00 	unknown
    166c:	00 05 72 02 	unimp  0x57202
    1670:	02 68 00 00 	unknown
    1674:	08 22 1a 00 	unknown
    1678:	00 04 4c 02 	unimp  0x44c02
    167c:	02 71 00 00 	unknown
    1680:	09 80 00 0a 	fbl  16a8 <_trap_table-0x3fffe958>
    1684:	00 00 09 fa 	unimp  0x9fa
    1688:	00 00 00 86 	unimp  0x86
    168c:	0b 00 00 01 	sethi  %hi(0x400), %g5
    1690:	75 18 00 1b 	call  d46016fc <LEON_REG+0x546016fc>
    1694:	00 00 0a 06 	unimp  0xa06
    1698:	01 14 00 00 	sethi  %hi(0x50000000), %g0
    169c:	07 77 00 07 	unknown
    16a0:	04 00 00 09 	unknown
    16a4:	fa 07 04 00 	ld  [ %i4 ], %i5
    16a8:	00 02 9b 1b 	unimp  0x29b1b
    16ac:	00 00 0a 1e 	unimp  0xa1e
    16b0:	01 14 00 00 	sethi  %hi(0x50000000), %g0
    16b4:	00 30 00 07 	unimp  0xfff00007
    16b8:	04 00 00 0a 	unknown
    16bc:	24 07 04 00 	unknown
    16c0:	00 0a 12 0a 	unimp  0xa120a
    16c4:	00 00 0a 3a 	unimp  0xa3a
    16c8:	00 00 07 7d 	unimp  0x77d
    16cc:	0b 00 00 01 	sethi  %hi(0x400), %g5
    16d0:	75 02 00 1c 	call  d4081740 <LEON_REG+0x54081740>
    16d4:	00 00 01 b7 	unimp  0x1b7
    16d8:	01 10 00 00 	sethi  %hi(0x40000000), %g0
    16dc:	07 77 01 05 	unknown
    16e0:	03 40 00 17 	unknown
    16e4:	70 1c 00 00 	call  c07016e4 <LEON_REG+0x407016e4>
    16e8:	01 b0 01 11 	fbn  ffc01b2c <LEON_REG+0x7fc01b2c>
    16ec:	00 00 0a 5e 	unimp  0xa5e
    16f0:	01 05 03 40 	sethi  %hi(0x140d0000), %g0
    16f4:	00 10 70 15 	unimp  0x107015
    16f8:	00 00 07 77 	unimp  0x777
    16fc:	1d 00 00 05 	sethi  %hi(0x1400), %sp
    1700:	bb 01 0c 00 	unknown
    1704:	00 06 1a 05 	unimp  0x61a05
    1708:	03 40 00 12 	unknown
    170c:	20 00 00 00 	unknown
    1710:	00 c4 00 02 	unknown
    1714:	00 00 03 4f 	unimp  0x34f
    1718:	04 01 00 00 	unknown
    171c:	04 8d 40 00 	ble  35171c <_trap_table-0x3fcae8e4>
    1720:	02 80 40 00 	be  11720 <_trap_table-0x3ffee8e0>
    1724:	02 98 2e 2e 	be  60cfdc <_trap_table-0x3f9f3024>
    1728:	2f 2e 2e 2f 	sethi  %hi(0xb8b8bc00), %l7
    172c:	2e 2e 2f 2e 	unknown
    1730:	2e 2f 2e 2e 	unknown
    1734:	2f 6e 65 77 	unknown
    1738:	6c 69 62 2d 	call  b1a59fec <LEON_REG+0x31a59fec>
    173c:	31 2e 31 33 	sethi  %hi(0xb8c4cc00), %i0
    1740:	2e 30 2f 6c 	unknown
    1744:	69 62 67 6c 	call  a589b4f4 <LEON_REG+0x2589b4f4>
    1748:	6f 73 73 2f 	call  bdcde404 <LEON_REG+0x3dcde404>
    174c:	73 70 61 72 	call  cdc19d14 <LEON_REG+0x4dc19d14>
    1750:	63 5f 6c 65 	call  8d7dc8e4 <LEON_REG+0xd7dc8e4>
    1754:	6f 6e 2f 62 	call  bdb8d4dc <LEON_REG+0x3db8d4dc>
    1758:	64 69 6e 69 	call  91a5d0fc <LEON_REG+0x11a5d0fc>
    175c:	74 2e 53 00 	call  d0b9635c <LEON_REG+0x50b9635c>
    1760:	2f 68 6f 6d 	unknown
    1764:	65 2f 62 75 	call  94bda138 <LEON_REG+0x14bda138>
    1768:	69 6c 64 2f 	call  a5b1a824 <LEON_REG+0x25b1a824>
    176c:	62 63 63 2f 	call  898da428 <LEON_REG+0x98da428>
    1770:	42 43 43 5f 	call  90d24ec <_trap_table-0x36f2db14>
    1774:	52 45 50 2f 	call  49155830 <__JCR_END__+0x9153d08>
    1778:	67 63 63 2d 	call  9d8da42c <LEON_REG+0x1d8da42c>
    177c:	33 2e 34 2e 	sethi  %hi(0xb8d0b800), %i1
    1780:	34 2d 6d 69 	unknown
    1784:	6e 67 77 2d 	call  b99df438 <LEON_REG+0x399df438>
    1788:	31 2e 30 2e 	sethi  %hi(0xb8c0b800), %i0
    178c:	34 36 6e 65 	unknown
    1790:	77 6c 69 62 	call  ddb1bd18 <LEON_REG+0x5db1bd18>
    1794:	2d 31 2e 31 	sethi  %hi(0xc4b8c400), %l6
    1798:	33 2e 30 2d 	sethi  %hi(0xb8c0b400), %i1
    179c:	62 75 69 6c 	call  89d5bd4c <LEON_REG+0x9d5bd4c>
    17a0:	64 2f 73 70 	call  90bde560 <LEON_REG+0x10bde560>
    17a4:	61 72 63 2d 	call  85c9a458 <LEON_REG+0x5c9a458>
    17a8:	65 6c 66 2f 	call  95b1b064 <LEON_REG+0x15b1b064>
    17ac:	73 6f 66 74 	call  cdbdb17c <LEON_REG+0x4dbdb17c>
    17b0:	2f 6c 69 62 	unknown
    17b4:	67 6c 6f 73 	call  9db1d580 <LEON_REG+0x1db1d580>
    17b8:	73 2f 73 70 	call  ccbde578 <LEON_REG+0x4cbde578>
    17bc:	61 72 63 5f 	call  85c9a538 <LEON_REG+0x5c9a538>
    17c0:	6c 65 6f 6e 	call  b195d578 <LEON_REG+0x3195d578>
    17c4:	00 47 4e 55 	unknown
    17c8:	20 41 53 20 	unknown
    17cc:	32 2e 31 39 	unknown
    17d0:	2e 35 31 00 	unknown
    17d4:	80 01 00 00 	add  %g4, %g0, %g0
    17d8:	00 4e 00 02 	unknown
    17dc:	00 00 03 63 	unimp  0x363
    17e0:	04 01 00 00 	unknown
    17e4:	04 fb 40 00 	unknown
    17e8:	02 a8 40 00 	be  ffa117e8 <LEON_REG+0x7fa117e8>
    17ec:	02 98 00 00 	be  6017ec <_trap_table-0x3f9fe814>
    17f0:	00 ab 01 00 	bn  ffac1bf0 <LEON_REG+0x7fac1bf0>
    17f4:	00 06 72 00 	unimp  0x67200
    17f8:	00 00 46 02 	unimp  0x4602
    17fc:	00 00 00 4a 	unimp  0x4a
    1800:	01 00 00 06 	sethi  %hi(0x1800), %g0
    1804:	65 01 04 01 	call  94042808 <LEON_REG+0x14042808>
    1808:	40 00 02 98 	call  2268 <_trap_table-0x3fffdd98>
    180c:	40 00 02 a8 	call  22ac <_trap_table-0x3fffdd54>
    1810:	01 5e 03 00 	unknown
    1814:	00 06 6b 01 	unimp  0x66b01
    1818:	03 00 00 00 	sethi  %hi(0), %g1
    181c:	4a 01 58 00 	call  2805781c <_trap_table-0x17fa87e4>
    1820:	04 69 6e 74 	unknown
    1824:	00 04 05 00 	unimp  0x40500
    1828:	00 00 00 cc 	unimp  0xcc
    182c:	00 02 00 00 	unimp  0x20000
    1830:	03 a8 04 01 	fbne  ffa02834 <LEON_REG+0x7fa02834>
    1834:	00 00 05 62 	unimp  0x562
    1838:	40 00 02 a8 	call  22d8 <_trap_table-0x3fffdd28>
    183c:	40 00 03 34 	call  250c <_trap_table-0x3fffdaf4>
    1840:	2e 2e 2f 2e 	unknown
    1844:	2e 2f 2e 2e 	unknown
    1848:	2f 2e 2e 2f 	sethi  %hi(0xb8b8bc00), %l7
    184c:	2e 2e 2f 6e 	unknown
    1850:	65 77 6c 69 	call  95ddc9f4 <LEON_REG+0x15ddc9f4>
    1854:	62 2d 31 2e 	call  88b4dd0c <LEON_REG+0x8b4dd0c>
    1858:	31 33 2e 30 	sethi  %hi(0xccb8c000), %i0
    185c:	2f 6c 69 62 	unknown
    1860:	67 6c 6f 73 	call  9db1d62c <LEON_REG+0x1db1d62c>
    1864:	73 2f 73 70 	call  ccbde624 <LEON_REG+0x4cbde624>
    1868:	61 72 63 5f 	call  85c9a5e4 <LEON_REG+0x5c9a5e4>
    186c:	6c 65 6f 6e 	call  b195d624 <LEON_REG+0x3195d624>
    1870:	2f 6c 6f 63 	unknown
    1874:	6f 72 65 5f 	call  bdc9adf0 <LEON_REG+0x3dc9adf0>
    1878:	73 76 74 64 	call  cdd9ea08 <LEON_REG+0x4dd9ea08>
    187c:	69 73 70 2e 	call  a5cdd934 <LEON_REG+0x25cdd934>
    1880:	53 00 2f 68 	call  4c00d620 <__JCR_END__+0xc00baf8>
    1884:	6f 6d 65 2f 	call  bdb5ad40 <LEON_REG+0x3db5ad40>
    1888:	62 75 69 6c 	call  89d5be38 <LEON_REG+0x9d5be38>
    188c:	64 2f 62 63 	call  90bda218 <LEON_REG+0x10bda218>
    1890:	63 2f 42 43 	call  8cbd219c <LEON_REG+0xcbd219c>
    1894:	43 5f 52 45 	call  d7d61a8 <_trap_table-0x32829e58>
    1898:	50 2f 67 63 	call  40bdb624 <__JCR_END__+0xbd9afc>
    189c:	63 2d 33 2e 	call  8cb4e554 <LEON_REG+0xcb4e554>
    18a0:	34 2e 34 2d 	unknown
    18a4:	6d 69 6e 67 	call  b5a5d240 <LEON_REG+0x35a5d240>
    18a8:	77 2d 31 2e 	call  dcb4dd60 <LEON_REG+0x5cb4dd60>
    18ac:	30 2e 34 36 	unknown
    18b0:	6e 65 77 6c 	call  b995f660 <LEON_REG+0x3995f660>
    18b4:	69 62 2d 31 	call  a588cd78 <LEON_REG+0x2588cd78>
    18b8:	2e 31 33 2e 	unknown
    18bc:	30 2d 62 75 	unknown
    18c0:	69 6c 64 2f 	call  a5b1a97c <LEON_REG+0x25b1a97c>
    18c4:	73 70 61 72 	call  cdc19e8c <LEON_REG+0x4dc19e8c>
    18c8:	63 2d 65 6c 	call  8cb5ae78 <LEON_REG+0xcb5ae78>
    18cc:	66 2f 73 6f 	call  98bde688 <LEON_REG+0x18bde688>
    18d0:	66 74 2f 6c 	call  99d0d680 <LEON_REG+0x19d0d680>
    18d4:	69 62 67 6c 	call  a589b684 <LEON_REG+0x2589b684>
    18d8:	6f 73 73 2f 	call  bdcde594 <LEON_REG+0x3dcde594>
    18dc:	73 70 61 72 	call  cdc19ea4 <LEON_REG+0x4dc19ea4>
    18e0:	63 5f 6c 65 	call  8d7dca74 <LEON_REG+0xd7dca74>
    18e4:	6f 6e 00 47 	call  bdb81a00 <LEON_REG+0x3db81a00>
    18e8:	4e 55 20 41 	call  395499ec <_trap_table-0x6ab6614>
    18ec:	53 20 32 2e 	call  4c80e1a4 <__JCR_END__+0xc80c67c>
    18f0:	31 39 2e 35 	sethi  %hi(0xe4b8d400), %i0
    18f4:	31 00 80 01 	sethi  %hi(0x2000400), %i0
    18f8:	00 00 00 ce 	unimp  0xce
    18fc:	00 02 00 00 	unimp  0x20000
    1900:	03 bc 04 01 	fbne  fff02904 <LEON_REG+0x7ff02904>
    1904:	00 00 05 f5 	unimp  0x5f5
    1908:	40 00 03 34 	call  25d8 <_trap_table-0x3fffda28>
    190c:	40 00 03 94 	call  275c <_trap_table-0x3fffd8a4>
    1910:	2e 2e 2f 2e 	unknown
    1914:	2e 2f 2e 2e 	unknown
    1918:	2f 2e 2e 2f 	sethi  %hi(0xb8b8bc00), %l7
    191c:	2e 2e 2f 6e 	unknown
    1920:	65 77 6c 69 	call  95ddcac4 <LEON_REG+0x15ddcac4>
    1924:	62 2d 31 2e 	call  88b4dddc <LEON_REG+0x8b4dddc>
    1928:	31 33 2e 30 	sethi  %hi(0xccb8c000), %i0
    192c:	2f 6c 69 62 	unknown
    1930:	67 6c 6f 73 	call  9db1d6fc <LEON_REG+0x1db1d6fc>
    1934:	73 2f 73 70 	call  ccbde6f4 <LEON_REG+0x4cbde6f4>
    1938:	61 72 63 5f 	call  85c9a6b4 <LEON_REG+0x5c9a6b4>
    193c:	6c 65 6f 6e 	call  b195d6f4 <LEON_REG+0x3195d6f4>
    1940:	2f 6c 6f 63 	unknown
    1944:	6f 72 65 5f 	call  bdc9aec0 <LEON_REG+0x3dc9aec0>
    1948:	73 76 74 5f 	call  cdd9eac4 <LEON_REG+0x4dd9eac4>
    194c:	72 65 73 65 	call  c995e6e0 <LEON_REG+0x4995e6e0>
    1950:	74 2e 53 00 	call  d0b96550 <LEON_REG+0x50b96550>
    1954:	2f 68 6f 6d 	unknown
    1958:	65 2f 62 75 	call  94bda32c <LEON_REG+0x14bda32c>
    195c:	69 6c 64 2f 	call  a5b1aa18 <LEON_REG+0x25b1aa18>
    1960:	62 63 63 2f 	call  898da61c <LEON_REG+0x98da61c>
    1964:	42 43 43 5f 	call  90d26e0 <_trap_table-0x36f2d920>
    1968:	52 45 50 2f 	call  49155a24 <__JCR_END__+0x9153efc>
    196c:	67 63 63 2d 	call  9d8da620 <LEON_REG+0x1d8da620>
    1970:	33 2e 34 2e 	sethi  %hi(0xb8d0b800), %i1
    1974:	34 2d 6d 69 	unknown
    1978:	6e 67 77 2d 	call  b99df62c <LEON_REG+0x399df62c>
    197c:	31 2e 30 2e 	sethi  %hi(0xb8c0b800), %i0
    1980:	34 36 6e 65 	unknown
    1984:	77 6c 69 62 	call  ddb1bf0c <LEON_REG+0x5db1bf0c>
    1988:	2d 31 2e 31 	sethi  %hi(0xc4b8c400), %l6
    198c:	33 2e 30 2d 	sethi  %hi(0xb8c0b400), %i1
    1990:	62 75 69 6c 	call  89d5bf40 <LEON_REG+0x9d5bf40>
    1994:	64 2f 73 70 	call  90bde754 <LEON_REG+0x10bde754>
    1998:	61 72 63 2d 	call  85c9a64c <LEON_REG+0x5c9a64c>
    199c:	65 6c 66 2f 	call  95b1b258 <LEON_REG+0x15b1b258>
    19a0:	73 6f 66 74 	call  cdbdb370 <LEON_REG+0x4dbdb370>
    19a4:	2f 6c 69 62 	unknown
    19a8:	67 6c 6f 73 	call  9db1d774 <LEON_REG+0x1db1d774>
    19ac:	73 2f 73 70 	call  ccbde76c <LEON_REG+0x4cbde76c>
    19b0:	61 72 63 5f 	call  85c9a72c <LEON_REG+0x5c9a72c>
    19b4:	6c 65 6f 6e 	call  b195d76c <LEON_REG+0x3195d76c>
    19b8:	00 47 4e 55 	unknown
    19bc:	20 41 53 20 	unknown
    19c0:	32 2e 31 39 	unknown
    19c4:	2e 35 31 00 	unknown
    19c8:	80 01 00 00 	add  %g4, %g0, %g0
    19cc:	00 c8 00 02 	unknown
    19d0:	00 00 03 d0 	unimp  0x3d0
    19d4:	04 01 00 00 	unknown
    19d8:	06 7c 40 00 	unknown
    19dc:	03 f4 40 00 	cb123  ffd119dc <LEON_REG+0x7fd119dc>
    19e0:	03 94 00 00 	fbne  5019e0 <_trap_table-0x3fafe620>
    19e4:	00 ab 01 00 	bn  ffac1de4 <LEON_REG+0x7fac1de4>
    19e8:	00 06 ab 00 	unimp  0x6ab00
    19ec:	00 00 46 02 	unimp  0x4602
    19f0:	00 00 00 18 	unimp  0x18
    19f4:	04 07 02 00 	unknown
    19f8:	00 00 18 04 	unimp  0x1804
    19fc:	07 03 69 6e 	sethi  %hi(0xda5b800), %g3
    1a00:	74 00 04 05 	call  d0002a14 <LEON_REG+0x50002a14>
    1a04:	04 00 00 07 	unknown
    1a08:	02 02 24 00 	unknown
    1a0c:	00 00 45 05 	unimp  0x4505
    1a10:	04 00 00 00 	unknown
    1a14:	4b 06 01 00 	call  2c181e14 <_trap_table-0x13e7e1ec>
    1a18:	00 00 33 02 	unimp  0x3302
    1a1c:	00 00 00 09 	unimp  0x9
    1a20:	01 06 02 00 	sethi  %hi(0x18080000), %g0
    1a24:	00 00 2a 04 	unimp  0x2a04
    1a28:	05 02 00 00 	sethi  %hi(0x8000000), %g2
    1a2c:	00 25 08 05 	unimp  0xffe50805
    1a30:	02 00 00 00 	unknown
    1a34:	00 01 08 02 	unimp  0x10802
    1a38:	00 00 00 13 	unimp  0x13
    1a3c:	04 07 02 00 	unknown
    1a40:	00 00 bf 02 	unimp  0xbf02
    1a44:	05 02 00 00 	sethi  %hi(0x8000000), %g2
    1a48:	00 33 02 07 	unimp  0xfff30207
    1a4c:	02 00 00 00 	unknown
    1a50:	0e 08 07 07 	unknown
    1a54:	00 00 00 ab 	unimp  0xab
    1a58:	01 00 00 07 	sethi  %hi(0x1c00), %g0
    1a5c:	25 01 07 40 	sethi  %hi(0x41d0000), %l2
    1a60:	00 03 94 40 	unimp  0x39440
    1a64:	00 03 f4 01 	unimp  0x3f401
    1a68:	6e 08 70 00 	call  b821da68 <LEON_REG+0x3821da68>
    1a6c:	01 09 00 00 	sethi  %hi(0x24000000), %g0
    1a70:	00 ab 01 60 	bn  ffac1ff0 <LEON_REG+0x7fac1ff0>
    1a74:	00 05 04 00 	unimp  0x50400
    1a78:	00 00 3a 09 	unimp  0x3a09
    1a7c:	00 00 06 e8 	unimp  0x6e8
    1a80:	02 25 00 00 	unknown
    1a84:	00 3a 01 01 	unimp  0xfffa0101
    1a88:	09 00 00 07 	sethi  %hi(0x1c00), %g4
    1a8c:	0d 02 26 00 	sethi  %hi(0x8980000), %g6
    1a90:	00 00 3a 01 	unimp  0x3a01
    1a94:	01 00 00 00 	nop 
    1a98:	00 c4 00 02 	unknown
    1a9c:	00 00 04 4e 	unimp  0x44e
    1aa0:	04 01 00 00 	unknown
    1aa4:	07 26 40 00 	sethi  %hi(0x99000000), %g3
    1aa8:	03 f4 40 00 	cb123  ffd11aa8 <LEON_REG+0x7fd11aa8>
    1aac:	04 c0 2e 2e 	unknown
    1ab0:	2f 2e 2e 2f 	sethi  %hi(0xb8b8bc00), %l7
    1ab4:	2e 2e 2f 2e 	unknown
    1ab8:	2e 2f 2e 2e 	unknown
    1abc:	2f 6e 65 77 	unknown
    1ac0:	6c 69 62 2d 	call  b1a5a374 <LEON_REG+0x31a5a374>
    1ac4:	31 2e 31 33 	sethi  %hi(0xb8c4cc00), %i0
    1ac8:	2e 30 2f 6c 	unknown
    1acc:	69 62 67 6c 	call  a589b87c <LEON_REG+0x2589b87c>
    1ad0:	6f 73 73 2f 	call  bdcde78c <LEON_REG+0x3dcde78c>
    1ad4:	73 70 61 72 	call  cdc1a09c <LEON_REG+0x4dc1a09c>
    1ad8:	63 5f 6c 65 	call  8d7dcc6c <LEON_REG+0xd7dcc6c>
    1adc:	6f 6e 2f 72 	call  bdb8d8a4 <LEON_REG+0x3db8d8a4>
    1ae0:	65 67 77 69 	call  959df884 <LEON_REG+0x159df884>
    1ae4:	6e 2e 53 00 	call  b8b966e4 <LEON_REG+0x38b966e4>
    1ae8:	2f 68 6f 6d 	unknown
    1aec:	65 2f 62 75 	call  94bda4c0 <LEON_REG+0x14bda4c0>
    1af0:	69 6c 64 2f 	call  a5b1abac <LEON_REG+0x25b1abac>
    1af4:	62 63 63 2f 	call  898da7b0 <LEON_REG+0x98da7b0>
    1af8:	42 43 43 5f 	call  90d2874 <_trap_table-0x36f2d78c>
    1afc:	52 45 50 2f 	call  49155bb8 <__JCR_END__+0x9154090>
    1b00:	67 63 63 2d 	call  9d8da7b4 <LEON_REG+0x1d8da7b4>
    1b04:	33 2e 34 2e 	sethi  %hi(0xb8d0b800), %i1
    1b08:	34 2d 6d 69 	unknown
    1b0c:	6e 67 77 2d 	call  b99df7c0 <LEON_REG+0x399df7c0>
    1b10:	31 2e 30 2e 	sethi  %hi(0xb8c0b800), %i0
    1b14:	34 36 6e 65 	unknown
    1b18:	77 6c 69 62 	call  ddb1c0a0 <LEON_REG+0x5db1c0a0>
    1b1c:	2d 31 2e 31 	sethi  %hi(0xc4b8c400), %l6
    1b20:	33 2e 30 2d 	sethi  %hi(0xb8c0b400), %i1
    1b24:	62 75 69 6c 	call  89d5c0d4 <LEON_REG+0x9d5c0d4>
    1b28:	64 2f 73 70 	call  90bde8e8 <LEON_REG+0x10bde8e8>
    1b2c:	61 72 63 2d 	call  85c9a7e0 <LEON_REG+0x5c9a7e0>
    1b30:	65 6c 66 2f 	call  95b1b3ec <LEON_REG+0x15b1b3ec>
    1b34:	73 6f 66 74 	call  cdbdb504 <LEON_REG+0x4dbdb504>
    1b38:	2f 6c 69 62 	unknown
    1b3c:	67 6c 6f 73 	call  9db1d908 <LEON_REG+0x1db1d908>
    1b40:	73 2f 73 70 	call  ccbde900 <LEON_REG+0x4cbde900>
    1b44:	61 72 63 5f 	call  85c9a8c0 <LEON_REG+0x5c9a8c0>
    1b48:	6c 65 6f 6e 	call  b195d900 <LEON_REG+0x3195d900>
    1b4c:	00 47 4e 55 	unknown
    1b50:	20 41 53 20 	unknown
    1b54:	32 2e 31 39 	unknown
    1b58:	2e 35 31 00 	unknown
    1b5c:	80 01 00 00 	add  %g4, %g0, %g0
    1b60:	00 c9 00 02 	unknown
    1b64:	00 00 04 62 	unimp  0x462
    1b68:	04 01 00 00 	unknown
    1b6c:	07 d1 40 00 	cb13  451b6c <_trap_table-0x3fbae494>
    1b70:	04 c0 40 00 	unknown
    1b74:	06 f0 2e 2e 	unknown
    1b78:	2f 2e 2e 2f 	sethi  %hi(0xb8b8bc00), %l7
    1b7c:	2e 2e 2f 2e 	unknown
    1b80:	2e 2f 2e 2e 	unknown
    1b84:	2f 6e 65 77 	unknown
    1b88:	6c 69 62 2d 	call  b1a5a43c <LEON_REG+0x31a5a43c>
    1b8c:	31 2e 31 33 	sethi  %hi(0xb8c4cc00), %i0
    1b90:	2e 30 2f 6c 	unknown
    1b94:	69 62 67 6c 	call  a589b944 <LEON_REG+0x2589b944>
    1b98:	6f 73 73 2f 	call  bdcde854 <LEON_REG+0x3dcde854>
    1b9c:	73 70 61 72 	call  cdc1a164 <LEON_REG+0x4dc1a164>
    1ba0:	63 5f 6c 65 	call  8d7dcd34 <LEON_REG+0xd7dcd34>
    1ba4:	6f 6e 2f 72 	call  bdb8d96c <LEON_REG+0x3db8d96c>
    1ba8:	65 67 77 69 	call  959df94c <LEON_REG+0x159df94c>
    1bac:	6e 66 6c 75 	call  b999cd80 <LEON_REG+0x3999cd80>
    1bb0:	73 68 2e 53 	call  cda0d4fc <LEON_REG+0x4da0d4fc>
    1bb4:	00 2f 68 6f 	unimp  0xffef686f
    1bb8:	6d 65 2f 62 	call  b594d940 <LEON_REG+0x3594d940>
    1bbc:	75 69 6c 64 	call  d5a5cd4c <LEON_REG+0x55a5cd4c>
    1bc0:	2f 62 63 63 	unknown
    1bc4:	2f 42 43 43 	unknown
    1bc8:	5f 52 45 50 	call  7d493108 <__JCR_END__+0x3d4915e0>
    1bcc:	2f 67 63 63 	unknown
    1bd0:	2d 33 2e 34 	sethi  %hi(0xccb8d000), %l6
    1bd4:	2e 34 2d 6d 	unknown
    1bd8:	69 6e 67 77 	call  a5b9b9b4 <LEON_REG+0x25b9b9b4>
    1bdc:	2d 31 2e 30 	sethi  %hi(0xc4b8c000), %l6
    1be0:	2e 34 36 6e 	unknown
    1be4:	65 77 6c 69 	call  95ddcd88 <LEON_REG+0x15ddcd88>
    1be8:	62 2d 31 2e 	call  88b4e0a0 <LEON_REG+0x8b4e0a0>
    1bec:	31 33 2e 30 	sethi  %hi(0xccb8c000), %i0
    1bf0:	2d 62 75 69 	unknown
    1bf4:	6c 64 2f 73 	call  b190d9c0 <LEON_REG+0x3190d9c0>
    1bf8:	70 61 72 63 	call  c185e584 <LEON_REG+0x4185e584>
    1bfc:	2d 65 6c 66 	unknown
    1c00:	2f 73 6f 66 	unknown
    1c04:	74 2f 6c 69 	call  d0bdcda8 <LEON_REG+0x50bdcda8>
    1c08:	62 67 6c 6f 	call  899dcdc4 <LEON_REG+0x99dcdc4>
    1c0c:	73 73 2f 73 	call  cdccd9d8 <LEON_REG+0x4dccd9d8>
    1c10:	70 61 72 63 	call  c185e59c <LEON_REG+0x4185e59c>
    1c14:	5f 6c 65 6f 	call  7db1b1d0 <__JCR_END__+0x3db196a8>
    1c18:	6e 00 47 4e 	call  b8013950 <LEON_REG+0x38013950>
    1c1c:	55 20 41 53 	call  54812168 <__JCR_END__+0x14810640>
    1c20:	20 32 2e 31 	unknown
    1c24:	39 2e 35 31 	sethi  %hi(0xb8d4c400), %i4
    1c28:	00 80 01 00 	bn  2028 <_trap_table-0x3fffdfd8>
    1c2c:	00 00 ca 00 	unimp  0xca00
    1c30:	02 00 00 04 	unknown
    1c34:	76 04 01 00 	call  d8102034 <LEON_REG+0x58102034>
    1c38:	00 08 b3 40 	unimp  0x8b340
    1c3c:	00 06 f0 40 	unimp  0x6f040
    1c40:	00 07 90 2e 	unimp  0x7902e
    1c44:	2e 2f 2e 2e 	unknown
    1c48:	2f 2e 2e 2f 	sethi  %hi(0xb8b8bc00), %l7
    1c4c:	2e 2e 2f 2e 	unknown
    1c50:	2e 2f 6e 65 	unknown
    1c54:	77 6c 69 62 	call  ddb1c1dc <LEON_REG+0x5db1c1dc>
    1c58:	2d 31 2e 31 	sethi  %hi(0xc4b8c400), %l6
    1c5c:	33 2e 30 2f 	sethi  %hi(0xb8c0bc00), %i1
    1c60:	6c 69 62 67 	call  b1a5a5fc <LEON_REG+0x31a5a5fc>
    1c64:	6c 6f 73 73 	call  b1bdea30 <LEON_REG+0x31bdea30>
    1c68:	2f 73 70 61 	unknown
    1c6c:	72 63 5f 6c 	call  c98d9a1c <LEON_REG+0x498d9a1c>
    1c70:	65 6f 6e 2f 	call  95bdd52c <LEON_REG+0x15bdd52c>
    1c74:	69 72 71 74 	call  a5c9e244 <LEON_REG+0x25c9e244>
    1c78:	72 61 70 5f 	call  c985ddf4 <LEON_REG+0x4985ddf4>
    1c7c:	66 61 73 74 	call  9985ea4c <LEON_REG+0x1985ea4c>
    1c80:	2e 53 00 2f 	unknown
    1c84:	68 6f 6d 65 	call  a1bdd218 <LEON_REG+0x21bdd218>
    1c88:	2f 62 75 69 	unknown
    1c8c:	6c 64 2f 62 	call  b190da14 <LEON_REG+0x3190da14>
    1c90:	63 63 2f 42 	call  8d8cd998 <LEON_REG+0xd8cd998>
    1c94:	43 43 5f 52 	call  d0d99dc <_trap_table-0x32f26624>
    1c98:	45 50 2f 67 	call  1540da34 <_trap_table-0x2abf25cc>
    1c9c:	63 63 2d 33 	call  8d8cd168 <LEON_REG+0xd8cd168>
    1ca0:	2e 34 2e 34 	unknown
    1ca4:	2d 6d 69 6e 	unknown
    1ca8:	67 77 2d 31 	call  9ddcd16c <LEON_REG+0x1ddcd16c>
    1cac:	2e 30 2e 34 	unknown
    1cb0:	36 6e 65 77 	unknown
    1cb4:	6c 69 62 2d 	call  b1a5a568 <LEON_REG+0x31a5a568>
    1cb8:	31 2e 31 33 	sethi  %hi(0xb8c4cc00), %i0
    1cbc:	2e 30 2d 62 	unknown
    1cc0:	75 69 6c 64 	call  d5a5ce50 <LEON_REG+0x55a5ce50>
    1cc4:	2f 73 70 61 	unknown
    1cc8:	72 63 2d 65 	call  c98cd25c <LEON_REG+0x498cd25c>
    1ccc:	6c 66 2f 73 	call  b198da98 <LEON_REG+0x3198da98>
    1cd0:	6f 66 74 2f 	call  bd99ed8c <LEON_REG+0x3d99ed8c>
    1cd4:	6c 69 62 67 	call  b1a5a670 <LEON_REG+0x31a5a670>
    1cd8:	6c 6f 73 73 	call  b1bdeaa4 <LEON_REG+0x31bdeaa4>
    1cdc:	2f 73 70 61 	unknown
    1ce0:	72 63 5f 6c 	call  c98d9a90 <LEON_REG+0x498d9a90>
    1ce4:	65 6f 6e 00 	call  95bdd4e4 <LEON_REG+0x15bdd4e4>
    1ce8:	47 4e 55 20 	call  1d397168 <_trap_table-0x22c68e98>
    1cec:	41 53 20 32 	call  54c9db4 <_trap_table-0x3ab3624c>
    1cf0:	2e 31 39 2e 	unknown
    1cf4:	35 31 00 80 	sethi  %hi(0xc4020000), %i2
    1cf8:	01 00 00 05 	sethi  %hi(0x1400), %g0
    1cfc:	2d 00 02 00 	sethi  %hi(0x80000), %l6
    1d00:	00 04 8a 04 	unimp  0x48a04
    1d04:	01 00 00 09 	sethi  %hi(0x2400), %g0
    1d08:	41 40 00 09 	call  5001d2c <_trap_table-0x3affe2d4>
    1d0c:	c0 40 00 07 	unknown
    1d10:	90 00 00 00 	add  %g0, %g0, %o0
    1d14:	ab 01 00 00 	taddcc  %g4, %g0, %l5
    1d18:	08 aa 00 00 	bleu  ffa81d18 <LEON_REG+0x7fa81d18>
    1d1c:	00 46 02 00 	unknown
    1d20:	00 00 75 00 	unimp  0x7500
    1d24:	00 08 f4 50 	unimp  0x8f450
    1d28:	04 0b 03 70 	unknown
    1d2c:	73 72 00 04 	call  cdc81d3c <LEON_REG+0x4dc81d3c>
    1d30:	0c 00 00 00 	unknown
    1d34:	75 02 23 00 	call  d408a934 <LEON_REG+0x5408a934>
    1d38:	03 70 63 00 	unknown
    1d3c:	04 0d 00 00 	unknown
    1d40:	00 75 02 23 	unknown
    1d44:	04 03 6e 70 	unknown
    1d48:	63 00 04 0e 	call  8c002d80 <LEON_REG+0xc002d80>
    1d4c:	00 00 00 75 	unimp  0x75
    1d50:	02 23 08 03 	unknown
    1d54:	79 00 04 0f 	call  e4002d90 <LEON_REG+0x64002d90>
    1d58:	00 00 00 75 	unimp  0x75
    1d5c:	02 23 0c 04 	unknown
    1d60:	00 00 07 79 	unimp  0x779
    1d64:	04 10 00 00 	unknown
    1d68:	00 7c 02 23 	unknown
    1d6c:	10 00 05 00 	unknown
    1d70:	00 00 13 04 	unimp  0x1304
    1d74:	07 06 00 00 	sethi  %hi(0x18000000), %g3
    1d78:	00 8c 00 00 	bn  301d78 <_trap_table-0x3fcfe288>
    1d7c:	00 75 07 00 	unknown
    1d80:	00 00 8c 0f 	unimp  0x8c0f
    1d84:	00 05 00 00 	unimp  0x50000
    1d88:	00 18 04 07 	unimp  0x180407
    1d8c:	05 00 00 00 	sethi  %hi(0), %g2
    1d90:	09 01 06 08 	sethi  %hi(0x4182000), %g4
    1d94:	00 00 01 a3 	unimp  0x1a3
    1d98:	80 05 01 27 	unknown
    1d9c:	09 00 00 08 	sethi  %hi(0x2000), %g4
    1da0:	ed 05 01 16 	ld  [ %l4 + %l6 ], %f22
    1da4:	00 00 01 a3 	unimp  0x1a3
    1da8:	02 23 00 09 	unknown
    1dac:	00 00 09 5c 	unimp  0x95c
    1db0:	05 01 17 00 	sethi  %hi(0x45c0000), %g2
    1db4:	00 01 a3 02 	unimp  0x1a302
    1db8:	23 04 09 00 	sethi  %hi(0x10240000), %l1
    1dbc:	00 07 98 05 	unimp  0x79805
    1dc0:	01 18 00 00 	sethi  %hi(0x60000000), %g0
    1dc4:	01 a3 02 23 	fbn  ff8c2650 <LEON_REG+0x7f8c2650>
    1dc8:	08 09 00 00 	unknown
    1dcc:	07 ff 05 01 	cb13  fffc31d0 <LEON_REG+0x7ffc31d0>
    1dd0:	19 00 00 01 	sethi  %hi(0x400), %o4
    1dd4:	a3 02 23 0c 	taddcc  %o0, 0x30c, %l1
    1dd8:	09 00 00 08 	sethi  %hi(0x2000), %g4
    1ddc:	6c 05 01 1a 	call  b0142244 <LEON_REG+0x30142244>
    1de0:	00 00 01 a3 	unimp  0x1a3
    1de4:	02 23 10 09 	unknown
    1de8:	00 00 08 76 	unimp  0x876
    1dec:	05 01 1b 00 	sethi  %hi(0x46c0000), %g2
    1df0:	00 01 a3 02 	unimp  0x1a302
    1df4:	23 14 09 00 	sethi  %hi(0x50240000), %l1
    1df8:	00 08 80 05 	unimp  0x88005
    1dfc:	01 1c 00 00 	sethi  %hi(0x70000000), %g0
    1e00:	01 a3 02 23 	fbn  ff8c268c <LEON_REG+0x7f8c268c>
    1e04:	18 09 00 00 	unknown
    1e08:	08 8a 05 01 	bleu  28320c <_trap_table-0x3fd7cdf4>
    1e0c:	1d 00 00 01 	sethi  %hi(0x400), %sp
    1e10:	a3 02 23 1c 	taddcc  %o0, 0x31c, %l1
    1e14:	09 00 00 07 	sethi  %hi(0x1c00), %g4
    1e18:	35 05 01 1e 	sethi  %hi(0x14047800), %i2
    1e1c:	00 00 01 a3 	unimp  0x1a3
    1e20:	02 23 20 09 	unknown
    1e24:	00 00 09 36 	unimp  0x936
    1e28:	05 01 1f 00 	sethi  %hi(0x47c0000), %g2
    1e2c:	00 01 a3 02 	unimp  0x1a302
    1e30:	23 24 09 00 	sethi  %hi(0x90240000), %l1
    1e34:	00 07 46 05 	unimp  0x74605
    1e38:	01 20 00 00 	sethi  %hi(0x80000000), %g0
    1e3c:	01 a3 02 23 	fbn  ff8c26c8 <LEON_REG+0x7f8c26c8>
    1e40:	28 09 00 00 	unknown
    1e44:	09 40 05 01 	unknown
    1e48:	21 00 00 01 	sethi  %hi(0x400), %l0
    1e4c:	a3 02 23 2c 	taddcc  %o0, 0x32c, %l1
    1e50:	09 00 00 07 	sethi  %hi(0x1c00), %g4
    1e54:	b6 05 01 22 	unknown
    1e58:	00 00 01 a3 	unimp  0x1a3
    1e5c:	02 23 30 09 	unknown
    1e60:	00 00 07 c0 	unimp  0x7c0
    1e64:	05 01 23 00 	sethi  %hi(0x48c0000), %g2
    1e68:	00 01 a3 02 	unimp  0x1a302
    1e6c:	23 34 09 00 	sethi  %hi(0xd0240000), %l1
    1e70:	00 07 ca 05 	unimp  0x7ca05
    1e74:	01 24 00 00 	sethi  %hi(0x90000000), %g0
    1e78:	01 a3 02 23 	fbn  ff8c2704 <LEON_REG+0x7f8c2704>
    1e7c:	38 09 00 00 	unknown
    1e80:	07 d4 05 01 	cb13  503284 <_trap_table-0x3fafcd7c>
    1e84:	25 00 00 01 	sethi  %hi(0x400), %l2
    1e88:	a3 02 23 3c 	taddcc  %o0, 0x33c, %l1
    1e8c:	09 00 00 08 	sethi  %hi(0x2000), %g4
    1e90:	94 05 01 26 	unknown
    1e94:	00 00 01 bf 	unimp  0x1bf
    1e98:	02 23 40 00 	unknown
    1e9c:	0a 00 00 01 	unknown
    1ea0:	a8 05 00 00 	add  %l4, %g0, %l4
    1ea4:	00 18 04 07 	unimp  0x180407
    1ea8:	06 00 00 01 	unknown
    1eac:	bf 00 00 01 	taddcc  %g0, %g1, %i7
    1eb0:	a3 07 00 00 	taddcc  %i4, %g0, %l1
    1eb4:	00 8c 0f 00 	bn  305ab4 <_trap_table-0x3fcfa54c>
    1eb8:	0a 00 00 01 	unknown
    1ebc:	af 0b 00 00 	tsubcc  %o4, %g0, %l7
    1ec0:	07 9f 05 01 	fbul  7c32c4 <_trap_table-0x3f83cd3c>
    1ec4:	27 00 00 00 	sethi  %hi(0), %l3
    1ec8:	9a 0c 69 6e 	and  %l1, 0x96e, %o5
    1ecc:	74 00 04 05 	call  d0002ee0 <LEON_REG+0x50002ee0>
    1ed0:	06 00 00 01 	unknown
    1ed4:	e7 00 00 01 	ld  [ %g0 + %g1 ], %f19
    1ed8:	a8 07 00 00 	add  %i4, %g0, %l4
    1edc:	00 8c 03 00 	bn  302adc <_trap_table-0x3fcfd524>
    1ee0:	0d 00 00 08 	sethi  %hi(0x2000), %g6
    1ee4:	27 03 0c 00 	sethi  %hi(0xc300000), %l3
    1ee8:	00 01 f2 0e 	unimp  0x1f20e
    1eec:	04 00 00 01 	unknown
    1ef0:	f8 0f 00 00 	ldub  [ %i4 ], %i4
    1ef4:	02 12 01 00 	unknown
    1ef8:	00 01 d0 10 	unimp  0x1d010
    1efc:	00 00 01 d0 	unimp  0x1d0
    1f00:	10 00 00 02 	unknown
    1f04:	12 10 00 00 	unknown
    1f08:	02 14 00 11 	unknown
    1f0c:	04 0e 04 00 	unknown
    1f10:	00 00 25 02 	unimp  0x2502
    1f14:	00 00 02 5f 	unimp  0x25f
    1f18:	00 00 09 05 	unimp  0x905
    1f1c:	10 03 0e 04 	unknown
    1f20:	00 00 09 6a 	unimp  0x96a
    1f24:	03 0f 00 00 	sethi  %hi(0x3c000000), %g1
    1f28:	01 e7 02 23 	cbn  ff9c27b4 <LEON_REG+0x7f9c27b4>
    1f2c:	00 04 00 00 	unimp  0x40000
    1f30:	02 12 03 10 	unknown
    1f34:	00 00 00 75 	unimp  0x75
    1f38:	02 23 04 04 	unknown
    1f3c:	00 00 07 3f 	unimp  0x73f
    1f40:	03 11 00 00 	sethi  %hi(0x44000000), %g1
    1f44:	02 12 02 23 	unknown
    1f48:	08 04 00 00 	unknown
    1f4c:	05 55 03 12 	unknown
    1f50:	00 00 02 5f 	unimp  0x25f
    1f54:	02 23 0c 00 	unknown
    1f58:	0e 04 00 00 	unknown
    1f5c:	02 1a 02 00 	unknown
    1f60:	00 02 8e 00 	unimp  0x28e00
    1f64:	00 07 e3 08 	unimp  0x7e308
    1f68:	03 16 04 00 	sethi  %hi(0x58100000), %g1
    1f6c:	00 07 de 03 	unimp  0x7de03
    1f70:	17 00 00 02 	sethi  %hi(0x800), %o3
    1f74:	8e 02 23 00 	add  %o0, 0x300, %g7
    1f78:	04 00 00 08 	unknown
    1f7c:	32 03 18 00 	unknown
    1f80:	00 01 d0 02 	unimp  0x1d002
    1f84:	23 04 00 0e 	sethi  %hi(0x10003800), %l1
    1f88:	04 00 00 01 	unknown
    1f8c:	d0 0d 00 00 	ldub  [ %l4 ], %o0
    1f90:	09 62 03 1e 	unknown
    1f94:	00 00 02 9f 	unimp  0x29f
    1f98:	0e 04 00 00 	unknown
    1f9c:	02 a5 0f 00 	be  ff945b9c <LEON_REG+0x7f945b9c>
    1fa0:	00 02 b5 01 	unimp  0x2b501
    1fa4:	00 00 01 d0 	unimp  0x1d0
    1fa8:	10 00 00 02 	unknown
    1fac:	14 00 12 00 	unknown
    1fb0:	00 02 e5 01 	unimp  0x2e501
    1fb4:	00 00 09 0f 	unimp  0x90f
    1fb8:	01 37 01 40 	sethi  %hi(0xdc050000), %g0
    1fbc:	00 07 90 40 	unimp  0x79040
    1fc0:	00 07 ac 01 	unimp  0x7ac01
    1fc4:	5e 13 69 72 	call  784dc58c <__JCR_END__+0x384daa64>
    1fc8:	71 00 01 37 	call  c40024a4 <LEON_REG+0x440024a4>
    1fcc:	00 00 01 d0 	unimp  0x1d0
    1fd0:	01 58 13 61 	unknown
    1fd4:	00 01 37 00 	unimp  0x13700
    1fd8:	00 02 5f 01 	unimp  0x25f01
    1fdc:	59 00 14 00 	call  64006fdc <__JCR_END__+0x240054b4>
    1fe0:	00 03 48 01 	unimp  0x34801
    1fe4:	00 00 09 17 	unimp  0x917
    1fe8:	01 24 01 00 	sethi  %hi(0x90040000), %g0
    1fec:	00 01 d0 40 	unimp  0x1d040
    1ff0:	00 07 ac 40 	unimp  0x7ac40
    1ff4:	00 08 1c 01 	unimp  0x81c01
    1ff8:	6e 15 00 00 	call  b8541ff8 <LEON_REG+0x38541ff8>
    1ffc:	02 0c 01 24 	unknown
    2000:	00 00 01 d0 	unimp  0x1d0
    2004:	01 68 13 69 	unknown
    2008:	72 71 00 01 	call  c9c4200c <LEON_REG+0x49c4200c>
    200c:	24 00 00 01 	unknown
    2010:	d0 01 58 16 	ld  [ %g5 + %l6 ], %o0
    2014:	61 00 01 25 	call  840024a8 <LEON_REG+0x40024a8>
    2018:	00 00 02 5f 	unimp  0x25f
    201c:	01 5c 16 6e 	unknown
    2020:	00 01 26 00 	unimp  0x12600
    2024:	00 02 5f 01 	unimp  0x25f01
    2028:	59 17 40 00 	call  645d2028 <__JCR_END__+0x245d0500>
    202c:	08 10 40 00 	unknown
    2030:	08 14 16 74 	unknown
    2034:	6d 70 00 01 	call  b5c02038 <LEON_REG+0x35c02038>
    2038:	2c 00 00 01 	unknown
    203c:	d0 01 51 00 	ld  [ %g5 ], %o0
    2040:	00 14 00 00 	unimp  0x140000
    2044:	03 89 01 00 	fbne  242444 <_trap_table-0x3fdbdbbc>
    2048:	00 08 1b 01 	unimp  0x81b01
    204c:	45 01 00 00 	call  1404204c <_trap_table-0x2bfbdfb4>
    2050:	01 d0 40 00 	cbn  412050 <_trap_table-0x3fbedfb0>
    2054:	08 1c 40 00 	unknown
    2058:	09 54 01 6e 	unknown
    205c:	13 69 72 71 	unknown
    2060:	00 01 45 00 	unimp  0x14500
    2064:	00 01 d0 01 	unimp  0x1d001
    2068:	68 15 00 00 	call  a0542068 <LEON_REG+0x20542068>
    206c:	08 fd 01 45 	unknown
    2070:	00 00 02 14 	unimp  0x214
    2074:	01 69 16 61 	unknown
    2078:	00 01 46 00 	unimp  0x14600
    207c:	00 02 5f 01 	unimp  0x25f01
    2080:	60 00 12 00 	call  80006880 <LEON_REG+0x6880>
    2084:	00 03 d0 01 	unimp  0x3d001
    2088:	00 00 07 ee 	unimp  0x7ee
    208c:	01 6a 01 40 	unknown
    2090:	00 09 54 40 	unimp  0x95440
    2094:	00 09 b4 01 	unimp  0x9b401
    2098:	6e 13 70 00 	call  b84de098 <LEON_REG+0x384de098>
    209c:	01 6a 00 00 	unknown
    20a0:	03 d0 01 68 	cb123  402640 <_trap_table-0x3fbfd9c0>
    20a4:	13 69 00 01 	unknown
    20a8:	6a 00 00 01 	call  a80020ac <LEON_REG+0x280020ac>
    20ac:	d0 01 69 13 	ld  [ %g5 + 0x913 ], %o0
    20b0:	61 72 67 00 	call  85c9bcb0 <LEON_REG+0x5c9bcb0>
    20b4:	01 6a 00 00 	unknown
    20b8:	01 d0 01 6a 	cbn  402660 <_trap_table-0x3fbfd9a0>
    20bc:	13 66 6e 00 	unknown
    20c0:	01 6a 00 00 	unknown
    20c4:	01 a8 01 6b 	fbn  ffa02670 <LEON_REG+0x7fa02670>
    20c8:	00 0e 04 00 	unimp  0xe0400
    20cc:	00 00 75 14 	unimp  0x7514
    20d0:	00 00 04 18 	unimp  0x418
    20d4:	01 00 00 08 	sethi  %hi(0x2000), %g0
    20d8:	4c 01 71 01 	call  3005e4dc <_trap_table-0xffa1b24>
    20dc:	00 00 00 75 	unimp  0x75
    20e0:	40 00 09 b4 	call  47b0 <_trap_table-0x3fffb850>
    20e4:	40 00 09 c0 	call  47e4 <_trap_table-0x3fffb81c>
    20e8:	01 5e 18 00 	unknown
    20ec:	00 04 18 40 	unimp  0x41840
    20f0:	00 09 b4 40 	unimp  0x9b440
    20f4:	00 09 b8 19 	unimp  0x9b819
    20f8:	00 00 04 2a 	unimp  0x42a
    20fc:	01 58 17 40 	unknown
    2100:	00 09 b4 40 	unimp  0x9b440
    2104:	00 09 b8 19 	unimp  0x9b819
    2108:	00 00 04 2a 	unimp  0x42a
    210c:	01 58 00 00 	unknown
    2110:	00 1a 00 00 	unimp  0x1a0000
    2114:	04 36 01 00 	unknown
    2118:	00 08 06 02 	unimp  0x80602
    211c:	1a 01 00 00 	unknown
    2120:	00 75 03 1b 	unknown
    2124:	00 00 07 80 	unimp  0x780
    2128:	02 1b 00 00 	unknown
    212c:	01 a8 00 1c 	fbn  ffa0219c <LEON_REG+0x7fa0219c>
    2130:	00 00 07 50 	unimp  0x750
    2134:	05 01 28 00 	sethi  %hi(0x4a00000), %g2
    2138:	00 04 44 01 	unimp  0x44401
    213c:	01 0e 04 00 	sethi  %hi(0x38100000), %g0
    2140:	00 04 4a 0a 	unimp  0x44a0a
    2144:	00 00 01 c4 	unimp  0x1c4
    2148:	1d 00 00 08 	sethi  %hi(0x2000), %sp
    214c:	37 06 0a 00 	sethi  %hi(0x18280000), %i3
    2150:	00 01 d0 01 	unimp  0x1d001
    2154:	01 1e 00 00 	sethi  %hi(0x78000000), %g0
    2158:	09 4a 01 61 	unknown
    215c:	00 00 02 94 	unimp  0x294
    2160:	01 05 03 40 	sethi  %hi(0x140d0000), %g0
    2164:	00 18 00 1e 	unimp  0x18001e
    2168:	00 00 09 27 	unimp  0x927
    216c:	01 3c 00 00 	sethi  %hi(0xf0000000), %g0
    2170:	01 d0 01 05 	cbn  402584 <_trap_table-0x3fbfda7c>
    2174:	03 40 00 18 	unknown
    2178:	8c 1f 01 1e 	unknown
    217c:	00 00 07 69 	unimp  0x769
    2180:	01 43 00 00 	unknown
    2184:	04 94 01 05 	ble  502598 <_trap_table-0x3fafda68>
    2188:	03 40 00 18 	unknown
    218c:	08 0e 04 00 	unknown
    2190:	00 04 80 1e 	unimp  0x4801e
    2194:	00 00 08 99 	unimp  0x899
    2198:	01 44 00 00 	unknown
    219c:	04 94 01 05 	ble  5025b0 <_trap_table-0x3fafda50>
    21a0:	03 40 00 18 	unknown
    21a4:	04 06 00 00 	unknown
    21a8:	04 bc 00 00 	ble  fff021a8 <LEON_REG+0x7ff021a8>
    21ac:	02 5f 07 00 	unknown
    21b0:	00 00 8c 1f 	unimp  0x8c1f
    21b4:	00 1e 00 00 	unimp  0x1e0000
    21b8:	07 90 01 1a 	fbul  402620 <_trap_table-0x3fbfd9e0>
    21bc:	00 00 04 ac 	unimp  0x4ac
    21c0:	01 05 03 40 	sethi  %hi(0x140d0000), %g0
    21c4:	00 1a 90 06 	unimp  0x1a9006
    21c8:	00 00 04 de 	unimp  0x4de
    21cc:	00 00 02 1a 	unimp  0x21a
    21d0:	07 00 00 00 	sethi  %hi(0), %g3
    21d4:	8c 1f 00 1e 	xor  %i4, %fp, %g6
    21d8:	00 00 07 87 	unimp  0x787
    21dc:	01 1b 00 00 	sethi  %hi(0x6c000000), %g0
    21e0:	04 ce 01 05 	unknown
    21e4:	03 40 00 18 	unknown
    21e8:	90 06 00 00 	add  %i0, %g0, %o0
    21ec:	05 00 00 00 	sethi  %hi(0), %g2
    21f0:	01 d0 07 00 	cbn  403df0 <_trap_table-0x3fbfc210>
    21f4:	00 00 8c 1f 	unimp  0x8c1f
    21f8:	00 1e 00 00 	unimp  0x1e0000
    21fc:	07 63 01 3d 	unknown
    2200:	00 00 04 f0 	unimp  0x4f0
    2204:	01 05 03 40 	sethi  %hi(0x140d0000), %g0
    2208:	00 18 0c 1d 	unimp  0x180c1d
    220c:	00 00 08 66 	unimp  0x866
    2210:	01 41 00 00 	unknown
    2214:	02 65 01 01 	unknown
    2218:	20 00 00 08 	unknown
    221c:	45 01 63 00 	call  1405ae1c <_trap_table-0x2bfa51e4>
    2220:	00 01 d7 05 	unimp  0x1d705
    2224:	03 40 00 17 	unknown
    2228:	a4 00 00 00 	add  %g0, %g0, %l2
    222c:	00 c6 00 02 	unknown
    2230:	00 00 06 37 	unimp  0x637
    2234:	04 01 00 00 	unknown
    2238:	0a 79 40 00 	unknown
    223c:	09 c0 40 00 	cb1  1223c <_trap_table-0x3ffeddc4>
    2240:	0a d0 2e 2e 	unknown
    2244:	2f 2e 2e 2f 	sethi  %hi(0xb8b8bc00), %l7
    2248:	2e 2e 2f 2e 	unknown
    224c:	2e 2f 2e 2e 	unknown
    2250:	2f 6e 65 77 	unknown
    2254:	6c 69 62 2d 	call  b1a5ab08 <LEON_REG+0x31a5ab08>
    2258:	31 2e 31 33 	sethi  %hi(0xb8c4cc00), %i0
    225c:	2e 30 2f 6c 	unknown
    2260:	69 62 67 6c 	call  a589c010 <LEON_REG+0x2589c010>
    2264:	6f 73 73 2f 	call  bdcdef20 <LEON_REG+0x3dcdef20>
    2268:	73 70 61 72 	call  cdc1a830 <LEON_REG+0x4dc1a830>
    226c:	63 5f 6c 65 	call  8d7dd400 <LEON_REG+0xd7dd400>
    2270:	6f 6e 2f 6c 	call  bdb8e020 <LEON_REG+0x3db8e020>
    2274:	63 70 75 69 	call  8dc1f818 <LEON_REG+0xdc1f818>
    2278:	6e 69 74 2e 	call  b9a5f330 <LEON_REG+0x39a5f330>
    227c:	53 00 2f 68 	call  4c00e01c <__JCR_END__+0xc00c4f4>
    2280:	6f 6d 65 2f 	call  bdb5b73c <LEON_REG+0x3db5b73c>
    2284:	62 75 69 6c 	call  89d5c834 <LEON_REG+0x9d5c834>
    2288:	64 2f 62 63 	call  90bdac14 <LEON_REG+0x10bdac14>
    228c:	63 2f 42 43 	call  8cbd2b98 <LEON_REG+0xcbd2b98>
    2290:	43 5f 52 45 	call  d7d6ba4 <_trap_table-0x3282945c>
    2294:	50 2f 67 63 	call  40bdc020 <__JCR_END__+0xbda4f8>
    2298:	63 2d 33 2e 	call  8cb4ef50 <LEON_REG+0xcb4ef50>
    229c:	34 2e 34 2d 	unknown
    22a0:	6d 69 6e 67 	call  b5a5dc3c <LEON_REG+0x35a5dc3c>
    22a4:	77 2d 31 2e 	call  dcb4e75c <LEON_REG+0x5cb4e75c>
    22a8:	30 2e 34 36 	unknown
    22ac:	6e 65 77 6c 	call  b996005c <LEON_REG+0x3996005c>
    22b0:	69 62 2d 31 	call  a588d774 <LEON_REG+0x2588d774>
    22b4:	2e 31 33 2e 	unknown
    22b8:	30 2d 62 75 	unknown
    22bc:	69 6c 64 2f 	call  a5b1b378 <LEON_REG+0x25b1b378>
    22c0:	73 70 61 72 	call  cdc1a888 <LEON_REG+0x4dc1a888>
    22c4:	63 2d 65 6c 	call  8cb5b874 <LEON_REG+0xcb5b874>
    22c8:	66 2f 73 6f 	call  98bdf084 <LEON_REG+0x18bdf084>
    22cc:	66 74 2f 6c 	call  99d0e07c <LEON_REG+0x19d0e07c>
    22d0:	69 62 67 6c 	call  a589c080 <LEON_REG+0x2589c080>
    22d4:	6f 73 73 2f 	call  bdcdef90 <LEON_REG+0x3dcdef90>
    22d8:	73 70 61 72 	call  cdc1a8a0 <LEON_REG+0x4dc1a8a0>
    22dc:	63 5f 6c 65 	call  8d7dd470 <LEON_REG+0xd7dd470>
    22e0:	6f 6e 00 47 	call  bdb823fc <LEON_REG+0x3db823fc>
    22e4:	4e 55 20 41 	call  3954a3e8 <_trap_table-0x6ab5c18>
    22e8:	53 20 32 2e 	call  4c80eba0 <__JCR_END__+0xc80d078>
    22ec:	31 39 2e 35 	sethi  %hi(0xe4b8d400), %i0
    22f0:	31 00 80 01 	sethi  %hi(0x2000400), %i0
    22f4:	00 00 00 87 	unimp  0x87
    22f8:	00 02 00 00 	unimp  0x20000
    22fc:	06 4b 04 01 	unknown
    2300:	00 00 0b 23 	unimp  0xb23
    2304:	40 00 0a d0 	call  4e44 <_trap_table-0x3fffb1bc>
    2308:	40 00 0a d0 	call  4e48 <_trap_table-0x3fffb1b8>
    230c:	00 00 00 ab 	unimp  0xab
    2310:	01 00 00 09 	sethi  %hi(0x2400), %g0
    2314:	7a 00 00 00 	call  e8002314 <LEON_REG+0x68002314>
    2318:	46 02 00 00 	call  18082318 <_trap_table-0x27f7dce8>
    231c:	00 18 04 07 	unimp  0x180407
    2320:	02 00 00 00 	unknown
    2324:	2a 04 05 03 	unknown
    2328:	69 6e 74 00 	call  a5b9f328 <LEON_REG+0x25b9f328>
    232c:	04 05 02 00 	unknown
    2330:	00 00 09 01 	unimp  0x901
    2334:	06 02 00 00 	unknown
    2338:	00 18 04 07 	unimp  0x180407
    233c:	02 00 00 00 	unknown
    2340:	25 08 05 02 	sethi  %hi(0x20140800), %l2
    2344:	00 00 00 00 	unimp  0
    2348:	01 08 02 00 	sethi  %hi(0x20080000), %g0
    234c:	00 00 13 04 	unimp  0x1304
    2350:	07 02 00 00 	sethi  %hi(0x8000000), %g3
    2354:	00 bf 02 05 	bn  fffc2b68 <LEON_REG+0x7ffc2b68>
    2358:	02 00 00 00 	unknown
    235c:	33 02 07 02 	sethi  %hi(0x81c0800), %i1
    2360:	00 00 00 0e 	unimp  0xe
    2364:	08 07 04 00 	unknown
    2368:	00 09 72 01 	unimp  0x97201
    236c:	19 00 00 00 	sethi  %hi(0), %o4
    2370:	84 01 05 03 	unknown
    2374:	40 00 17 bc 	call  8264 <_trap_table-0x3fff7d9c>
    2378:	05 04 00 00 	sethi  %hi(0x10000000), %g2
    237c:	00 33 00 00 	unimp  0xfff30000
    2380:	00 00 c4 00 	unimp  0xc400
    2384:	02 00 00 06 	unknown
    2388:	8f 04 01 00 	unknown
    238c:	00 0b 7e 40 	unimp  0xb7e40
    2390:	00 0a d0 40 	unimp  0xad040
    2394:	00 0b 78 2e 	unimp  0xb782e
    2398:	2e 2f 2e 2e 	unknown
    239c:	2f 2e 2e 2f 	sethi  %hi(0xb8b8bc00), %l7
    23a0:	2e 2e 2f 2e 	unknown
    23a4:	2e 2f 6e 65 	unknown
    23a8:	77 6c 69 62 	call  ddb1c930 <LEON_REG+0x5db1c930>
    23ac:	2d 31 2e 31 	sethi  %hi(0xc4b8c400), %l6
    23b0:	33 2e 30 2f 	sethi  %hi(0xb8c0bc00), %i1
    23b4:	6c 69 62 67 	call  b1a5ad50 <LEON_REG+0x31a5ad50>
    23b8:	6c 6f 73 73 	call  b1bdf184 <LEON_REG+0x31bdf184>
    23bc:	2f 73 70 61 	unknown
    23c0:	72 63 5f 6c 	call  c98da170 <LEON_REG+0x498da170>
    23c4:	65 6f 6e 2f 	call  95bddc80 <LEON_REG+0x15bddc80>
    23c8:	6c 6f 63 6f 	call  b1bdb184 <LEON_REG+0x31bdb184>
    23cc:	72 65 2e 53 	call  c994dd18 <LEON_REG+0x4994dd18>
    23d0:	00 2f 68 6f 	unimp  0xffef686f
    23d4:	6d 65 2f 62 	call  b594e15c <LEON_REG+0x3594e15c>
    23d8:	75 69 6c 64 	call  d5a5d568 <LEON_REG+0x55a5d568>
    23dc:	2f 62 63 63 	unknown
    23e0:	2f 42 43 43 	unknown
    23e4:	5f 52 45 50 	call  7d493924 <__JCR_END__+0x3d491dfc>
    23e8:	2f 67 63 63 	unknown
    23ec:	2d 33 2e 34 	sethi  %hi(0xccb8d000), %l6
    23f0:	2e 34 2d 6d 	unknown
    23f4:	69 6e 67 77 	call  a5b9c1d0 <LEON_REG+0x25b9c1d0>
    23f8:	2d 31 2e 30 	sethi  %hi(0xc4b8c000), %l6
    23fc:	2e 34 36 6e 	unknown
    2400:	65 77 6c 69 	call  95ddd5a4 <LEON_REG+0x15ddd5a4>
    2404:	62 2d 31 2e 	call  88b4e8bc <LEON_REG+0x8b4e8bc>
    2408:	31 33 2e 30 	sethi  %hi(0xccb8c000), %i0
    240c:	2d 62 75 69 	unknown
    2410:	6c 64 2f 73 	call  b190e1dc <LEON_REG+0x3190e1dc>
    2414:	70 61 72 63 	call  c185eda0 <LEON_REG+0x4185eda0>
    2418:	2d 65 6c 66 	unknown
    241c:	2f 73 6f 66 	unknown
    2420:	74 2f 6c 69 	call  d0bdd5c4 <LEON_REG+0x50bdd5c4>
    2424:	62 67 6c 6f 	call  899dd5e0 <LEON_REG+0x99dd5e0>
    2428:	73 73 2f 73 	call  cdcce1f4 <LEON_REG+0x4dcce1f4>
    242c:	70 61 72 63 	call  c185edb8 <LEON_REG+0x4185edb8>
    2430:	5f 6c 65 6f 	call  7db1b9ec <__JCR_END__+0x3db19ec4>
    2434:	6e 00 47 4e 	call  b801416c <LEON_REG+0x3801416c>
    2438:	55 20 41 53 	call  54812984 <__JCR_END__+0x14810e5c>
    243c:	20 32 2e 31 	unknown
    2440:	39 2e 35 31 	sethi  %hi(0xb8d4c400), %i4
    2444:	00 80 01 00 	bn  2844 <_trap_table-0x3fffd7bc>
    2448:	00 00 ca 00 	unimp  0xca00
    244c:	02 00 00 06 	unknown
    2450:	a3 04 01 00 	unknown
    2454:	00 0c 0d 40 	unimp  0xc0d40
    2458:	00 0b 78 40 	unimp  0xb7840
    245c:	00 0b 88 2e 	unimp  0xb882e
    2460:	2e 2f 2e 2e 	unknown
    2464:	2f 2e 2e 2f 	sethi  %hi(0xb8b8bc00), %l7
    2468:	2e 2e 2f 2e 	unknown
    246c:	2e 2f 6e 65 	unknown
    2470:	77 6c 69 62 	call  ddb1c9f8 <LEON_REG+0x5db1c9f8>
    2474:	2d 31 2e 31 	sethi  %hi(0xc4b8c400), %l6
    2478:	33 2e 30 2f 	sethi  %hi(0xb8c0bc00), %i1
    247c:	6c 69 62 67 	call  b1a5ae18 <LEON_REG+0x31a5ae18>
    2480:	6c 6f 73 73 	call  b1bdf24c <LEON_REG+0x31bdf24c>
    2484:	2f 73 70 61 	unknown
    2488:	72 63 5f 6c 	call  c98da238 <LEON_REG+0x498da238>
    248c:	65 6f 6e 2f 	call  95bddd48 <LEON_REG+0x15bddd48>
    2490:	6c 6f 63 6f 	call  b1bdb24c <LEON_REG+0x31bdb24c>
    2494:	72 65 5f 63 	call  c995a220 <LEON_REG+0x4995a220>
    2498:	6c 65 61 6e 	call  b195aa50 <LEON_REG+0x3195aa50>
    249c:	2e 53 00 2f 	unknown
    24a0:	68 6f 6d 65 	call  a1bdda34 <LEON_REG+0x21bdda34>
    24a4:	2f 62 75 69 	unknown
    24a8:	6c 64 2f 62 	call  b190e230 <LEON_REG+0x3190e230>
    24ac:	63 63 2f 42 	call  8d8ce1b4 <LEON_REG+0xd8ce1b4>
    24b0:	43 43 5f 52 	call  d0da1f8 <_trap_table-0x32f25e08>
    24b4:	45 50 2f 67 	call  1540e250 <_trap_table-0x2abf1db0>
    24b8:	63 63 2d 33 	call  8d8cd984 <LEON_REG+0xd8cd984>
    24bc:	2e 34 2e 34 	unknown
    24c0:	2d 6d 69 6e 	unknown
    24c4:	67 77 2d 31 	call  9ddcd988 <LEON_REG+0x1ddcd988>
    24c8:	2e 30 2e 34 	unknown
    24cc:	36 6e 65 77 	unknown
    24d0:	6c 69 62 2d 	call  b1a5ad84 <LEON_REG+0x31a5ad84>
    24d4:	31 2e 31 33 	sethi  %hi(0xb8c4cc00), %i0
    24d8:	2e 30 2d 62 	unknown
    24dc:	75 69 6c 64 	call  d5a5d66c <LEON_REG+0x55a5d66c>
    24e0:	2f 73 70 61 	unknown
    24e4:	72 63 2d 65 	call  c98cda78 <LEON_REG+0x498cda78>
    24e8:	6c 66 2f 73 	call  b198e2b4 <LEON_REG+0x3198e2b4>
    24ec:	6f 66 74 2f 	call  bd99f5a8 <LEON_REG+0x3d99f5a8>
    24f0:	6c 69 62 67 	call  b1a5ae8c <LEON_REG+0x31a5ae8c>
    24f4:	6c 6f 73 73 	call  b1bdf2c0 <LEON_REG+0x31bdf2c0>
    24f8:	2f 73 70 61 	unknown
    24fc:	72 63 5f 6c 	call  c98da2ac <LEON_REG+0x498da2ac>
    2500:	65 6f 6e 00 	call  95bddd00 <LEON_REG+0x15bddd00>
    2504:	47 4e 55 20 	call  1d397984 <_trap_table-0x22c6867c>
    2508:	41 53 20 32 	call  54ca5d0 <_trap_table-0x3ab35a30>
    250c:	2e 31 39 2e 	unknown
    2510:	35 31 00 80 	sethi  %hi(0xc4020000), %i2
    2514:	01 00 00 00 	nop 
    2518:	c8 00 02 00 	ld  [ %g0 ], %g4
    251c:	00 06 b7 04 	unimp  0x6b704
    2520:	01 00 00 0c 	sethi  %hi(0x3000), %g0
    2524:	82 40 00 0b 	addx  %g0, %o3, %g1
    2528:	88 40 00 0b 	addx  %g0, %o3, %g4
    252c:	f0 2e 2e 2f 	stb  %i0, [ %i0 + 0xe2f ]
    2530:	2e 2e 2f 2e 	unknown
    2534:	2e 2f 2e 2e 	unknown
    2538:	2f 2e 2e 2f 	sethi  %hi(0xb8b8bc00), %l7
    253c:	6e 65 77 6c 	call  b99602ec <LEON_REG+0x399602ec>
    2540:	69 62 2d 31 	call  a588da04 <LEON_REG+0x2588da04>
    2544:	2e 31 33 2e 	unknown
    2548:	30 2f 6c 69 	unknown
    254c:	62 67 6c 6f 	call  899dd708 <LEON_REG+0x99dd708>
    2550:	73 73 2f 73 	call  cdcce31c <LEON_REG+0x4dcce31c>
    2554:	70 61 72 63 	call  c185eee0 <LEON_REG+0x4185eee0>
    2558:	5f 6c 65 6f 	call  7db1bb14 <__JCR_END__+0x3db19fec>
    255c:	6e 2f 6c 6f 	call  b8bdd718 <LEON_REG+0x38bdd718>
    2560:	63 6f 72 65 	call  8dbdeef4 <LEON_REG+0xdbdeef4>
    2564:	5f 76 61 72 	call  7dd9ab2c <__JCR_END__+0x3dd99004>
    2568:	2e 53 00 2f 	unknown
    256c:	68 6f 6d 65 	call  a1bddb00 <LEON_REG+0x21bddb00>
    2570:	2f 62 75 69 	unknown
    2574:	6c 64 2f 62 	call  b190e2fc <LEON_REG+0x3190e2fc>
    2578:	63 63 2f 42 	call  8d8ce280 <LEON_REG+0xd8ce280>
    257c:	43 43 5f 52 	call  d0da2c4 <_trap_table-0x32f25d3c>
    2580:	45 50 2f 67 	call  1540e31c <_trap_table-0x2abf1ce4>
    2584:	63 63 2d 33 	call  8d8cda50 <LEON_REG+0xd8cda50>
    2588:	2e 34 2e 34 	unknown
    258c:	2d 6d 69 6e 	unknown
    2590:	67 77 2d 31 	call  9ddcda54 <LEON_REG+0x1ddcda54>
    2594:	2e 30 2e 34 	unknown
    2598:	36 6e 65 77 	unknown
    259c:	6c 69 62 2d 	call  b1a5ae50 <LEON_REG+0x31a5ae50>
    25a0:	31 2e 31 33 	sethi  %hi(0xb8c4cc00), %i0
    25a4:	2e 30 2d 62 	unknown
    25a8:	75 69 6c 64 	call  d5a5d738 <LEON_REG+0x55a5d738>
    25ac:	2f 73 70 61 	unknown
    25b0:	72 63 2d 65 	call  c98cdb44 <LEON_REG+0x498cdb44>
    25b4:	6c 66 2f 73 	call  b198e380 <LEON_REG+0x3198e380>
    25b8:	6f 66 74 2f 	call  bd99f674 <LEON_REG+0x3d99f674>
    25bc:	6c 69 62 67 	call  b1a5af58 <LEON_REG+0x31a5af58>
    25c0:	6c 6f 73 73 	call  b1bdf38c <LEON_REG+0x31bdf38c>
    25c4:	2f 73 70 61 	unknown
    25c8:	72 63 5f 6c 	call  c98da378 <LEON_REG+0x498da378>
    25cc:	65 6f 6e 00 	call  95bdddcc <LEON_REG+0x15bdddcc>
    25d0:	47 4e 55 20 	call  1d397a50 <_trap_table-0x22c685b0>
    25d4:	41 53 20 32 	call  54ca69c <_trap_table-0x3ab35964>
    25d8:	2e 31 39 2e 	unknown
    25dc:	35 31 00 80 	sethi  %hi(0xc4020000), %i2
    25e0:	01 00 00 00 	nop 
    25e4:	cc 00 02 00 	ld  [ %g0 ], %g6
    25e8:	00 06 cb 04 	unimp  0x6cb04
    25ec:	01 00 00 0d 	sethi  %hi(0x3400), %g0
    25f0:	04 40 00 0b 	unknown
    25f4:	f0 40 00 0b 	unknown
    25f8:	f8 2e 2e 2f 	stb  %i4, [ %i0 + 0xe2f ]
    25fc:	2e 2e 2f 2e 	unknown
    2600:	2e 2f 2e 2e 	unknown
    2604:	2f 2e 2e 2f 	sethi  %hi(0xb8b8bc00), %l7
    2608:	6e 65 77 6c 	call  b99603b8 <LEON_REG+0x399603b8>
    260c:	69 62 2d 31 	call  a588dad0 <LEON_REG+0x2588dad0>
    2610:	2e 31 33 2e 	unknown
    2614:	30 2f 6c 69 	unknown
    2618:	62 67 6c 6f 	call  899dd7d4 <LEON_REG+0x99dd7d4>
    261c:	73 73 2f 73 	call  cdcce3e8 <LEON_REG+0x4dcce3e8>
    2620:	70 61 72 63 	call  c185efac <LEON_REG+0x4185efac>
    2624:	5f 6c 65 6f 	call  7db1bbe0 <__JCR_END__+0x3db1a0b8>
    2628:	6e 2f 6c 6f 	call  b8bdd7e4 <LEON_REG+0x38bdd7e4>
    262c:	63 6f 72 65 	call  8dbdefc0 <LEON_REG+0xdbdefc0>
    2630:	5f 76 61 72 	call  7dd9abf8 <__JCR_END__+0x3dd990d0>
    2634:	5f 73 76 74 	call  7dce0004 <__JCR_END__+0x3dcde4dc>
    2638:	2e 53 00 2f 	unknown
    263c:	68 6f 6d 65 	call  a1bddbd0 <LEON_REG+0x21bddbd0>
    2640:	2f 62 75 69 	unknown
    2644:	6c 64 2f 62 	call  b190e3cc <LEON_REG+0x3190e3cc>
    2648:	63 63 2f 42 	call  8d8ce350 <LEON_REG+0xd8ce350>
    264c:	43 43 5f 52 	call  d0da394 <_trap_table-0x32f25c6c>
    2650:	45 50 2f 67 	call  1540e3ec <_trap_table-0x2abf1c14>
    2654:	63 63 2d 33 	call  8d8cdb20 <LEON_REG+0xd8cdb20>
    2658:	2e 34 2e 34 	unknown
    265c:	2d 6d 69 6e 	unknown
    2660:	67 77 2d 31 	call  9ddcdb24 <LEON_REG+0x1ddcdb24>
    2664:	2e 30 2e 34 	unknown
    2668:	36 6e 65 77 	unknown
    266c:	6c 69 62 2d 	call  b1a5af20 <LEON_REG+0x31a5af20>
    2670:	31 2e 31 33 	sethi  %hi(0xb8c4cc00), %i0
    2674:	2e 30 2d 62 	unknown
    2678:	75 69 6c 64 	call  d5a5d808 <LEON_REG+0x55a5d808>
    267c:	2f 73 70 61 	unknown
    2680:	72 63 2d 65 	call  c98cdc14 <LEON_REG+0x498cdc14>
    2684:	6c 66 2f 73 	call  b198e450 <LEON_REG+0x3198e450>
    2688:	6f 66 74 2f 	call  bd99f744 <LEON_REG+0x3d99f744>
    268c:	6c 69 62 67 	call  b1a5b028 <LEON_REG+0x31a5b028>
    2690:	6c 6f 73 73 	call  b1bdf45c <LEON_REG+0x31bdf45c>
    2694:	2f 73 70 61 	unknown
    2698:	72 63 5f 6c 	call  c98da448 <LEON_REG+0x498da448>
    269c:	65 6f 6e 00 	call  95bdde9c <LEON_REG+0x15bdde9c>
    26a0:	47 4e 55 20 	call  1d397b20 <_trap_table-0x22c684e0>
    26a4:	41 53 20 32 	call  54ca76c <_trap_table-0x3ab35894>
    26a8:	2e 31 39 2e 	unknown
    26ac:	35 31 00 80 	sethi  %hi(0xc4020000), %i2
    26b0:	01 00 00 02 	sethi  %hi(0x800), %g0
    26b4:	31 00 02 00 	sethi  %hi(0x80000), %i0
    26b8:	00 06 df 04 	unimp  0x6df04
    26bc:	01 00 00 0d 	sethi  %hi(0x3400), %g0
    26c0:	76 40 00 0b 	call  d90026ec <LEON_REG+0x590026ec>
    26c4:	f8 40 00 0b 	unknown
    26c8:	f8 00 00 00 	ld  [ %g0 ], %i4
    26cc:	ab 01 00 00 	taddcc  %g4, %g0, %l5
    26d0:	09 c4 00 00 	cb1  1026d0 <_trap_table-0x3fefd930>
    26d4:	00 46 02 00 	unknown
    26d8:	00 00 bf 02 	unimp  0xbf02
    26dc:	05 02 00 00 	sethi  %hi(0x8000000), %g2
    26e0:	00 33 02 07 	unimp  0xfff30207
    26e4:	03 69 6e 74 	unknown
    26e8:	00 04 05 02 	unimp  0x40502
    26ec:	00 00 00 18 	unimp  0x18
    26f0:	04 07 02 00 	unknown
    26f4:	00 00 25 08 	unimp  0x2508
    26f8:	05 02 00 00 	sethi  %hi(0x8000000), %g2
    26fc:	00 0e 08 07 	unimp  0xe0807
    2700:	02 00 00 00 	unknown
    2704:	09 01 06 02 	sethi  %hi(0x4180800), %g4
    2708:	00 00 00 18 	unimp  0x18
    270c:	04 07 02 00 	unknown
    2710:	00 00 2a 04 	unimp  0x2a04
    2714:	05 02 00 00 	sethi  %hi(0x8000000), %g2
    2718:	00 00 01 08 	unimp  0x108
    271c:	02 00 00 00 	unknown
    2720:	13 04 07 04 	sethi  %hi(0x101c1000), %o1
    2724:	00 00 09 ff 	unimp  0x9ff
    2728:	05 5f 00 00 	unknown
    272c:	00 5d 05 00 	unknown
    2730:	00 00 a6 00 	unimp  0xa600
    2734:	00 0a 06 08 	unimp  0xa0608
    2738:	05 64 06 00 	unknown
    273c:	00 09 bd 05 	unimp  0x9bd05
    2740:	65 00 00 00 	call  94002740 <LEON_REG+0x14002740>
    2744:	72 02 23 00 	call  c808b344 <LEON_REG+0x4808b344>
    2748:	06 00 00 09 	unknown
    274c:	b5 05 66 00 	taddcc  %l5, 0x600, %i2
    2750:	00 00 5d 02 	unimp  0x5d02
    2754:	23 04 00 07 	sethi  %hi(0x10001c00), %l1
    2758:	00 00 01 af 	unimp  0x1af
    275c:	80 01 01 27 	unknown
    2760:	08 00 00 08 	unknown
    2764:	ed 01 01 16 	ld  [ %g4 + %l6 ], %f22
    2768:	00 00 01 af 	unimp  0x1af
    276c:	02 23 00 08 	unknown
    2770:	00 00 09 5c 	unimp  0x95c
    2774:	01 01 17 00 	sethi  %hi(0x45c0000), %g0
    2778:	00 01 af 02 	unimp  0x1af02
    277c:	23 04 08 00 	sethi  %hi(0x10200000), %l1
    2780:	00 07 98 01 	unimp  0x79801
    2784:	01 18 00 00 	sethi  %hi(0x60000000), %g0
    2788:	01 af 02 23 	fbn  ffbc3014 <LEON_REG+0x7fbc3014>
    278c:	08 08 00 00 	unknown
    2790:	07 ff 01 01 	cb13  fffc2b94 <LEON_REG+0x7ffc2b94>
    2794:	19 00 00 01 	sethi  %hi(0x400), %o4
    2798:	af 02 23 0c 	taddcc  %o0, 0x30c, %l7
    279c:	08 00 00 08 	unknown
    27a0:	6c 01 01 1a 	call  b0042c08 <LEON_REG+0x30042c08>
    27a4:	00 00 01 af 	unimp  0x1af
    27a8:	02 23 10 08 	unknown
    27ac:	00 00 08 76 	unimp  0x876
    27b0:	01 01 1b 00 	sethi  %hi(0x46c0000), %g0
    27b4:	00 01 af 02 	unimp  0x1af02
    27b8:	23 14 08 00 	sethi  %hi(0x50200000), %l1
    27bc:	00 08 80 01 	unimp  0x88001
    27c0:	01 1c 00 00 	sethi  %hi(0x70000000), %g0
    27c4:	01 af 02 23 	fbn  ffbc3050 <LEON_REG+0x7fbc3050>
    27c8:	18 08 00 00 	unknown
    27cc:	08 8a 01 01 	bleu  282bd0 <_trap_table-0x3fd7d430>
    27d0:	1d 00 00 01 	sethi  %hi(0x400), %sp
    27d4:	af 02 23 1c 	taddcc  %o0, 0x31c, %l7
    27d8:	08 00 00 07 	unknown
    27dc:	35 01 01 1e 	sethi  %hi(0x4047800), %i2
    27e0:	00 00 01 af 	unimp  0x1af
    27e4:	02 23 20 08 	unknown
    27e8:	00 00 09 36 	unimp  0x936
    27ec:	01 01 1f 00 	sethi  %hi(0x47c0000), %g0
    27f0:	00 01 af 02 	unimp  0x1af02
    27f4:	23 24 08 00 	sethi  %hi(0x90200000), %l1
    27f8:	00 07 46 01 	unimp  0x74601
    27fc:	01 20 00 00 	sethi  %hi(0x80000000), %g0
    2800:	01 af 02 23 	fbn  ffbc308c <LEON_REG+0x7fbc308c>
    2804:	28 08 00 00 	unknown
    2808:	09 40 01 01 	unknown
    280c:	21 00 00 01 	sethi  %hi(0x400), %l0
    2810:	af 02 23 2c 	taddcc  %o0, 0x32c, %l7
    2814:	08 00 00 07 	unknown
    2818:	b6 01 01 22 	unknown
    281c:	00 00 01 af 	unimp  0x1af
    2820:	02 23 30 08 	unknown
    2824:	00 00 07 c0 	unimp  0x7c0
    2828:	01 01 23 00 	sethi  %hi(0x48c0000), %g0
    282c:	00 01 af 02 	unimp  0x1af02
    2830:	23 34 08 00 	sethi  %hi(0xd0200000), %l1
    2834:	00 07 ca 01 	unimp  0x7ca01
    2838:	01 24 00 00 	sethi  %hi(0x90000000), %g0
    283c:	01 af 02 23 	fbn  ffbc30c8 <LEON_REG+0x7fbc30c8>
    2840:	38 08 00 00 	unknown
    2844:	07 d4 01 01 	cb13  502c48 <_trap_table-0x3fafd3b8>
    2848:	25 00 00 01 	sethi  %hi(0x400), %l2
    284c:	af 02 23 3c 	taddcc  %o0, 0x33c, %l7
    2850:	08 00 00 08 	unknown
    2854:	94 01 01 26 	unknown
    2858:	00 00 01 c4 	unimp  0x1c4
    285c:	02 23 40 00 	unknown
    2860:	09 00 00 00 	sethi  %hi(0), %g4
    2864:	3a 0a 00 00 	unknown
    2868:	01 c4 00 00 	cbn  102868 <_trap_table-0x3fefd798>
    286c:	01 af 0b 00 	fbn  ffbc546c <LEON_REG+0x7fbc546c>
    2870:	00 00 56 0f 	unimp  0x560f
    2874:	00 09 00 00 	unimp  0x90000
    2878:	01 b4 0c 00 	fbn  ffd05878 <LEON_REG+0x7fd05878>
    287c:	00 07 9f 01 	unimp  0x79f01
    2880:	01 27 00 00 	sethi  %hi(0x9c000000), %g0
    2884:	00 a6 0d 75 	bn  ff985e58 <LEON_REG+0x7f985e58>
    2888:	36 34 00 04 	unknown
    288c:	04 00 00 00 	unknown
    2890:	48 0e 00 00 	call  20382890 <_trap_table-0x1fc7d770>
    2894:	07 50 01 01 	unknown
    2898:	28 00 00 01 	unknown
    289c:	ee 01 01 0f 	ld  [ %g4 + %o7 ], %l7
    28a0:	04 00 00 01 	unknown
    28a4:	f4 09 00 00 	ldub  [ %g4 ], %i2
    28a8:	01 c9 10 00 	cbn  2468a8 <_trap_table-0x3fdb9758>
    28ac:	00 08 37 02 	unimp  0x83702
    28b0:	0a 00 00 00 	unknown
    28b4:	33 01 01 11 	sethi  %hi(0x4044400), %i1
    28b8:	00 00 0a 0f 	unimp  0xa0f
    28bc:	03 23 00 00 	sethi  %hi(0x8c000000), %g1
    28c0:	02 18 01 05 	unknown
    28c4:	03 40 00 17 	unknown
    28c8:	d0 09 00 00 	ldub  [ %g4 ], %o0
    28cc:	01 d5 11 00 	cbn  546ccc <_trap_table-0x3fab9334>
    28d0:	00 0a 1a 03 	unimp  0xa1a03
    28d4:	22 00 00 02 	unknown
    28d8:	2f 01 05 03 	sethi  %hi(0x4140c00), %l7
    28dc:	40 00 1b 20 	call  955c <_trap_table-0x3fff6aa4>
    28e0:	09 00 00 00 	sethi  %hi(0), %g4
    28e4:	7d 00 00 00 	call  f40028e4 <LEON_REG+0x740028e4>
    28e8:	00 c5 00 02 	unknown
    28ec:	00 00 07 bf 	unimp  0x7bf
    28f0:	04 01 00 00 	unknown
    28f4:	0e 64 40 00 	unknown
    28f8:	0b f8 40 00 	cb23  ffe128f8 <LEON_REG+0x7fe128f8>
    28fc:	0c 10 2e 2e 	unknown
    2900:	2f 2e 2e 2f 	sethi  %hi(0xb8b8bc00), %l7
    2904:	2e 2e 2f 2e 	unknown
    2908:	2e 2f 2e 2e 	unknown
    290c:	2f 6e 65 77 	unknown
    2910:	6c 69 62 2d 	call  b1a5b1c4 <LEON_REG+0x31a5b1c4>
    2914:	31 2e 31 33 	sethi  %hi(0xb8c4cc00), %i0
    2918:	2e 30 2f 6c 	unknown
    291c:	69 62 67 6c 	call  a589c6cc <LEON_REG+0x2589c6cc>
    2920:	6f 73 73 2f 	call  bdcdf5dc <LEON_REG+0x3dcdf5dc>
    2924:	73 70 61 72 	call  cdc1aeec <LEON_REG+0x4dc1aeec>
    2928:	63 5f 6c 65 	call  8d7ddabc <LEON_REG+0xd7ddabc>
    292c:	6f 6e 2f 6d 	call  bdb8e6e0 <LEON_REG+0x3db8e6e0>
    2930:	6d 75 5f 61 	call  b5d5a6b4 <LEON_REG+0x35d5a6b4>
    2934:	73 6d 2e 53 	call  cdb4e280 <LEON_REG+0x4db4e280>
    2938:	00 2f 68 6f 	unimp  0xffef686f
    293c:	6d 65 2f 62 	call  b594e6c4 <LEON_REG+0x3594e6c4>
    2940:	75 69 6c 64 	call  d5a5dad0 <LEON_REG+0x55a5dad0>
    2944:	2f 62 63 63 	unknown
    2948:	2f 42 43 43 	unknown
    294c:	5f 52 45 50 	call  7d493e8c <__JCR_END__+0x3d492364>
    2950:	2f 67 63 63 	unknown
    2954:	2d 33 2e 34 	sethi  %hi(0xccb8d000), %l6
    2958:	2e 34 2d 6d 	unknown
    295c:	69 6e 67 77 	call  a5b9c738 <LEON_REG+0x25b9c738>
    2960:	2d 31 2e 30 	sethi  %hi(0xc4b8c000), %l6
    2964:	2e 34 36 6e 	unknown
    2968:	65 77 6c 69 	call  95dddb0c <LEON_REG+0x15dddb0c>
    296c:	62 2d 31 2e 	call  88b4ee24 <LEON_REG+0x8b4ee24>
    2970:	31 33 2e 30 	sethi  %hi(0xccb8c000), %i0
    2974:	2d 62 75 69 	unknown
    2978:	6c 64 2f 73 	call  b190e744 <LEON_REG+0x3190e744>
    297c:	70 61 72 63 	call  c185f308 <LEON_REG+0x4185f308>
    2980:	2d 65 6c 66 	unknown
    2984:	2f 73 6f 66 	unknown
    2988:	74 2f 6c 69 	call  d0bddb2c <LEON_REG+0x50bddb2c>
    298c:	62 67 6c 6f 	call  899ddb48 <LEON_REG+0x99ddb48>
    2990:	73 73 2f 73 	call  cdcce75c <LEON_REG+0x4dcce75c>
    2994:	70 61 72 63 	call  c185f320 <LEON_REG+0x4185f320>
    2998:	5f 6c 65 6f 	call  7db1bf54 <__JCR_END__+0x3db1a42c>
    299c:	6e 00 47 4e 	call  b80146d4 <LEON_REG+0x380146d4>
    29a0:	55 20 41 53 	call  54812eec <__JCR_END__+0x148113c4>
    29a4:	20 32 2e 31 	unknown
    29a8:	39 2e 35 31 	sethi  %hi(0xb8d4c400), %i4
    29ac:	00 80 01 00 	bn  2dac <_trap_table-0x3fffd254>
    29b0:	00 00 c3 00 	unimp  0xc300
    29b4:	02 00 00 07 	unknown
    29b8:	d3 04 01 00 	ld  [ %l0 ], %f9
    29bc:	00 0e d0 40 	unimp  0xed040
    29c0:	00 0c 10 40 	unimp  0xc1040
    29c4:	00 0c a8 2e 	unimp  0xca82e
    29c8:	2e 2f 2e 2e 	unknown
    29cc:	2f 2e 2e 2f 	sethi  %hi(0xb8b8bc00), %l7
    29d0:	2e 2e 2f 2e 	unknown
    29d4:	2e 2f 6e 65 	unknown
    29d8:	77 6c 69 62 	call  ddb1cf60 <LEON_REG+0x5db1cf60>
    29dc:	2d 31 2e 31 	sethi  %hi(0xc4b8c400), %l6
    29e0:	33 2e 30 2f 	sethi  %hi(0xb8c0bc00), %i1
    29e4:	6c 69 62 67 	call  b1a5b380 <LEON_REG+0x31a5b380>
    29e8:	6c 6f 73 73 	call  b1bdf7b4 <LEON_REG+0x31bdf7b4>
    29ec:	2f 73 70 61 	unknown
    29f0:	72 63 5f 6c 	call  c98da7a0 <LEON_REG+0x498da7a0>
    29f4:	65 6f 6e 2f 	call  95bde2b0 <LEON_REG+0x15bde2b0>
    29f8:	65 74 72 61 	call  95d1f37c <LEON_REG+0x15d1f37c>
    29fc:	70 2e 53 00 	call  c0b975fc <LEON_REG+0x40b975fc>
    2a00:	2f 68 6f 6d 	unknown
    2a04:	65 2f 62 75 	call  94bdb3d8 <LEON_REG+0x14bdb3d8>
    2a08:	69 6c 64 2f 	call  a5b1bac4 <LEON_REG+0x25b1bac4>
    2a0c:	62 63 63 2f 	call  898db6c8 <LEON_REG+0x98db6c8>
    2a10:	42 43 43 5f 	call  90d378c <_trap_table-0x36f2c874>
    2a14:	52 45 50 2f 	call  49156ad0 <__JCR_END__+0x9154fa8>
    2a18:	67 63 63 2d 	call  9d8db6cc <LEON_REG+0x1d8db6cc>
    2a1c:	33 2e 34 2e 	sethi  %hi(0xb8d0b800), %i1
    2a20:	34 2d 6d 69 	unknown
    2a24:	6e 67 77 2d 	call  b99e06d8 <LEON_REG+0x399e06d8>
    2a28:	31 2e 30 2e 	sethi  %hi(0xb8c0b800), %i0
    2a2c:	34 36 6e 65 	unknown
    2a30:	77 6c 69 62 	call  ddb1cfb8 <LEON_REG+0x5db1cfb8>
    2a34:	2d 31 2e 31 	sethi  %hi(0xc4b8c400), %l6
    2a38:	33 2e 30 2d 	sethi  %hi(0xb8c0b400), %i1
    2a3c:	62 75 69 6c 	call  89d5cfec <LEON_REG+0x9d5cfec>
    2a40:	64 2f 73 70 	call  90bdf800 <LEON_REG+0x10bdf800>
    2a44:	61 72 63 2d 	call  85c9b6f8 <LEON_REG+0x5c9b6f8>
    2a48:	65 6c 66 2f 	call  95b1c304 <LEON_REG+0x15b1c304>
    2a4c:	73 6f 66 74 	call  cdbdc41c <LEON_REG+0x4dbdc41c>
    2a50:	2f 6c 69 62 	unknown
    2a54:	67 6c 6f 73 	call  9db1e820 <LEON_REG+0x1db1e820>
    2a58:	73 2f 73 70 	call  ccbdf818 <LEON_REG+0x4cbdf818>
    2a5c:	61 72 63 5f 	call  85c9b7d8 <LEON_REG+0x5c9b7d8>
    2a60:	6c 65 6f 6e 	call  b195e818 <LEON_REG+0x3195e818>
    2a64:	00 47 4e 55 	unknown
    2a68:	20 41 53 20 	unknown
    2a6c:	32 2e 31 39 	unknown
    2a70:	2e 35 31 00 	unknown
    2a74:	80 01 00 00 	add  %g4, %g0, %g0
    2a78:	00 c3 00 02 	unknown
    2a7c:	00 00 07 e7 	unimp  0x7e7
    2a80:	04 01 00 00 	unknown
    2a84:	0f 4a 40 00 	unknown
    2a88:	0c a8 40 00 	bneg  ffa12a88 <LEON_REG+0x7fa12a88>
    2a8c:	0d b8 2e 2e 	fbg  ffe0e344 <LEON_REG+0x7fe0e344>
    2a90:	2f 2e 2e 2f 	sethi  %hi(0xb8b8bc00), %l7
    2a94:	2e 2e 2f 2e 	unknown
    2a98:	2e 2f 2e 2e 	unknown
    2a9c:	2f 6e 65 77 	unknown
    2aa0:	6c 69 62 2d 	call  b1a5b354 <LEON_REG+0x31a5b354>
    2aa4:	31 2e 31 33 	sethi  %hi(0xb8c4cc00), %i0
    2aa8:	2e 30 2f 6c 	unknown
    2aac:	69 62 67 6c 	call  a589c85c <LEON_REG+0x2589c85c>
    2ab0:	6f 73 73 2f 	call  bdcdf76c <LEON_REG+0x3dcdf76c>
    2ab4:	73 70 61 72 	call  cdc1b07c <LEON_REG+0x4dc1b07c>
    2ab8:	63 5f 6c 65 	call  8d7ddc4c <LEON_REG+0xd7ddc4c>
    2abc:	6f 6e 2f 72 	call  bdb8e884 <LEON_REG+0x3db8e884>
    2ac0:	74 72 61 70 	call  d1c9b080 <LEON_REG+0x51c9b080>
    2ac4:	2e 53 00 2f 	unknown
    2ac8:	68 6f 6d 65 	call  a1bde05c <LEON_REG+0x21bde05c>
    2acc:	2f 62 75 69 	unknown
    2ad0:	6c 64 2f 62 	call  b190e858 <LEON_REG+0x3190e858>
    2ad4:	63 63 2f 42 	call  8d8ce7dc <LEON_REG+0xd8ce7dc>
    2ad8:	43 43 5f 52 	call  d0da820 <_trap_table-0x32f257e0>
    2adc:	45 50 2f 67 	call  1540e878 <_trap_table-0x2abf1788>
    2ae0:	63 63 2d 33 	call  8d8cdfac <LEON_REG+0xd8cdfac>
    2ae4:	2e 34 2e 34 	unknown
    2ae8:	2d 6d 69 6e 	unknown
    2aec:	67 77 2d 31 	call  9ddcdfb0 <LEON_REG+0x1ddcdfb0>
    2af0:	2e 30 2e 34 	unknown
    2af4:	36 6e 65 77 	unknown
    2af8:	6c 69 62 2d 	call  b1a5b3ac <LEON_REG+0x31a5b3ac>
    2afc:	31 2e 31 33 	sethi  %hi(0xb8c4cc00), %i0
    2b00:	2e 30 2d 62 	unknown
    2b04:	75 69 6c 64 	call  d5a5dc94 <LEON_REG+0x55a5dc94>
    2b08:	2f 73 70 61 	unknown
    2b0c:	72 63 2d 65 	call  c98ce0a0 <LEON_REG+0x498ce0a0>
    2b10:	6c 66 2f 73 	call  b198e8dc <LEON_REG+0x3198e8dc>
    2b14:	6f 66 74 2f 	call  bd99fbd0 <LEON_REG+0x3d99fbd0>
    2b18:	6c 69 62 67 	call  b1a5b4b4 <LEON_REG+0x31a5b4b4>
    2b1c:	6c 6f 73 73 	call  b1bdf8e8 <LEON_REG+0x31bdf8e8>
    2b20:	2f 73 70 61 	unknown
    2b24:	72 63 5f 6c 	call  c98da8d4 <LEON_REG+0x498da8d4>
    2b28:	65 6f 6e 00 	call  95bde328 <LEON_REG+0x15bde328>
    2b2c:	47 4e 55 20 	call  1d397fac <_trap_table-0x22c68054>
    2b30:	41 53 20 32 	call  54cabf8 <_trap_table-0x3ab35408>
    2b34:	2e 31 39 2e 	unknown
    2b38:	35 31 00 80 	sethi  %hi(0xc4020000), %i2
    2b3c:	01 00 00 00 	nop 
    2b40:	c8 00 02 00 	ld  [ %g0 ], %g4
    2b44:	00 07 fb 04 	unimp  0x7fb04
    2b48:	01 00 00 0f 	sethi  %hi(0x3c00), %g0
    2b4c:	d7 40 00 0d 	unknown
    2b50:	b8 40 00 0e 	addx  %g0, %sp, %i4
    2b54:	38 2e 2e 2f 	unknown
    2b58:	2e 2e 2f 2e 	unknown
    2b5c:	2e 2f 2e 2e 	unknown
    2b60:	2f 2e 2e 2f 	sethi  %hi(0xb8b8bc00), %l7
    2b64:	6e 65 77 6c 	call  b9960914 <LEON_REG+0x39960914>
    2b68:	69 62 2d 31 	call  a588e02c <LEON_REG+0x2588e02c>
    2b6c:	2e 31 33 2e 	unknown
    2b70:	30 2f 6c 69 	unknown
    2b74:	62 67 6c 6f 	call  899ddd30 <LEON_REG+0x99ddd30>
    2b78:	73 73 2f 73 	call  cdcce944 <LEON_REG+0x4dcce944>
    2b7c:	70 61 72 63 	call  c185f508 <LEON_REG+0x4185f508>
    2b80:	5f 6c 65 6f 	call  7db1c13c <__JCR_END__+0x3db1a614>
    2b84:	6e 2f 65 74 	call  b8bdc154 <LEON_REG+0x38bdc154>
    2b88:	72 61 70 5f 	call  c985ed04 <LEON_REG+0x4985ed04>
    2b8c:	66 61 73 74 	call  9985f95c <LEON_REG+0x1985f95c>
    2b90:	2e 53 00 2f 	unknown
    2b94:	68 6f 6d 65 	call  a1bde128 <LEON_REG+0x21bde128>
    2b98:	2f 62 75 69 	unknown
    2b9c:	6c 64 2f 62 	call  b190e924 <LEON_REG+0x3190e924>
    2ba0:	63 63 2f 42 	call  8d8ce8a8 <LEON_REG+0xd8ce8a8>
    2ba4:	43 43 5f 52 	call  d0da8ec <_trap_table-0x32f25714>
    2ba8:	45 50 2f 67 	call  1540e944 <_trap_table-0x2abf16bc>
    2bac:	63 63 2d 33 	call  8d8ce078 <LEON_REG+0xd8ce078>
    2bb0:	2e 34 2e 34 	unknown
    2bb4:	2d 6d 69 6e 	unknown
    2bb8:	67 77 2d 31 	call  9ddce07c <LEON_REG+0x1ddce07c>
    2bbc:	2e 30 2e 34 	unknown
    2bc0:	36 6e 65 77 	unknown
    2bc4:	6c 69 62 2d 	call  b1a5b478 <LEON_REG+0x31a5b478>
    2bc8:	31 2e 31 33 	sethi  %hi(0xb8c4cc00), %i0
    2bcc:	2e 30 2d 62 	unknown
    2bd0:	75 69 6c 64 	call  d5a5dd60 <LEON_REG+0x55a5dd60>
    2bd4:	2f 73 70 61 	unknown
    2bd8:	72 63 2d 65 	call  c98ce16c <LEON_REG+0x498ce16c>
    2bdc:	6c 66 2f 73 	call  b198e9a8 <LEON_REG+0x3198e9a8>
    2be0:	6f 66 74 2f 	call  bd99fc9c <LEON_REG+0x3d99fc9c>
    2be4:	6c 69 62 67 	call  b1a5b580 <LEON_REG+0x31a5b580>
    2be8:	6c 6f 73 73 	call  b1bdf9b4 <LEON_REG+0x31bdf9b4>
    2bec:	2f 73 70 61 	unknown
    2bf0:	72 63 5f 6c 	call  c98da9a0 <LEON_REG+0x498da9a0>
    2bf4:	65 6f 6e 00 	call  95bde3f4 <LEON_REG+0x15bde3f4>
    2bf8:	47 4e 55 20 	call  1d398078 <_trap_table-0x22c67f88>
    2bfc:	41 53 20 32 	call  54cacc4 <_trap_table-0x3ab3533c>
    2c00:	2e 31 39 2e 	unknown
    2c04:	35 31 00 80 	sethi  %hi(0xc4020000), %i2
    2c08:	01 00 00 00 	nop 
    2c0c:	c8 00 02 00 	ld  [ %g0 ], %g4
    2c10:	00 08 0f 04 	unimp  0x80f04
    2c14:	01 00 00 10 	sethi  %hi(0x4000), %g0
    2c18:	57 40 00 0e 	call  5d002c50 <__JCR_END__+0x1d001128>
    2c1c:	38 40 00 0f 	unknown
    2c20:	10 2e 2e 2f 	unknown
    2c24:	2e 2e 2f 2e 	unknown
    2c28:	2e 2f 2e 2e 	unknown
    2c2c:	2f 2e 2e 2f 	sethi  %hi(0xb8b8bc00), %l7
    2c30:	6e 65 77 6c 	call  b99609e0 <LEON_REG+0x399609e0>
    2c34:	69 62 2d 31 	call  a588e0f8 <LEON_REG+0x2588e0f8>
    2c38:	2e 31 33 2e 	unknown
    2c3c:	30 2f 6c 69 	unknown
    2c40:	62 67 6c 6f 	call  899dddfc <LEON_REG+0x99dddfc>
    2c44:	73 73 2f 73 	call  cdccea10 <LEON_REG+0x4dccea10>
    2c48:	70 61 72 63 	call  c185f5d4 <LEON_REG+0x4185f5d4>
    2c4c:	5f 6c 65 6f 	call  7db1c208 <__JCR_END__+0x3db1a6e0>
    2c50:	6e 2f 72 74 	call  b8bdf620 <LEON_REG+0x38bdf620>
    2c54:	72 61 70 5f 	call  c985edd0 <LEON_REG+0x4985edd0>
    2c58:	66 61 73 74 	call  9985fa28 <LEON_REG+0x1985fa28>
    2c5c:	2e 53 00 2f 	unknown
    2c60:	68 6f 6d 65 	call  a1bde1f4 <LEON_REG+0x21bde1f4>
    2c64:	2f 62 75 69 	unknown
    2c68:	6c 64 2f 62 	call  b190e9f0 <LEON_REG+0x3190e9f0>
    2c6c:	63 63 2f 42 	call  8d8ce974 <LEON_REG+0xd8ce974>
    2c70:	43 43 5f 52 	call  d0da9b8 <_trap_table-0x32f25648>
    2c74:	45 50 2f 67 	call  1540ea10 <_trap_table-0x2abf15f0>
    2c78:	63 63 2d 33 	call  8d8ce144 <LEON_REG+0xd8ce144>
    2c7c:	2e 34 2e 34 	unknown
    2c80:	2d 6d 69 6e 	unknown
    2c84:	67 77 2d 31 	call  9ddce148 <LEON_REG+0x1ddce148>
    2c88:	2e 30 2e 34 	unknown
    2c8c:	36 6e 65 77 	unknown
    2c90:	6c 69 62 2d 	call  b1a5b544 <LEON_REG+0x31a5b544>
    2c94:	31 2e 31 33 	sethi  %hi(0xb8c4cc00), %i0
    2c98:	2e 30 2d 62 	unknown
    2c9c:	75 69 6c 64 	call  d5a5de2c <LEON_REG+0x55a5de2c>
    2ca0:	2f 73 70 61 	unknown
    2ca4:	72 63 2d 65 	call  c98ce238 <LEON_REG+0x498ce238>
    2ca8:	6c 66 2f 73 	call  b198ea74 <LEON_REG+0x3198ea74>
    2cac:	6f 66 74 2f 	call  bd99fd68 <LEON_REG+0x3d99fd68>
    2cb0:	6c 69 62 67 	call  b1a5b64c <LEON_REG+0x31a5b64c>
    2cb4:	6c 6f 73 73 	call  b1bdfa80 <LEON_REG+0x31bdfa80>
    2cb8:	2f 73 70 61 	unknown
    2cbc:	72 63 5f 6c 	call  c98daa6c <LEON_REG+0x498daa6c>
    2cc0:	65 6f 6e 00 	call  95bde4c0 <LEON_REG+0x15bde4c0>
    2cc4:	47 4e 55 20 	call  1d398144 <_trap_table-0x22c67ebc>
    2cc8:	41 53 20 32 	call  54cad90 <_trap_table-0x3ab35270>
    2ccc:	2e 31 39 2e 	unknown
    2cd0:	35 31 00 80 	sethi  %hi(0xc4020000), %i2
    2cd4:	01 00 00 00 	nop 
    2cd8:	c5 00 02 00 	ld  [ %g0 ], %f2
    2cdc:	00 08 23 04 	unimp  0x82304
    2ce0:	01 00 00 10 	sethi  %hi(0x4000), %g0
    2ce4:	e9 40 00 0f 	unknown
    2ce8:	10 40 00 0f 	unknown
    2cec:	f4 2e 2e 2f 	stb  %i2, [ %i0 + 0xe2f ]
    2cf0:	2e 2e 2f 2e 	unknown
    2cf4:	2e 2f 2e 2e 	unknown
    2cf8:	2f 2e 2e 2f 	sethi  %hi(0xb8b8bc00), %l7
    2cfc:	6e 65 77 6c 	call  b9960aac <LEON_REG+0x39960aac>
    2d00:	69 62 2d 31 	call  a588e1c4 <LEON_REG+0x2588e1c4>
    2d04:	2e 31 33 2e 	unknown
    2d08:	30 2f 6c 69 	unknown
    2d0c:	62 67 6c 6f 	call  899ddec8 <LEON_REG+0x99ddec8>
    2d10:	73 73 2f 73 	call  cdcceadc <LEON_REG+0x4dcceadc>
    2d14:	70 61 72 63 	call  c185f6a0 <LEON_REG+0x4185f6a0>
    2d18:	5f 6c 65 6f 	call  7db1c2d4 <__JCR_END__+0x3db1a7ac>
    2d1c:	6e 2f 62 75 	call  b8bdb6f0 <LEON_REG+0x38bdb6f0>
    2d20:	73 73 63 61 	call  cdcdbaa4 <LEON_REG+0x4dcdbaa4>
    2d24:	6e 2e 53 00 	call  b8b97924 <LEON_REG+0x38b97924>
    2d28:	2f 68 6f 6d 	unknown
    2d2c:	65 2f 62 75 	call  94bdb700 <LEON_REG+0x14bdb700>
    2d30:	69 6c 64 2f 	call  a5b1bdec <LEON_REG+0x25b1bdec>
    2d34:	62 63 63 2f 	call  898db9f0 <LEON_REG+0x98db9f0>
    2d38:	42 43 43 5f 	call  90d3ab4 <_trap_table-0x36f2c54c>
    2d3c:	52 45 50 2f 	call  49156df8 <__JCR_END__+0x91552d0>
    2d40:	67 63 63 2d 	call  9d8db9f4 <LEON_REG+0x1d8db9f4>
    2d44:	33 2e 34 2e 	sethi  %hi(0xb8d0b800), %i1
    2d48:	34 2d 6d 69 	unknown
    2d4c:	6e 67 77 2d 	call  b99e0a00 <LEON_REG+0x399e0a00>
    2d50:	31 2e 30 2e 	sethi  %hi(0xb8c0b800), %i0
    2d54:	34 36 6e 65 	unknown
    2d58:	77 6c 69 62 	call  ddb1d2e0 <LEON_REG+0x5db1d2e0>
    2d5c:	2d 31 2e 31 	sethi  %hi(0xc4b8c400), %l6
    2d60:	33 2e 30 2d 	sethi  %hi(0xb8c0b400), %i1
    2d64:	62 75 69 6c 	call  89d5d314 <LEON_REG+0x9d5d314>
    2d68:	64 2f 73 70 	call  90bdfb28 <LEON_REG+0x10bdfb28>
    2d6c:	61 72 63 2d 	call  85c9ba20 <LEON_REG+0x5c9ba20>
    2d70:	65 6c 66 2f 	call  95b1c62c <LEON_REG+0x15b1c62c>
    2d74:	73 6f 66 74 	call  cdbdc744 <LEON_REG+0x4dbdc744>
    2d78:	2f 6c 69 62 	unknown
    2d7c:	67 6c 6f 73 	call  9db1eb48 <LEON_REG+0x1db1eb48>
    2d80:	73 2f 73 70 	call  ccbdfb40 <LEON_REG+0x4cbdfb40>
    2d84:	61 72 63 5f 	call  85c9bb00 <LEON_REG+0x5c9bb00>
    2d88:	6c 65 6f 6e 	call  b195eb40 <LEON_REG+0x3195eb40>
    2d8c:	00 47 4e 55 	unknown
    2d90:	20 41 53 20 	unknown
    2d94:	32 2e 31 39 	unknown
    2d98:	2e 35 31 00 	unknown
    2d9c:	80 01 00 00 	add  %g4, %g0, %g0
    2da0:	00 41 00 02 	unknown
    2da4:	00 00 08 37 	unimp  0x837
    2da8:	04 01 00 00 	unknown
    2dac:	11 8f 40 00 	fb  3d2dac <_trap_table-0x3fc2d254>
    2db0:	0f f4 40 00 	cb3  ffd12db0 <LEON_REG+0x7fd12db0>
    2db4:	0f f4 00 00 	cb3  ffd02db4 <LEON_REG+0x7fd02db4>
    2db8:	00 ab 01 00 	bn  ffac31b8 <LEON_REG+0x7fac31b8>
    2dbc:	00 0a 20 00 	unimp  0xa2000
    2dc0:	00 00 46 02 	unimp  0x4602
    2dc4:	72 74 63 00 	call  c9d1b9c4 <LEON_REG+0x49d1b9c4>
    2dc8:	01 17 00 00 	sethi  %hi(0x5c000000), %g0
    2dcc:	00 37 01 05 	unimp  0xfff70105
    2dd0:	03 40 00 17 	unknown
    2dd4:	d8 03 04 00 	ld  [ %o4 ], %o4
    2dd8:	00 00 3d 04 	unimp  0x3d04
    2ddc:	69 6e 74 00 	call  a5b9fddc <LEON_REG+0x25b9fddc>
    2de0:	Address 0x00002de0 is out of bounds.

Disassembly of section .debug_abbrev:

00000000 <.debug_abbrev>:
   0:	01 11 00 10 	sethi  %hi(0x44004000), %g0
   4:	06 11 01 12 	unknown
   8:	01 03 08 1b 	sethi  %hi(0xc206c00), %g0
   c:	08 25 08 13 	unknown
  10:	05 00 00 00 	sethi  %hi(0), %g2
  14:	01 11 00 10 	sethi  %hi(0x44004000), %g0
  18:	06 11 01 12 	unknown
  1c:	01 03 08 1b 	sethi  %hi(0xc206c00), %g0
  20:	08 25 08 13 	unknown
  24:	05 00 00 00 	sethi  %hi(0), %g2
  28:	01 11 01 10 	sethi  %hi(0x44044000), %g0
  2c:	06 12 01 11 	unknown
  30:	01 25 0e 13 	sethi  %hi(0x94384c00), %g0
  34:	0b 03 0e 1b 	sethi  %hi(0xc386c00), %g5
  38:	0e 00 00 02 	unknown
  3c:	24 00 03 0e 	unknown
  40:	0b 0b 3e 0b 	sethi  %hi(0x2cf82c00), %g5
  44:	00 00 03 24 	unimp  0x324
  48:	00 03 08 0b 	unimp  0x3080b
  4c:	0b 3e 0b 00 	sethi  %hi(0xf82c0000), %g5
  50:	00 04 2e 00 	unimp  0x42e00
  54:	3f 0c 03 0e 	sethi  %hi(0x300c3800), %i7
  58:	3a 0b 3b 0b 	unknown
  5c:	27 0c 11 01 	sethi  %hi(0x30440400), %l3
  60:	12 01 40 0a 	unknown
  64:	00 00 00 01 	unimp  0x1
  68:	11 01 10 06 	sethi  %hi(0x4401800), %o0
  6c:	12 01 11 01 	unknown
  70:	25 0e 13 0b 	sethi  %hi(0x384c2c00), %l2
  74:	03 0e 1b 0e 	sethi  %hi(0x386c3800), %g1
  78:	00 00 02 24 	unimp  0x224
  7c:	00 03 08 0b 	unimp  0x3080b
  80:	0b 3e 0b 00 	sethi  %hi(0xf82c0000), %g5
  84:	00 03 24 00 	unimp  0x32400
  88:	03 0e 0b 0b 	sethi  %hi(0x382c2c00), %g1
  8c:	3e 0b 00 00 	unknown
  90:	04 16 00 03 	unknown
  94:	0e 3a 0b 3b 	unknown
  98:	0b 49 13 00 	unknown
  9c:	00 05 13 01 	unimp  0x51301
  a0:	01 13 03 0e 	sethi  %hi(0x4c0c3800), %g0
  a4:	0b 0b 3a 0b 	sethi  %hi(0x2ce82c00), %g5
  a8:	3b 0b 00 00 	sethi  %hi(0x2c000000), %i5
  ac:	06 0d 00 03 	unknown
  b0:	0e 3a 0b 3b 	unknown
  b4:	0b 49 13 38 	unknown
  b8:	0a 00 00 07 	unknown
  bc:	13 00 03 0e 	sethi  %hi(0xc3800), %o1
  c0:	3c 0c 00 00 	unknown
  c4:	08 0f 00 0b 	unknown
  c8:	0b 49 13 00 	unknown
  cc:	00 09 13 01 	unimp  0x91301
  d0:	01 13 0b 0b 	sethi  %hi(0x4c2c2c00), %g0
  d4:	3a 0b 3b 0b 	unknown
  d8:	00 00 0a 01 	unimp  0xa01
  dc:	01 01 13 49 	sethi  %hi(0x44d2400), %g0
  e0:	13 00 00 0b 	sethi  %hi(0x2c00), %o1
  e4:	21 00 49 13 	sethi  %hi(0x1244c00), %l0
  e8:	2f 0b 00 00 	sethi  %hi(0x2c000000), %l7
  ec:	0c 16 00 03 	unknown
  f0:	0e 3a 0b 3b 	unknown
  f4:	05 49 13 00 	unknown
  f8:	00 0d 17 01 	unimp  0xd1701
  fc:	01 13 0b 0b 	sethi  %hi(0x4c2c2c00), %g0
 100:	3a 0b 3b 0b 	unknown
 104:	00 00 0e 0d 	unimp  0xe0d
 108:	00 03 0e 3a 	unimp  0x30e3a
 10c:	0b 3b 0b 49 	sethi  %hi(0xec2d2400), %g5
 110:	13 00 00 0f 	sethi  %hi(0x3c00), %o1
 114:	0f 00 0b 0b 	sethi  %hi(0x2c2c00), %g7
 118:	00 00 10 0d 	unimp  0x100d
 11c:	00 03 08 3a 	unimp  0x3083a
 120:	0b 3b 0b 49 	sethi  %hi(0xec2d2400), %g5
 124:	13 38 0a 00 	sethi  %hi(0xe0280000), %o1
 128:	00 11 13 01 	unimp  0x111301
 12c:	01 13 03 0e 	sethi  %hi(0x4c0c3800), %g0
 130:	0b 05 3a 0b 	sethi  %hi(0x14e82c00), %g5
 134:	3b 0b 00 00 	sethi  %hi(0x2c000000), %i5
 138:	12 15 00 27 	unknown
 13c:	0c 00 00 13 	unknown
 140:	15 01 01 13 	sethi  %hi(0x4044c00), %o2
 144:	27 0c 49 13 	sethi  %hi(0x31244c00), %l3
 148:	00 00 14 05 	unimp  0x1405
 14c:	00 49 13 00 	unknown
 150:	00 15 26 00 	unimp  0x152600
 154:	49 13 00 00 	call  244c0154 <_trap_table-0x1bb3feac>
 158:	16 0d 00 03 	unknown
 15c:	0e 3a 0b 3b 	unknown
 160:	05 49 13 38 	unknown
 164:	0a 00 00 17 	unknown
 168:	13 01 01 13 	sethi  %hi(0x4044c00), %o1
 16c:	03 0e 0b 0b 	sethi  %hi(0x382c2c00), %g1
 170:	3a 0b 3b 05 	unknown
 174:	00 00 18 13 	unimp  0x1813
 178:	01 01 13 0b 	sethi  %hi(0x44c2c00), %g0
 17c:	0b 3a 0b 3b 	sethi  %hi(0xe82cec00), %g5
 180:	05 00 00 19 	sethi  %hi(0x6400), %g2
 184:	17 01 01 13 	sethi  %hi(0x4044c00), %o3
 188:	0b 0b 3a 0b 	sethi  %hi(0x2ce82c00), %g5
 18c:	3b 05 00 00 	sethi  %hi(0x14000000), %i5
 190:	1a 0d 00 03 	unknown
 194:	0e 3a 0b 3b 	unknown
 198:	05 49 13 00 	unknown
 19c:	00 1b 15 01 	unimp  0x1b1501
 1a0:	01 13 27 0c 	sethi  %hi(0x4c9c3000), %g0
 1a4:	00 00 1c 2e 	unimp  0x1c2e
 1a8:	01 01 13 3f 	sethi  %hi(0x44cfc00), %g0
 1ac:	0c 03 0e 3a 	unknown
 1b0:	0b 3b 0b 27 	sethi  %hi(0xec2c9c00), %g5
 1b4:	0c 49 13 11 	unknown
 1b8:	01 12 01 40 	sethi  %hi(0x48050000), %g0
 1bc:	0a 00 00 1d 	unknown
 1c0:	05 00 03 08 	sethi  %hi(0xc2000), %g2
 1c4:	3a 0b 3b 0b 	unknown
 1c8:	49 13 02 0a 	call  244c09f0 <_trap_table-0x1bb3f610>
 1cc:	00 00 1e 34 	unimp  0x1e34
 1d0:	00 03 08 3a 	unimp  0x3083a
 1d4:	0b 3b 0b 49 	sethi  %hi(0xec2d2400), %g5
 1d8:	13 02 0a 00 	sethi  %hi(0x8280000), %o1
 1dc:	00 1f 34 00 	unimp  0x1f3400
 1e0:	03 0e 3a 0b 	sethi  %hi(0x38e82c00), %g1
 1e4:	3b 05 49 13 	sethi  %hi(0x15244c00), %i5
 1e8:	3f 0c 3c 0c 	sethi  %hi(0x30f03000), %i7
 1ec:	00 00 00 01 	unimp  0x1
 1f0:	11 01 10 06 	sethi  %hi(0x4401800), %o0
 1f4:	12 01 11 01 	unknown
 1f8:	25 0e 13 0b 	sethi  %hi(0x384c2c00), %l2
 1fc:	03 0e 1b 0e 	sethi  %hi(0x386c3800), %g1
 200:	00 00 02 16 	unimp  0x216
 204:	00 03 0e 3a 	unimp  0x30e3a
 208:	0b 3b 0b 49 	sethi  %hi(0xec2d2400), %g5
 20c:	13 00 00 03 	sethi  %hi(0xc00), %o1
 210:	24 00 03 08 	unknown
 214:	0b 0b 3e 0b 	sethi  %hi(0x2cf82c00), %g5
 218:	00 00 04 13 	unimp  0x413
 21c:	01 01 13 03 	sethi  %hi(0x44c0c00), %g0
 220:	0e 0b 0b 3a 	unknown
 224:	0b 3b 0b 00 	sethi  %hi(0xec2c0000), %g5
 228:	00 05 0d 00 	unimp  0x50d00
 22c:	03 0e 3a 0b 	sethi  %hi(0x38e82c00), %g1
 230:	3b 0b 49 13 	sethi  %hi(0x2d244c00), %i5
 234:	38 0a 00 00 	unknown
 238:	06 13 00 03 	unknown
 23c:	0e 3c 0c 00 	unknown
 240:	00 07 0f 00 	unimp  0x70f00
 244:	0b 0b 49 13 	sethi  %hi(0x2d244c00), %g5
 248:	00 00 08 24 	unimp  0x824
 24c:	00 03 0e 0b 	unimp  0x30e0b
 250:	0b 3e 0b 00 	sethi  %hi(0xf82c0000), %g5
 254:	00 09 13 01 	unimp  0x91301
 258:	01 13 0b 0b 	sethi  %hi(0x4c2c2c00), %g0
 25c:	3a 0b 3b 0b 	unknown
 260:	00 00 0a 01 	unimp  0xa01
 264:	01 01 13 49 	sethi  %hi(0x44d2400), %g0
 268:	13 00 00 0b 	sethi  %hi(0x2c00), %o1
 26c:	21 00 49 13 	sethi  %hi(0x1244c00), %l0
 270:	2f 0b 00 00 	sethi  %hi(0x2c000000), %l7
 274:	0c 16 00 03 	unknown
 278:	0e 3a 0b 3b 	unknown
 27c:	05 49 13 00 	unknown
 280:	00 0d 17 01 	unimp  0xd1701
 284:	01 13 0b 0b 	sethi  %hi(0x4c2c2c00), %g0
 288:	3a 0b 3b 0b 	unknown
 28c:	00 00 0e 0d 	unimp  0xe0d
 290:	00 03 0e 3a 	unimp  0x30e3a
 294:	0b 3b 0b 49 	sethi  %hi(0xec2d2400), %g5
 298:	13 00 00 0f 	sethi  %hi(0x3c00), %o1
 29c:	0f 00 0b 0b 	sethi  %hi(0x2c2c00), %g7
 2a0:	00 00 10 0d 	unimp  0x100d
 2a4:	00 03 08 3a 	unimp  0x3083a
 2a8:	0b 3b 0b 49 	sethi  %hi(0xec2d2400), %g5
 2ac:	13 38 0a 00 	sethi  %hi(0xe0280000), %o1
 2b0:	00 11 13 01 	unimp  0x111301
 2b4:	01 13 03 0e 	sethi  %hi(0x4c0c3800), %g0
 2b8:	0b 05 3a 0b 	sethi  %hi(0x14e82c00), %g5
 2bc:	3b 0b 00 00 	sethi  %hi(0x2c000000), %i5
 2c0:	12 15 00 27 	unknown
 2c4:	0c 00 00 13 	unknown
 2c8:	15 01 01 13 	sethi  %hi(0x4044c00), %o2
 2cc:	27 0c 49 13 	sethi  %hi(0x31244c00), %l3
 2d0:	00 00 14 05 	unimp  0x1405
 2d4:	00 49 13 00 	unknown
 2d8:	00 15 26 00 	unimp  0x152600
 2dc:	49 13 00 00 	call  244c02dc <_trap_table-0x1bb3fd24>
 2e0:	16 0d 00 03 	unknown
 2e4:	0e 3a 0b 3b 	unknown
 2e8:	05 49 13 38 	unknown
 2ec:	0a 00 00 17 	unknown
 2f0:	13 01 01 13 	sethi  %hi(0x4044c00), %o1
 2f4:	03 0e 0b 0b 	sethi  %hi(0x382c2c00), %g1
 2f8:	3a 0b 3b 05 	unknown
 2fc:	00 00 18 13 	unimp  0x1813
 300:	01 01 13 0b 	sethi  %hi(0x44c2c00), %g0
 304:	0b 3a 0b 3b 	sethi  %hi(0xe82cec00), %g5
 308:	05 00 00 19 	sethi  %hi(0x6400), %g2
 30c:	17 01 01 13 	sethi  %hi(0x4044c00), %o3
 310:	0b 0b 3a 0b 	sethi  %hi(0x2ce82c00), %g5
 314:	3b 05 00 00 	sethi  %hi(0x14000000), %i5
 318:	1a 0d 00 03 	unknown
 31c:	0e 3a 0b 3b 	unknown
 320:	05 49 13 00 	unknown
 324:	00 1b 15 01 	unimp  0x1b1501
 328:	01 13 27 0c 	sethi  %hi(0x4c9c3000), %g0
 32c:	00 00 1c 34 	unimp  0x1c34
 330:	00 03 0e 3a 	unimp  0x30e3a
 334:	0b 3b 0b 49 	sethi  %hi(0xec2d2400), %g5
 338:	13 3f 0c 02 	sethi  %hi(0xfc300800), %o1
 33c:	0a 00 00 1d 	unknown
 340:	34 00 03 0e 	unknown
 344:	3a 0b 3b 0b 	unknown
 348:	49 13 02 0a 	call  244c0b70 <_trap_table-0x1bb3f490>
 34c:	00 00 00 01 	unimp  0x1
 350:	11 00 10 06 	sethi  %hi(0x401800), %o0
 354:	11 01 12 01 	sethi  %hi(0x4480400), %o0
 358:	03 08 1b 08 	sethi  %hi(0x206c2000), %g1
 35c:	25 08 13 05 	sethi  %hi(0x204c1400), %l2
 360:	00 00 00 01 	unimp  0x1
 364:	11 01 10 06 	sethi  %hi(0x4401800), %o0
 368:	12 01 11 01 	unknown
 36c:	25 0e 13 0b 	sethi  %hi(0x384c2c00), %l2
 370:	03 0e 1b 0e 	sethi  %hi(0x386c3800), %g1
 374:	00 00 02 2e 	unimp  0x22e
 378:	01 01 13 3f 	sethi  %hi(0x44cfc00), %g0
 37c:	0c 03 0e 3a 	unknown
 380:	0b 3b 0b 27 	sethi  %hi(0xec2c9c00), %g5
 384:	0c 11 01 12 	unknown
 388:	01 40 0a 00 	unknown
 38c:	00 03 05 00 	unimp  0x30500
 390:	03 0e 3a 0b 	sethi  %hi(0x38e82c00), %g1
 394:	3b 0b 49 13 	sethi  %hi(0x2d244c00), %i5
 398:	02 0a 00 00 	unknown
 39c:	04 24 00 03 	unknown
 3a0:	08 0b 0b 3e 	unknown
 3a4:	0b 00 00 00 	sethi  %hi(0), %g5
 3a8:	01 11 00 10 	sethi  %hi(0x44004000), %g0
 3ac:	06 11 01 12 	unknown
 3b0:	01 03 08 1b 	sethi  %hi(0xc206c00), %g0
 3b4:	08 25 08 13 	unknown
 3b8:	05 00 00 00 	sethi  %hi(0), %g2
 3bc:	01 11 00 10 	sethi  %hi(0x44004000), %g0
 3c0:	06 11 01 12 	unknown
 3c4:	01 03 08 1b 	sethi  %hi(0xc206c00), %g0
 3c8:	08 25 08 13 	unknown
 3cc:	05 00 00 00 	sethi  %hi(0), %g2
 3d0:	01 11 01 10 	sethi  %hi(0x44044000), %g0
 3d4:	06 12 01 11 	unknown
 3d8:	01 25 0e 13 	sethi  %hi(0x94384c00), %g0
 3dc:	0b 03 0e 1b 	sethi  %hi(0xc386c00), %g5
 3e0:	0e 00 00 02 	unknown
 3e4:	24 00 03 0e 	unknown
 3e8:	0b 0b 3e 0b 	sethi  %hi(0x2cf82c00), %g5
 3ec:	00 00 03 24 	unimp  0x324
 3f0:	00 03 08 0b 	unimp  0x3080b
 3f4:	0b 3e 0b 00 	sethi  %hi(0xf82c0000), %g5
 3f8:	00 04 16 00 	unimp  0x41600
 3fc:	03 0e 3a 0b 	sethi  %hi(0x38e82c00), %g1
 400:	3b 0b 49 13 	sethi  %hi(0x2d244c00), %i5
 404:	00 00 05 0f 	unimp  0x50f
 408:	00 0b 0b 49 	unimp  0xb0b49
 40c:	13 00 00 06 	sethi  %hi(0x1800), %o1
 410:	15 00 27 0c 	sethi  %hi(0x9c3000), %o2
 414:	49 13 00 00 	call  244c0414 <_trap_table-0x1bb3fbec>
 418:	07 2e 01 01 	sethi  %hi(0xb8040400), %g3
 41c:	13 3f 0c 03 	sethi  %hi(0xfc300c00), %o1
 420:	0e 3a 0b 3b 	unknown
 424:	0b 11 01 12 	sethi  %hi(0x44044800), %g5
 428:	01 40 0a 00 	unknown
 42c:	00 08 34 00 	unimp  0x83400
 430:	03 08 3a 0b 	sethi  %hi(0x20e82c00), %g1
 434:	3b 0b 49 13 	sethi  %hi(0x2d244c00), %i5
 438:	02 0a 00 00 	unknown
 43c:	09 34 00 03 	sethi  %hi(0xd0000c00), %g4
 440:	0e 3a 0b 3b 	unknown
 444:	0b 49 13 3f 	unknown
 448:	0c 3c 0c 00 	unknown
 44c:	00 00 01 11 	unimp  0x111
 450:	00 10 06 11 	unimp  0x100611
 454:	01 12 01 03 	sethi  %hi(0x48040c00), %g0
 458:	08 1b 08 25 	unknown
 45c:	08 13 05 00 	unknown
 460:	00 00 01 11 	unimp  0x111
 464:	00 10 06 11 	unimp  0x100611
 468:	01 12 01 03 	sethi  %hi(0x48040c00), %g0
 46c:	08 1b 08 25 	unknown
 470:	08 13 05 00 	unknown
 474:	00 00 01 11 	unimp  0x111
 478:	00 10 06 11 	unimp  0x100611
 47c:	01 12 01 03 	sethi  %hi(0x48040c00), %g0
 480:	08 1b 08 25 	unknown
 484:	08 13 05 00 	unknown
 488:	00 00 01 11 	unimp  0x111
 48c:	01 10 06 12 	sethi  %hi(0x40184800), %g0
 490:	01 11 01 25 	sethi  %hi(0x44049400), %g0
 494:	0e 13 0b 03 	unknown
 498:	0e 1b 0e 00 	unknown
 49c:	00 02 13 01 	unimp  0x21301
 4a0:	01 13 03 0e 	sethi  %hi(0x4c0c3800), %g0
 4a4:	0b 0b 3a 0b 	sethi  %hi(0x2ce82c00), %g5
 4a8:	3b 0b 00 00 	sethi  %hi(0x2c000000), %i5
 4ac:	03 0d 00 03 	sethi  %hi(0x34000c00), %g1
 4b0:	08 3a 0b 3b 	unknown
 4b4:	0b 49 13 38 	unknown
 4b8:	0a 00 00 04 	unknown
 4bc:	0d 00 03 0e 	sethi  %hi(0xc3800), %g6
 4c0:	3a 0b 3b 0b 	unknown
 4c4:	49 13 38 0a 	call  244ce4ec <_trap_table-0x1bb31b14>
 4c8:	00 00 05 24 	unimp  0x524
 4cc:	00 03 0e 0b 	unimp  0x30e0b
 4d0:	0b 3e 0b 00 	sethi  %hi(0xf82c0000), %g5
 4d4:	00 06 01 01 	unimp  0x60101
 4d8:	01 13 49 13 	sethi  %hi(0x4d244c00), %g0
 4dc:	00 00 07 21 	unimp  0x721
 4e0:	00 49 13 2f 	unknown
 4e4:	0b 00 00 08 	sethi  %hi(0x2000), %g5
 4e8:	13 01 01 13 	sethi  %hi(0x4044c00), %o1
 4ec:	0b 0b 3a 0b 	sethi  %hi(0x2ce82c00), %g5
 4f0:	3b 05 00 00 	sethi  %hi(0x14000000), %i5
 4f4:	09 0d 00 03 	sethi  %hi(0x34000c00), %g4
 4f8:	0e 3a 0b 3b 	unknown
 4fc:	05 49 13 38 	unknown
 500:	0a 00 00 0a 	unknown
 504:	35 00 49 13 	sethi  %hi(0x1244c00), %i2
 508:	00 00 0b 16 	unimp  0xb16
 50c:	00 03 0e 3a 	unimp  0x30e3a
 510:	0b 3b 05 49 	sethi  %hi(0xec152400), %g5
 514:	13 00 00 0c 	sethi  %hi(0x3000), %o1
 518:	24 00 03 08 	unknown
 51c:	0b 0b 3e 0b 	sethi  %hi(0x2cf82c00), %g5
 520:	00 00 0d 16 	unimp  0xd16
 524:	00 03 0e 3a 	unimp  0x30e3a
 528:	0b 3b 0b 49 	sethi  %hi(0xec2d2400), %g5
 52c:	13 00 00 0e 	sethi  %hi(0x3800), %o1
 530:	0f 00 0b 0b 	sethi  %hi(0x2c2c00), %g7
 534:	49 13 00 00 	call  244c0534 <_trap_table-0x1bb3facc>
 538:	0f 15 01 01 	sethi  %hi(0x54040400), %g7
 53c:	13 27 0c 49 	sethi  %hi(0x9c312400), %o1
 540:	13 00 00 10 	sethi  %hi(0x4000), %o1
 544:	05 00 49 13 	sethi  %hi(0x1244c00), %g2
 548:	00 00 11 0f 	unimp  0x110f
 54c:	00 0b 0b 00 	unimp  0xb0b00
 550:	00 12 2e 01 	unimp  0x122e01
 554:	01 13 3f 0c 	sethi  %hi(0x4cfc3000), %g0
 558:	03 0e 3a 0b 	sethi  %hi(0x38e82c00), %g1
 55c:	3b 0b 27 0c 	sethi  %hi(0x2c9c3000), %i5
 560:	11 01 12 01 	sethi  %hi(0x4480400), %o0
 564:	40 0a 00 00 	call  280564 <_trap_table-0x3fd7fa9c>
 568:	13 05 00 03 	sethi  %hi(0x14000c00), %o1
 56c:	08 3a 0b 3b 	unknown
 570:	0b 49 13 02 	unknown
 574:	0a 00 00 14 	unknown
 578:	2e 01 01 13 	unknown
 57c:	3f 0c 03 0e 	sethi  %hi(0x300c3800), %i7
 580:	3a 0b 3b 0b 	unknown
 584:	27 0c 49 13 	sethi  %hi(0x31244c00), %l3
 588:	11 01 12 01 	sethi  %hi(0x4480400), %o0
 58c:	40 0a 00 00 	call  28058c <_trap_table-0x3fd7fa74>
 590:	15 05 00 03 	sethi  %hi(0x14000c00), %o2
 594:	0e 3a 0b 3b 	unknown
 598:	0b 49 13 02 	unknown
 59c:	0a 00 00 16 	unknown
 5a0:	34 00 03 08 	unknown
 5a4:	3a 0b 3b 0b 	unknown
 5a8:	49 13 02 0a 	call  244c0dd0 <_trap_table-0x1bb3f230>
 5ac:	00 00 17 0b 	unimp  0x170b
 5b0:	01 11 01 12 	sethi  %hi(0x44044800), %g0
 5b4:	01 00 00 18 	sethi  %hi(0x6000), %g0
 5b8:	1d 01 31 13 	sethi  %hi(0x4c44c00), %sp
 5bc:	11 01 12 01 	sethi  %hi(0x4480400), %o0
 5c0:	00 00 19 34 	unimp  0x1934
 5c4:	00 31 13 02 	unimp  0xfff11302
 5c8:	0a 00 00 1a 	unknown
 5cc:	2e 01 01 13 	unknown
 5d0:	3f 0c 03 0e 	sethi  %hi(0x300c3800), %i7
 5d4:	3a 0b 3b 0b 	unknown
 5d8:	27 0c 49 13 	sethi  %hi(0x31244c00), %l3
 5dc:	20 0b 00 00 	unknown
 5e0:	1b 34 00 03 	sethi  %hi(0xd0000c00), %o5
 5e4:	0e 3a 0b 3b 	unknown
 5e8:	0b 49 13 00 	unknown
 5ec:	00 1c 34 00 	unimp  0x1c3400
 5f0:	03 0e 3a 0b 	sethi  %hi(0x38e82c00), %g1
 5f4:	3b 05 49 13 	sethi  %hi(0x15244c00), %i5
 5f8:	3f 0c 3c 0c 	sethi  %hi(0x30f03000), %i7
 5fc:	00 00 1d 34 	unimp  0x1d34
 600:	00 03 0e 3a 	unimp  0x30e3a
 604:	0b 3b 0b 49 	sethi  %hi(0xec2d2400), %g5
 608:	13 3f 0c 3c 	sethi  %hi(0xfc30f000), %o1
 60c:	0c 00 00 1e 	unknown
 610:	34 00 03 0e 	unknown
 614:	3a 0b 3b 0b 	unknown
 618:	49 13 3f 0c 	call  244d0248 <_trap_table-0x1bb2fdb8>
 61c:	02 0a 00 00 	unknown
 620:	1f 15 00 27 	sethi  %hi(0x54009c00), %o7
 624:	0c 00 00 20 	unknown
 628:	34 00 03 0e 	unknown
 62c:	3a 0b 3b 0b 	unknown
 630:	49 13 02 0a 	call  244c0e58 <_trap_table-0x1bb3f1a8>
 634:	00 00 00 01 	unimp  0x1
 638:	11 00 10 06 	sethi  %hi(0x401800), %o0
 63c:	11 01 12 01 	sethi  %hi(0x4480400), %o0
 640:	03 08 1b 08 	sethi  %hi(0x206c2000), %g1
 644:	25 08 13 05 	sethi  %hi(0x204c1400), %l2
 648:	00 00 00 01 	unimp  0x1
 64c:	11 01 10 06 	sethi  %hi(0x4401800), %o0
 650:	12 01 11 01 	unknown
 654:	25 0e 13 0b 	sethi  %hi(0x384c2c00), %l2
 658:	03 0e 1b 0e 	sethi  %hi(0x386c3800), %g1
 65c:	00 00 02 24 	unimp  0x224
 660:	00 03 0e 0b 	unimp  0x30e0b
 664:	0b 3e 0b 00 	sethi  %hi(0xf82c0000), %g5
 668:	00 03 24 00 	unimp  0x32400
 66c:	03 08 0b 0b 	sethi  %hi(0x202c2c00), %g1
 670:	3e 0b 00 00 	unknown
 674:	04 34 00 03 	unknown
 678:	0e 3a 0b 3b 	unknown
 67c:	0b 49 13 3f 	unknown
 680:	0c 02 0a 00 	unknown
 684:	00 05 0f 00 	unimp  0x50f00
 688:	0b 0b 49 13 	sethi  %hi(0x2d244c00), %g5
 68c:	00 00 00 01 	unimp  0x1
 690:	11 00 10 06 	sethi  %hi(0x401800), %o0
 694:	11 01 12 01 	sethi  %hi(0x4480400), %o0
 698:	03 08 1b 08 	sethi  %hi(0x206c2000), %g1
 69c:	25 08 13 05 	sethi  %hi(0x204c1400), %l2
 6a0:	00 00 00 01 	unimp  0x1
 6a4:	11 00 10 06 	sethi  %hi(0x401800), %o0
 6a8:	11 01 12 01 	sethi  %hi(0x4480400), %o0
 6ac:	03 08 1b 08 	sethi  %hi(0x206c2000), %g1
 6b0:	25 08 13 05 	sethi  %hi(0x204c1400), %l2
 6b4:	00 00 00 01 	unimp  0x1
 6b8:	11 00 10 06 	sethi  %hi(0x401800), %o0
 6bc:	11 01 12 01 	sethi  %hi(0x4480400), %o0
 6c0:	03 08 1b 08 	sethi  %hi(0x206c2000), %g1
 6c4:	25 08 13 05 	sethi  %hi(0x204c1400), %l2
 6c8:	00 00 00 01 	unimp  0x1
 6cc:	11 00 10 06 	sethi  %hi(0x401800), %o0
 6d0:	11 01 12 01 	sethi  %hi(0x4480400), %o0
 6d4:	03 08 1b 08 	sethi  %hi(0x206c2000), %g1
 6d8:	25 08 13 05 	sethi  %hi(0x204c1400), %l2
 6dc:	00 00 00 01 	unimp  0x1
 6e0:	11 01 10 06 	sethi  %hi(0x4401800), %o0
 6e4:	12 01 11 01 	unknown
 6e8:	25 0e 13 0b 	sethi  %hi(0x384c2c00), %l2
 6ec:	03 0e 1b 0e 	sethi  %hi(0x386c3800), %g1
 6f0:	00 00 02 24 	unimp  0x224
 6f4:	00 03 0e 0b 	unimp  0x30e0b
 6f8:	0b 3e 0b 00 	sethi  %hi(0xf82c0000), %g5
 6fc:	00 03 24 00 	unimp  0x32400
 700:	03 08 0b 0b 	sethi  %hi(0x202c2c00), %g1
 704:	3e 0b 00 00 	unknown
 708:	04 16 00 03 	unknown
 70c:	0e 3a 0b 3b 	unknown
 710:	0b 49 13 00 	unknown
 714:	00 05 13 01 	unimp  0x51301
 718:	01 13 03 0e 	sethi  %hi(0x4c0c3800), %g0
 71c:	0b 0b 3a 0b 	sethi  %hi(0x2ce82c00), %g5
 720:	3b 0b 00 00 	sethi  %hi(0x2c000000), %i5
 724:	06 0d 00 03 	unknown
 728:	0e 3a 0b 3b 	unknown
 72c:	0b 49 13 38 	unknown
 730:	0a 00 00 07 	unknown
 734:	13 01 01 13 	sethi  %hi(0x4044c00), %o1
 738:	0b 0b 3a 0b 	sethi  %hi(0x2ce82c00), %g5
 73c:	3b 05 00 00 	sethi  %hi(0x14000000), %i5
 740:	08 0d 00 03 	unknown
 744:	0e 3a 0b 3b 	unknown
 748:	05 49 13 38 	unknown
 74c:	0a 00 00 09 	unknown
 750:	35 00 49 13 	sethi  %hi(0x1244c00), %i2
 754:	00 00 0a 01 	unimp  0xa01
 758:	01 01 13 49 	sethi  %hi(0x44d2400), %g0
 75c:	13 00 00 0b 	sethi  %hi(0x2c00), %o1
 760:	21 00 49 13 	sethi  %hi(0x1244c00), %l0
 764:	2f 0b 00 00 	sethi  %hi(0x2c000000), %l7
 768:	0c 16 00 03 	unknown
 76c:	0e 3a 0b 3b 	unknown
 770:	05 49 13 00 	unknown
 774:	00 0d 16 00 	unimp  0xd1600
 778:	03 08 3a 0b 	sethi  %hi(0x20e82c00), %g1
 77c:	3b 0b 49 13 	sethi  %hi(0x2d244c00), %i5
 780:	00 00 0e 34 	unimp  0xe34
 784:	00 03 0e 3a 	unimp  0x30e3a
 788:	0b 3b 05 49 	sethi  %hi(0xec152400), %g5
 78c:	13 3f 0c 3c 	sethi  %hi(0xfc30f000), %o1
 790:	0c 00 00 0f 	unknown
 794:	0f 00 0b 0b 	sethi  %hi(0x2c2c00), %g7
 798:	49 13 00 00 	call  244c0798 <_trap_table-0x1bb3f868>
 79c:	10 34 00 03 	unknown
 7a0:	0e 3a 0b 3b 	unknown
 7a4:	0b 49 13 3f 	unknown
 7a8:	0c 3c 0c 00 	unknown
 7ac:	00 11 34 00 	unimp  0x113400
 7b0:	03 0e 3a 0b 	sethi  %hi(0x38e82c00), %g1
 7b4:	3b 0b 49 13 	sethi  %hi(0x2d244c00), %i5
 7b8:	3f 0c 02 0a 	sethi  %hi(0x30082800), %i7
 7bc:	00 00 00 01 	unimp  0x1
 7c0:	11 00 10 06 	sethi  %hi(0x401800), %o0
 7c4:	11 01 12 01 	sethi  %hi(0x4480400), %o0
 7c8:	03 08 1b 08 	sethi  %hi(0x206c2000), %g1
 7cc:	25 08 13 05 	sethi  %hi(0x204c1400), %l2
 7d0:	00 00 00 01 	unimp  0x1
 7d4:	11 00 10 06 	sethi  %hi(0x401800), %o0
 7d8:	11 01 12 01 	sethi  %hi(0x4480400), %o0
 7dc:	03 08 1b 08 	sethi  %hi(0x206c2000), %g1
 7e0:	25 08 13 05 	sethi  %hi(0x204c1400), %l2
 7e4:	00 00 00 01 	unimp  0x1
 7e8:	11 00 10 06 	sethi  %hi(0x401800), %o0
 7ec:	11 01 12 01 	sethi  %hi(0x4480400), %o0
 7f0:	03 08 1b 08 	sethi  %hi(0x206c2000), %g1
 7f4:	25 08 13 05 	sethi  %hi(0x204c1400), %l2
 7f8:	00 00 00 01 	unimp  0x1
 7fc:	11 00 10 06 	sethi  %hi(0x401800), %o0
 800:	11 01 12 01 	sethi  %hi(0x4480400), %o0
 804:	03 08 1b 08 	sethi  %hi(0x206c2000), %g1
 808:	25 08 13 05 	sethi  %hi(0x204c1400), %l2
 80c:	00 00 00 01 	unimp  0x1
 810:	11 00 10 06 	sethi  %hi(0x401800), %o0
 814:	11 01 12 01 	sethi  %hi(0x4480400), %o0
 818:	03 08 1b 08 	sethi  %hi(0x206c2000), %g1
 81c:	25 08 13 05 	sethi  %hi(0x204c1400), %l2
 820:	00 00 00 01 	unimp  0x1
 824:	11 00 10 06 	sethi  %hi(0x401800), %o0
 828:	11 01 12 01 	sethi  %hi(0x4480400), %o0
 82c:	03 08 1b 08 	sethi  %hi(0x206c2000), %g1
 830:	25 08 13 05 	sethi  %hi(0x204c1400), %l2
 834:	00 00 00 01 	unimp  0x1
 838:	11 01 10 06 	sethi  %hi(0x4401800), %o0
 83c:	12 01 11 01 	unknown
 840:	25 0e 13 0b 	sethi  %hi(0x384c2c00), %l2
 844:	03 0e 1b 0e 	sethi  %hi(0x386c3800), %g1
 848:	00 00 02 34 	unimp  0x234
 84c:	00 03 08 3a 	unimp  0x3083a
 850:	0b 3b 0b 49 	sethi  %hi(0xec2d2400), %g5
 854:	13 3f 0c 02 	sethi  %hi(0xfc300800), %o1
 858:	0a 00 00 03 	unknown
 85c:	0f 00 0b 0b 	sethi  %hi(0x2c2c00), %g7
 860:	49 13 00 00 	call  244c0860 <_trap_table-0x1bb3f7a0>
 864:	04 24 00 03 	unknown
 868:	08 0b 0b 3e 	unknown
 86c:	0b 00 00 00 	sethi  %hi(0), %g5
Disassembly of section .debug_line:

00000000 <.debug_line>:
       0:	00 00 00 6b 	unimp  0x6b
       4:	00 02 00 00 	unimp  0x20000
       8:	00 54 04 01 	unknown
       c:	fb 0e 0d 00 	unknown
      10:	01 01 01 01 	sethi  %hi(0x4040400), %g0
      14:	00 00 00 01 	unimp  0x1
      18:	00 00 01 2e 	unimp  0x12e
      1c:	2e 2f 2e 2e 	unknown
      20:	2f 2e 2e 2f 	sethi  %hi(0xb8b8bc00), %l7
      24:	2e 2e 2f 2e 	unknown
      28:	2e 2f 6e 65 	unknown
      2c:	77 6c 69 62 	call  ddb1a5b4 <LEON_REG+0x5db1a5b4>
      30:	2d 31 2e 31 	sethi  %hi(0xc4b8c400), %l6
      34:	33 2e 30 2f 	sethi  %hi(0xb8c0bc00), %i1
      38:	6c 69 62 67 	call  b1a589d4 <LEON_REG+0x31a589d4>
      3c:	6c 6f 73 73 	call  b1bdce08 <LEON_REG+0x31bdce08>
      40:	2f 73 70 61 	unknown
      44:	72 63 5f 6c 	call  c98d7df4 <LEON_REG+0x498d7df4>
      48:	65 6f 6e 00 	call  95bdb848 <LEON_REG+0x15bdb848>
      4c:	00 6c 6f 63 	unknown
      50:	6f 72 65 5f 	call  bdc995cc <LEON_REG+0x3dc995cc>
      54:	73 76 74 2e 	call  cdd9d10c <LEON_REG+0x4dd9d10c>
      58:	53 00 01 00 	call  4c000458 <__JCR_END__+0xbffe930>
      5c:	00 00 00 05 	unimp  0x5
      60:	02 40 00 00 	unknown
      64:	00 03 28 01 	unimp  0x32801
      68:	21 21 02 01 	sethi  %hi(0x84080400), %l0
      6c:	00 01 01 00 	unimp  0x10100
      70:	00 00 82 00 	unimp  0x8200
      74:	02 00 00 00 	unknown
      78:	4e 04 01 fb 	call  38100864 <_trap_table-0x7eff79c>
      7c:	0e 0d 00 01 	unknown
      80:	01 01 01 00 	sethi  %hi(0x4040000), %g0
      84:	00 00 01 00 	unimp  0x100
      88:	00 01 2e 2e 	unimp  0x12e2e
      8c:	2f 2e 2e 2f 	sethi  %hi(0xb8b8bc00), %l7
      90:	2e 2e 2f 2e 	unknown
      94:	2e 2f 2e 2e 	unknown
      98:	2f 6e 65 77 	unknown
      9c:	6c 69 62 2d 	call  b1a58950 <LEON_REG+0x31a58950>
      a0:	31 2e 31 33 	sethi  %hi(0xb8c4cc00), %i0
      a4:	2e 30 2f 6c 	unknown
      a8:	69 62 67 6c 	call  a5899e58 <LEON_REG+0x25899e58>
      ac:	6f 73 73 2f 	call  bdcdcd68 <LEON_REG+0x3dcdcd68>
      b0:	73 70 61 72 	call  cdc18678 <LEON_REG+0x4dc18678>
      b4:	63 5f 6c 65 	call  8d7db248 <LEON_REG+0xd7db248>
      b8:	6f 6e 00 00 	call  bdb800b8 <LEON_REG+0x3db800b8>
      bc:	63 72 74 30 	call  8dc9d17c <LEON_REG+0xdc9d17c>
      c0:	2e 53 00 01 	unknown
      c4:	00 00 00 00 	unimp  0
      c8:	05 02 40 00 	sethi  %hi(0x9000000), %g2
      cc:	00 0c 03 1c 	unimp  0xc031c
      d0:	01 27 21 21 	sethi  %hi(0x9c848400), %g0
      d4:	21 21 21 22 	sethi  %hi(0x84848800), %l0
      d8:	22 21 21 21 	unknown
      dc:	21 23 2f 22 	sethi  %hi(0x8cbc8800), %l0
      e0:	21 22 21 22 	sethi  %hi(0x88848800), %l0
      e4:	21 22 2f 21 	sethi  %hi(0x88bc8400), %l0
      e8:	22 21 22 21 	unknown
      ec:	21 21 22 21 	sethi  %hi(0x84888400), %l0
      f0:	02 01 00 01 	unknown
      f4:	01 00 00 00 	nop 
      f8:	6b 00 02 00 	call  ac0008f8 <LEON_REG+0x2c0008f8>
      fc:	00 00 58 04 	unimp  0x5804
     100:	01 fb 0e 0d 	cbn  ffec3934 <LEON_REG+0x7fec3934>
     104:	00 01 01 01 	unimp  0x10101
     108:	01 00 00 00 	nop 
     10c:	01 00 00 01 	sethi  %hi(0x400), %g0
     110:	2e 2e 2f 2e 	unknown
     114:	2e 2f 2e 2e 	unknown
     118:	2f 2e 2e 2f 	sethi  %hi(0xb8b8bc00), %l7
     11c:	2e 2e 2f 6e 	unknown
     120:	65 77 6c 69 	call  95ddb2c4 <LEON_REG+0x15ddb2c4>
     124:	62 2d 31 2e 	call  88b4c5dc <LEON_REG+0x8b4c5dc>
     128:	31 33 2e 30 	sethi  %hi(0xccb8c000), %i0
     12c:	2f 6c 69 62 	unknown
     130:	67 6c 6f 73 	call  9db1befc <LEON_REG+0x1db1befc>
     134:	73 2f 73 70 	call  ccbdcef4 <LEON_REG+0x4cbdcef4>
     138:	61 72 63 5f 	call  85c98eb4 <LEON_REG+0x5c98eb4>
     13c:	6c 65 6f 6e 	call  b195bef4 <LEON_REG+0x3195bef4>
     140:	00 00 70 6e 	unimp  0x706e
     144:	70 69 6e 69 	call  c1a5bae8 <LEON_REG+0x41a5bae8>
     148:	74 5f 73 69 	call  d17dceec <LEON_REG+0x517dceec>
     14c:	6d 70 6c 65 	call  b5c1b2e0 <LEON_REG+0x35c1b2e0>
     150:	2e 63 00 01 	unknown
     154:	00 00 00 00 	unimp  0
     158:	05 02 40 00 	sethi  %hi(0x9000000), %g2
     15c:	01 80 17 02 	fbn  5d64 <_trap_table-0x3fffa29c>
     160:	02 00 01 01 	unknown
     164:	00 00 01 7e 	unimp  0x17e
     168:	00 02 00 00 	unimp  0x20000
     16c:	01 5a 04 01 	unknown
     170:	fb 0e 0d 00 	unknown
     174:	01 01 01 01 	sethi  %hi(0x4040400), %g0
     178:	00 00 00 01 	unimp  0x1
     17c:	00 00 01 2e 	unimp  0x12e
     180:	2e 2f 2e 2e 	unknown
     184:	2f 2e 2e 2f 	sethi  %hi(0xb8b8bc00), %l7
     188:	2e 2e 2f 2e 	unknown
     18c:	2e 2f 6e 65 	unknown
     190:	77 6c 69 62 	call  ddb1a718 <LEON_REG+0x5db1a718>
     194:	2d 31 2e 31 	sethi  %hi(0xc4b8c400), %l6
     198:	33 2e 30 2f 	sethi  %hi(0xb8c0bc00), %i1
     19c:	6c 69 62 67 	call  b1a58b38 <LEON_REG+0x31a58b38>
     1a0:	6c 6f 73 73 	call  b1bdcf6c <LEON_REG+0x31bdcf6c>
     1a4:	2f 73 70 61 	unknown
     1a8:	72 63 5f 6c 	call  c98d7f58 <LEON_REG+0x498d7f58>
     1ac:	65 6f 6e 00 	call  95bdb9ac <LEON_REG+0x15bdb9ac>
     1b0:	2f 68 6f 6d 	unknown
     1b4:	65 2f 62 75 	call  94bd8b88 <LEON_REG+0x14bd8b88>
     1b8:	69 6c 64 2f 	call  a5b19274 <LEON_REG+0x25b19274>
     1bc:	62 63 63 2f 	call  898d8e78 <LEON_REG+0x98d8e78>
     1c0:	42 43 43 5f 	call  90d0f3c <_trap_table-0x36f2f0c4>
     1c4:	52 45 50 2f 	call  49154280 <__JCR_END__+0x9152758>
     1c8:	6e 65 77 6c 	call  b995df78 <LEON_REG+0x3995df78>
     1cc:	69 62 2d 31 	call  a588b690 <LEON_REG+0x2588b690>
     1d0:	2e 31 33 2e 	unknown
     1d4:	30 2f 6e 65 	unknown
     1d8:	77 6c 69 62 	call  ddb1a760 <LEON_REG+0x5db1a760>
     1dc:	2f 6c 69 62 	unknown
     1e0:	63 2f 69 6e 	call  8cbda798 <LEON_REG+0xcbda798>
     1e4:	63 6c 75 64 	call  8db1d774 <LEON_REG+0xdb1d774>
     1e8:	65 2f 73 79 	call  94bdcfcc <LEON_REG+0x14bdcfcc>
     1ec:	73 00 2e 2f 	call  cc00baa8 <LEON_REG+0x4c00baa8>
     1f0:	2e 2e 2f 2e 	unknown
     1f4:	2e 2f 6e 65 	unknown
     1f8:	77 6c 69 62 	call  ddb1a780 <LEON_REG+0x5db1a780>
     1fc:	2f 74 61 72 	unknown
     200:	67 2d 69 6e 	call  9cb5a7b8 <LEON_REG+0x1cb5a7b8>
     204:	63 6c 75 64 	call  8db1d794 <LEON_REG+0xdb1d794>
     208:	65 2f 73 79 	call  94bdcfec <LEON_REG+0x14bdcfec>
     20c:	73 00 2f 68 	call  cc00bfac <LEON_REG+0x4c00bfac>
     210:	6f 6d 65 2f 	call  bdb596cc <LEON_REG+0x3db596cc>
     214:	62 75 69 6c 	call  89d5a7c4 <LEON_REG+0x9d5a7c4>
     218:	64 2f 62 63 	call  90bd8ba4 <LEON_REG+0x10bd8ba4>
     21c:	63 2f 42 43 	call  8cbd0b28 <LEON_REG+0xcbd0b28>
     220:	43 5f 52 45 	call  d7d4b34 <_trap_table-0x3282b4cc>
     224:	50 2f 74 6f 	call  40bdd3e0 <__JCR_END__+0xbdb8b8>
     228:	6f 6c 63 68 	call  bdb18fc8 <LEON_REG+0x3db18fc8>
     22c:	61 69 6e 73 	call  85a5bbf8 <LEON_REG+0x5a5bbf8>
     230:	2f 73 70 61 	unknown
     234:	72 63 2d 65 	call  c98cb7c8 <LEON_REG+0x498cb7c8>
     238:	6c 66 2d 33 	call  b198b704 <LEON_REG+0x3198b704>
     23c:	2e 34 2e 34 	unknown
     240:	2d 31 2e 30 	sethi  %hi(0xc4b8c000), %l6
     244:	2e 34 36 2f 	unknown
     248:	62 69 6e 2f 	call  89a5bb04 <LEON_REG+0x9a5bb04>
     24c:	2e 2e 2f 6c 	unknown
     250:	69 62 2f 67 	call  a588bfec <LEON_REG+0x2588bfec>
     254:	63 63 2f 73 	call  8d8cc020 <LEON_REG+0xd8cc020>
     258:	70 61 72 63 	call  c185cbe4 <LEON_REG+0x4185cbe4>
     25c:	2d 65 6c 66 	unknown
     260:	2f 33 2e 34 	sethi  %hi(0xccb8d000), %l7
     264:	2e 34 2f 69 	unknown
     268:	6e 63 6c 75 	call  b98db43c <LEON_REG+0x398db43c>
     26c:	64 65 00 00 	call  9194026c <LEON_REG+0x1194026c>
     270:	6c 6f 63 6f 	call  b1bd902c <LEON_REG+0x31bd902c>
     274:	72 65 5f 61 	call  c9957ff8 <LEON_REG+0x49957ff8>
     278:	74 65 78 69 	call  d195e41c <LEON_REG+0x5195e41c>
     27c:	74 2e 63 00 	call  d0b98e7c <LEON_REG+0x50b98e7c>
     280:	01 00 00 72 	sethi  %hi(0x1c800), %g0
     284:	65 65 6e 74 	call  9595bc54 <LEON_REG+0x1595bc54>
     288:	2e 68 00 02 	unknown
     28c:	00 00 5f 74 	unimp  0x5f74
     290:	79 70 65 73 	call  e5c1985c <LEON_REG+0x65c1985c>
     294:	2e 68 00 02 	unknown
     298:	00 00 6c 6f 	unimp  0x6c6f
     29c:	63 6b 2e 68 	call  8dacbc3c <LEON_REG+0xdacbc3c>
     2a0:	00 03 00 00 	unimp  0x30000
     2a4:	66 73 75 5f 	call  99cdd820 <LEON_REG+0x19cdd820>
     2a8:	70 74 68 72 	call  c1d1a470 <LEON_REG+0x41d1a470>
     2ac:	65 61 64 5f 	call  95859428 <LEON_REG+0x15859428>
     2b0:	6d 75 74 65 	call  b5d5d444 <LEON_REG+0x35d5d444>
     2b4:	78 2e 68 00 	call  e0b9a2b4 <LEON_REG+0x60b9a2b4>
     2b8:	03 00 00 73 	sethi  %hi(0x1cc00), %g1
     2bc:	74 64 64 65 	call  d1919450 <LEON_REG+0x51919450>
     2c0:	66 2e 68 00 	call  98b9a2c0 <LEON_REG+0x18b9a2c0>
     2c4:	04 00 00 00 	unknown
     2c8:	00 05 02 40 	unimp  0x50240
     2cc:	00 02 28 03 	unimp  0x22803
     2d0:	23 01 15 39 	sethi  %hi(0x454e400), %l1
     2d4:	24 24 0e 30 	unknown
     2d8:	25 29 25 0d 	sethi  %hi(0xa4943400), %l2
     2dc:	33 2f 03 79 	sethi  %hi(0xbc0de400), %i1
     2e0:	2e 02 05 00 	unknown
     2e4:	01 01 00 00 	sethi  %hi(0x4000000), %g0
     2e8:	01 a3 00 02 	fbn  ff8c02f0 <LEON_REG+0x7f8c02f0>
     2ec:	00 00 01 9d 	unimp  0x19d
     2f0:	04 01 fb 0e 	unknown
     2f4:	0d 00 01 01 	sethi  %hi(0x40400), %g6
     2f8:	01 01 00 00 	sethi  %hi(0x4000000), %g0
     2fc:	00 01 00 00 	unimp  0x10000
     300:	01 2e 2e 2f 	sethi  %hi(0xb8b8bc00), %g0
     304:	2e 2e 2f 2e 	unknown
     308:	2e 2f 2e 2e 	unknown
     30c:	2f 2e 2e 2f 	sethi  %hi(0xb8b8bc00), %l7
     310:	2e 2e 2f 6e 	unknown
     314:	65 77 6c 69 	call  95ddb4b8 <LEON_REG+0x15ddb4b8>
     318:	62 2d 31 2e 	call  88b4c7d0 <LEON_REG+0x8b4c7d0>
     31c:	31 33 2e 30 	sethi  %hi(0xccb8c000), %i0
     320:	2f 6e 65 77 	unknown
     324:	6c 69 62 2f 	call  b1a58be0 <LEON_REG+0x31a58be0>
     328:	6c 69 62 63 	call  b1a58cb4 <LEON_REG+0x31a58cb4>
     32c:	2f 72 65 65 	unknown
     330:	6e 74 00 2f 	call  b9d003ec <LEON_REG+0x39d003ec>
     334:	68 6f 6d 65 	call  a1bdb8c8 <LEON_REG+0x21bdb8c8>
     338:	2f 62 75 69 	unknown
     33c:	6c 64 2f 62 	call  b190c0c4 <LEON_REG+0x3190c0c4>
     340:	63 63 2f 42 	call  8d8cc048 <LEON_REG+0xd8cc048>
     344:	43 43 5f 52 	call  d0d808c <_trap_table-0x32f27f74>
     348:	45 50 2f 6e 	call  1540c100 <_trap_table-0x2abf3f00>
     34c:	65 77 6c 69 	call  95ddb4f0 <LEON_REG+0x15ddb4f0>
     350:	62 2d 31 2e 	call  88b4c808 <LEON_REG+0x8b4c808>
     354:	31 33 2e 30 	sethi  %hi(0xccb8c000), %i0
     358:	2f 6e 65 77 	unknown
     35c:	6c 69 62 2f 	call  b1a58c18 <LEON_REG+0x31a58c18>
     360:	6c 69 62 63 	call  b1a58cec <LEON_REG+0x31a58cec>
     364:	2f 69 6e 63 	unknown
     368:	6c 75 64 65 	call  b1d594fc <LEON_REG+0x31d594fc>
     36c:	2f 73 79 73 	unknown
     370:	00 2f 68 6f 	unimp  0xffef686f
     374:	6d 65 2f 62 	call  b594c0fc <LEON_REG+0x3594c0fc>
     378:	75 69 6c 64 	call  d5a5b508 <LEON_REG+0x55a5b508>
     37c:	2f 62 63 63 	unknown
     380:	2f 42 43 43 	unknown
     384:	5f 52 45 50 	call  7d4918c4 <__JCR_END__+0x3d48fd9c>
     388:	2f 67 63 63 	unknown
     38c:	2d 33 2e 34 	sethi  %hi(0xccb8d000), %l6
     390:	2e 34 2d 6d 	unknown
     394:	69 6e 67 77 	call  a5b9a170 <LEON_REG+0x25b9a170>
     398:	2d 31 2e 30 	sethi  %hi(0xc4b8c000), %l6
     39c:	2e 34 36 6e 	unknown
     3a0:	65 77 6c 69 	call  95ddb544 <LEON_REG+0x15ddb544>
     3a4:	62 2d 31 2e 	call  88b4c85c <LEON_REG+0x8b4c85c>
     3a8:	31 33 2e 30 	sethi  %hi(0xccb8c000), %i0
     3ac:	2d 62 75 69 	unknown
     3b0:	6c 64 2f 73 	call  b190c17c <LEON_REG+0x3190c17c>
     3b4:	70 61 72 63 	call  c185cd40 <LEON_REG+0x4185cd40>
     3b8:	2d 65 6c 66 	unknown
     3bc:	2f 73 6f 66 	unknown
     3c0:	74 2f 6e 65 	call  d0bdbd54 <LEON_REG+0x50bdbd54>
     3c4:	77 6c 69 62 	call  ddb1a94c <LEON_REG+0x5db1a94c>
     3c8:	2f 74 61 72 	unknown
     3cc:	67 2d 69 6e 	call  9cb5a984 <LEON_REG+0x1cb5a984>
     3d0:	63 6c 75 64 	call  8db1d960 <LEON_REG+0xdb1d960>
     3d4:	65 2f 73 79 	call  94bdd1b8 <LEON_REG+0x14bdd1b8>
     3d8:	73 00 2f 68 	call  cc00c178 <LEON_REG+0x4c00c178>
     3dc:	6f 6d 65 2f 	call  bdb59898 <LEON_REG+0x3db59898>
     3e0:	62 75 69 6c 	call  89d5a990 <LEON_REG+0x9d5a990>
     3e4:	64 2f 62 63 	call  90bd8d70 <LEON_REG+0x10bd8d70>
     3e8:	63 2f 42 43 	call  8cbd0cf4 <LEON_REG+0xcbd0cf4>
     3ec:	43 5f 52 45 	call  d7d4d00 <_trap_table-0x3282b300>
     3f0:	50 2f 74 6f 	call  40bdd5ac <__JCR_END__+0xbdba84>
     3f4:	6f 6c 63 68 	call  bdb19194 <LEON_REG+0x3db19194>
     3f8:	61 69 6e 73 	call  85a5bdc4 <LEON_REG+0x5a5bdc4>
     3fc:	2f 73 70 61 	unknown
     400:	72 63 2d 65 	call  c98cb994 <LEON_REG+0x498cb994>
     404:	6c 66 2d 33 	call  b198b8d0 <LEON_REG+0x3198b8d0>
     408:	2e 34 2e 34 	unknown
     40c:	2d 31 2e 30 	sethi  %hi(0xc4b8c000), %l6
     410:	2e 34 36 2f 	unknown
     414:	62 69 6e 2f 	call  89a5bcd0 <LEON_REG+0x9a5bcd0>
     418:	2e 2e 2f 6c 	unknown
     41c:	69 62 2f 67 	call  a588c1b8 <LEON_REG+0x2588c1b8>
     420:	63 63 2f 73 	call  8d8cc1ec <LEON_REG+0xd8cc1ec>
     424:	70 61 72 63 	call  c185cdb0 <LEON_REG+0x4185cdb0>
     428:	2d 65 6c 66 	unknown
     42c:	2f 33 2e 34 	sethi  %hi(0xccb8d000), %l7
     430:	2e 34 2f 69 	unknown
     434:	6e 63 6c 75 	call  b98db608 <LEON_REG+0x398db608>
     438:	64 65 00 00 	call  91940438 <LEON_REG+0x11940438>
     43c:	69 6d 70 75 	call  a5b5c610 <LEON_REG+0x25b5c610>
     440:	72 65 2e 63 	call  c994bdcc <LEON_REG+0x4994bdcc>
     444:	00 01 00 00 	unimp  0x10000
     448:	72 65 65 6e 	call  c9959a00 <LEON_REG+0x49959a00>
     44c:	74 2e 68 00 	call  d0b9a44c <LEON_REG+0x50b9a44c>
     450:	02 00 00 5f 	unknown
     454:	74 79 70 65 	call  d1e5c5e8 <LEON_REG+0x51e5c5e8>
     458:	73 2e 68 00 	call  ccb9a458 <LEON_REG+0x4cb9a458>
     45c:	02 00 00 6c 	unknown
     460:	6f 63 6b 2e 	call  bd8db118 <LEON_REG+0x3d8db118>
     464:	68 00 03 00 	call  a0001064 <LEON_REG+0x20001064>
     468:	00 66 73 75 	unknown
     46c:	5f 70 74 68 	call  7dc1d60c <__JCR_END__+0x3dc1bae4>
     470:	72 65 61 64 	call  c9958a00 <LEON_REG+0x49958a00>
     474:	5f 6d 75 74 	call  7db5da44 <__JCR_END__+0x3db5bf1c>
     478:	65 78 2e 68 	call  95e0be18 <LEON_REG+0x15e0be18>
     47c:	00 03 00 00 	unimp  0x30000
     480:	73 74 64 64 	call  cdd19610 <LEON_REG+0x4dd19610>
     484:	65 66 2e 68 	call  9598be24 <LEON_REG+0x1598be24>
     488:	00 04 00 00 	unimp  0x40000
     48c:	00 00 00 00 	unimp  0
     490:	6a 00 02 00 	call  a8000c90 <LEON_REG+0x28000c90>
     494:	00 00 50 04 	unimp  0x5004
     498:	01 fb 0e 0d 	cbn  ffec3ccc <LEON_REG+0x7fec3ccc>
     49c:	00 01 01 01 	unimp  0x10101
     4a0:	01 00 00 00 	nop 
     4a4:	01 00 00 01 	sethi  %hi(0x400), %g0
     4a8:	2e 2e 2f 2e 	unknown
     4ac:	2e 2f 2e 2e 	unknown
     4b0:	2f 2e 2e 2f 	sethi  %hi(0xb8b8bc00), %l7
     4b4:	2e 2e 2f 6e 	unknown
     4b8:	65 77 6c 69 	call  95ddb65c <LEON_REG+0x15ddb65c>
     4bc:	62 2d 31 2e 	call  88b4c974 <LEON_REG+0x8b4c974>
     4c0:	31 33 2e 30 	sethi  %hi(0xccb8c000), %i0
     4c4:	2f 6c 69 62 	unknown
     4c8:	67 6c 6f 73 	call  9db1c294 <LEON_REG+0x1db1c294>
     4cc:	73 2f 73 70 	call  ccbdd28c <LEON_REG+0x4cbdd28c>
     4d0:	61 72 63 5f 	call  85c9924c <LEON_REG+0x5c9924c>
     4d4:	6c 65 6f 6e 	call  b195c28c <LEON_REG+0x3195c28c>
     4d8:	00 00 62 64 	unimp  0x6264
     4dc:	69 6e 69 74 	call  a5b9aaac <LEON_REG+0x25b9aaac>
     4e0:	2e 53 00 01 	unknown
     4e4:	00 00 00 00 	unimp  0
     4e8:	05 02 40 00 	sethi  %hi(0x9000000), %g2
     4ec:	02 80 03 1f 	be  1168 <_trap_table-0x3fffee98>
     4f0:	01 21 28 21 	sethi  %hi(0x84a08400), %g0
     4f4:	28 21 02 01 	unknown
     4f8:	00 01 01 00 	unimp  0x10100
     4fc:	00 00 63 00 	unimp  0x6300
     500:	02 00 00 00 	unknown
     504:	4f 04 01 fb 	call  3c100cf0 <_trap_table-0x3eff310>
     508:	0e 0d 00 01 	unknown
     50c:	01 01 01 00 	sethi  %hi(0x4040000), %g0
     510:	00 00 01 00 	unimp  0x100
     514:	00 01 2e 2e 	unimp  0x12e2e
     518:	2f 2e 2e 2f 	sethi  %hi(0xb8b8bc00), %l7
     51c:	2e 2e 2f 2e 	unknown
     520:	2e 2f 2e 2e 	unknown
     524:	2f 6e 65 77 	unknown
     528:	6c 69 62 2d 	call  b1a58ddc <LEON_REG+0x31a58ddc>
     52c:	31 2e 31 33 	sethi  %hi(0xb8c4cc00), %i0
     530:	2e 30 2f 6c 	unknown
     534:	69 62 67 6c 	call  a589a2e4 <LEON_REG+0x2589a2e4>
     538:	6f 73 73 2f 	call  bdcdd1f4 <LEON_REG+0x3dcdd1f4>
     53c:	73 70 61 72 	call  cdc18b04 <LEON_REG+0x4dc18b04>
     540:	63 5f 6c 65 	call  8d7db6d4 <LEON_REG+0xd7db6d4>
     544:	6f 6e 00 00 	call  bdb80544 <LEON_REG+0x3db80544>
     548:	5f 65 78 69 	call  7d95e6ec <__JCR_END__+0x3d95cbc4>
     54c:	74 2e 63 00 	call  d0b9914c <LEON_REG+0x50b9914c>
     550:	01 00 00 00 	nop 
     554:	00 05 02 40 	unimp  0x50240
     558:	00 02 98 15 	unimp  0x29815
     55c:	13 02 04 00 	sethi  %hi(0x8100000), %o1
     560:	01 01 00 00 	sethi  %hi(0x4000000), %g0
     564:	00 8f 00 02 	bn  3c056c <_trap_table-0x3fc3fa94>
     568:	00 00 00 58 	unimp  0x58
     56c:	04 01 fb 0e 	unknown
     570:	0d 00 01 01 	sethi  %hi(0x40400), %g6
     574:	01 01 00 00 	sethi  %hi(0x4000000), %g0
     578:	00 01 00 00 	unimp  0x10000
     57c:	01 2e 2e 2f 	sethi  %hi(0xb8b8bc00), %g0
     580:	2e 2e 2f 2e 	unknown
     584:	2e 2f 2e 2e 	unknown
     588:	2f 2e 2e 2f 	sethi  %hi(0xb8b8bc00), %l7
     58c:	6e 65 77 6c 	call  b995e33c <LEON_REG+0x3995e33c>
     590:	69 62 2d 31 	call  a588ba54 <LEON_REG+0x2588ba54>
     594:	2e 31 33 2e 	unknown
     598:	30 2f 6c 69 	unknown
     59c:	62 67 6c 6f 	call  899db758 <LEON_REG+0x99db758>
     5a0:	73 73 2f 73 	call  cdccc36c <LEON_REG+0x4dccc36c>
     5a4:	70 61 72 63 	call  c185cf30 <LEON_REG+0x4185cf30>
     5a8:	5f 6c 65 6f 	call  7db19b64 <__JCR_END__+0x3db1803c>
     5ac:	6e 00 00 6c 	call  b800075c <LEON_REG+0x3800075c>
     5b0:	6f 63 6f 72 	call  bd8dc378 <LEON_REG+0x3d8dc378>
     5b4:	65 5f 73 76 	call  957dd38c <LEON_REG+0x157dd38c>
     5b8:	74 64 69 73 	call  d191ab84 <LEON_REG+0x5191ab84>
     5bc:	70 2e 53 00 	call  c0b951bc <LEON_REG+0x40b951bc>
     5c0:	01 00 00 00 	nop 
     5c4:	00 05 02 40 	unimp  0x50240
     5c8:	00 02 a8 03 	unimp  0x2a803
     5cc:	c0 00 01 23 	ld  [ %g0 + %g3 ], %g0
     5d0:	21 26 21 03 	sethi  %hi(0x98840c00), %l0
     5d4:	1f 20 21 21 	sethi  %hi(0x80848400), %o7
     5d8:	21 22 22 21 	sethi  %hi(0x88888400), %l0
     5dc:	21 21 21 21 	sethi  %hi(0x84848400), %l0
     5e0:	21 22 21 21 	sethi  %hi(0x88848400), %l0
     5e4:	21 21 21 21 	sethi  %hi(0x84848400), %l0
     5e8:	21 21 21 21 	sethi  %hi(0x84848400), %l0
     5ec:	21 23 4d 21 	sethi  %hi(0x8d348400), %l0
     5f0:	02 01 00 01 	unknown
     5f4:	01 00 00 00 	nop 
     5f8:	83 00 02 00 	unknown
     5fc:	00 00 5a 04 	unimp  0x5a04
     600:	01 fb 0e 0d 	cbn  ffec3e34 <LEON_REG+0x7fec3e34>
     604:	00 01 01 01 	unimp  0x10101
     608:	01 00 00 00 	nop 
     60c:	01 00 00 01 	sethi  %hi(0x400), %g0
     610:	2e 2e 2f 2e 	unknown
     614:	2e 2f 2e 2e 	unknown
     618:	2f 2e 2e 2f 	sethi  %hi(0xb8b8bc00), %l7
     61c:	2e 2e 2f 6e 	unknown
     620:	65 77 6c 69 	call  95ddb7c4 <LEON_REG+0x15ddb7c4>
     624:	62 2d 31 2e 	call  88b4cadc <LEON_REG+0x8b4cadc>
     628:	31 33 2e 30 	sethi  %hi(0xccb8c000), %i0
     62c:	2f 6c 69 62 	unknown
     630:	67 6c 6f 73 	call  9db1c3fc <LEON_REG+0x1db1c3fc>
     634:	73 2f 73 70 	call  ccbdd3f4 <LEON_REG+0x4cbdd3f4>
     638:	61 72 63 5f 	call  85c993b4 <LEON_REG+0x5c993b4>
     63c:	6c 65 6f 6e 	call  b195c3f4 <LEON_REG+0x3195c3f4>
     640:	00 00 6c 6f 	unimp  0x6c6f
     644:	63 6f 72 65 	call  8dbdcfd8 <LEON_REG+0xdbdcfd8>
     648:	5f 73 76 74 	call  7dcde018 <__JCR_END__+0x3dcdc4f0>
     64c:	5f 72 65 73 	call  7dc99c18 <__JCR_END__+0x3dc980f0>
     650:	65 74 2e 53 	call  95d0bf9c <LEON_REG+0x15d0bf9c>
     654:	00 01 00 00 	unimp  0x10000
     658:	00 00 05 02 	unimp  0x502
     65c:	40 00 03 34 	call  132c <_trap_table-0x3fffecd4>
     660:	03 21 01 22 	sethi  %hi(0x84048800), %g1
     664:	21 21 21 21 	sethi  %hi(0x84848400), %l0
     668:	21 22 21 21 	sethi  %hi(0x88848400), %l0
     66c:	21 21 3d 21 	sethi  %hi(0x84f48400), %l0
     670:	21 21 22 2f 	sethi  %hi(0x8488bc00), %l0
     674:	21 22 21 02 	sethi  %hi(0x88840800), %l0
     678:	01 00 01 01 	sethi  %hi(0x40400), %g0
     67c:	00 00 00 a6 	unimp  0xa6
     680:	00 02 00 00 	unimp  0x20000
     684:	00 86 04 01 	bn  181688 <_trap_table-0x3fe7e978>
     688:	fb 0e 0d 00 	unknown
     68c:	01 01 01 01 	sethi  %hi(0x4040400), %g0
     690:	00 00 00 01 	unimp  0x1
     694:	00 00 01 2e 	unimp  0x12e
     698:	2e 2f 2e 2e 	unknown
     69c:	2f 2e 2e 2f 	sethi  %hi(0xb8b8bc00), %l7
     6a0:	2e 2e 2f 2e 	unknown
     6a4:	2e 2f 6e 65 	unknown
     6a8:	77 6c 69 62 	call  ddb1ac30 <LEON_REG+0x5db1ac30>
     6ac:	2d 31 2e 31 	sethi  %hi(0xc4b8c400), %l6
     6b0:	33 2e 30 2f 	sethi  %hi(0xb8c0bc00), %i1
     6b4:	6c 69 62 67 	call  b1a59050 <LEON_REG+0x31a59050>
     6b8:	6c 6f 73 73 	call  b1bdd484 <LEON_REG+0x31bdd484>
     6bc:	2f 73 70 61 	unknown
     6c0:	72 63 5f 6c 	call  c98d8470 <LEON_REG+0x498d8470>
     6c4:	65 6f 6e 00 	call  95bdbec4 <LEON_REG+0x15bdbec4>
     6c8:	2e 2f 2e 2e 	unknown
     6cc:	2f 2e 2e 2f 	sethi  %hi(0xb8b8bc00), %l7
     6d0:	6e 65 77 6c 	call  b995e480 <LEON_REG+0x3995e480>
     6d4:	69 62 2f 74 	call  a588c4a4 <LEON_REG+0x2588c4a4>
     6d8:	61 72 67 2d 	call  85c9a38c <LEON_REG+0x5c9a38c>
     6dc:	69 6e 63 6c 	call  a5b9948c <LEON_REG+0x25b9948c>
     6e0:	75 64 65 2f 	call  d5919b9c <LEON_REG+0x55919b9c>
     6e4:	61 73 6d 2d 	call  85cdbb98 <LEON_REG+0x5cdbb98>
     6e8:	6c 65 6f 6e 	call  b195c4a0 <LEON_REG+0x3195c4a0>
     6ec:	00 00 69 6e 	unimp  0x696e
     6f0:	69 74 63 61 	call  a5d19474 <LEON_REG+0x25d19474>
     6f4:	6c 6c 73 2e 	call  b1b1d3ac <LEON_REG+0x31b1d3ac>
     6f8:	63 00 01 00 	call  8c000af8 <LEON_REG+0xc000af8>
     6fc:	00 65 6c 66 	unknown
     700:	6d 61 63 72 	call  b58594c8 <LEON_REG+0x358594c8>
     704:	6f 2e 68 00 	call  bcb9a704 <LEON_REG+0x3cb9a704>
     708:	02 00 00 00 	unknown
     70c:	00 05 02 40 	unimp  0x50240
     710:	00 03 94 18 	unimp  0x39418
     714:	22 25 1b 25 	unknown
     718:	47 31 39 31 	call  1cc4ebdc <_trap_table-0x233b1424>
     71c:	0f 2f 30 1d 	sethi  %hi(0xbcc07400), %g7
     720:	15 02 04 00 	sethi  %hi(0x8100000), %o2
     724:	01 01 00 00 	sethi  %hi(0x4000000), %g0
     728:	00 a7 00 02 	bn  ff9c0730 <LEON_REG+0x7f9c0730>
     72c:	00 00 00 50 	unimp  0x50
     730:	04 01 fb 0e 	unknown
     734:	0d 00 01 01 	sethi  %hi(0x40400), %g6
     738:	01 01 00 00 	sethi  %hi(0x4000000), %g0
     73c:	00 01 00 00 	unimp  0x10000
     740:	01 2e 2e 2f 	sethi  %hi(0xb8b8bc00), %g0
     744:	2e 2e 2f 2e 	unknown
     748:	2e 2f 2e 2e 	unknown
     74c:	2f 2e 2e 2f 	sethi  %hi(0xb8b8bc00), %l7
     750:	6e 65 77 6c 	call  b995e500 <LEON_REG+0x3995e500>
     754:	69 62 2d 31 	call  a588bc18 <LEON_REG+0x2588bc18>
     758:	2e 31 33 2e 	unknown
     75c:	30 2f 6c 69 	unknown
     760:	62 67 6c 6f 	call  899db91c <LEON_REG+0x99db91c>
     764:	73 73 2f 73 	call  cdccc530 <LEON_REG+0x4dccc530>
     768:	70 61 72 63 	call  c185d0f4 <LEON_REG+0x4185d0f4>
     76c:	5f 6c 65 6f 	call  7db19d28 <__JCR_END__+0x3db18200>
     770:	6e 00 00 72 	call  b8000938 <LEON_REG+0x38000938>
     774:	65 67 77 69 	call  959de518 <LEON_REG+0x159de518>
     778:	6e 2e 53 00 	call  b8b95378 <LEON_REG+0x38b95378>
     77c:	01 00 00 00 	nop 
     780:	00 05 02 40 	unimp  0x50240
     784:	00 03 f4 03 	unimp  0x3f403
     788:	35 01 21 24 	sethi  %hi(0x4849000), %i2
     78c:	22 21 22 21 	unknown
     790:	22 21 21 03 	unknown
     794:	18 3c 03 09 	unknown
     798:	20 03 09 20 	unknown
     79c:	03 09 20 03 	sethi  %hi(0x24800c00), %g1
     7a0:	09 20 03 09 	sethi  %hi(0x800c2400), %g4
     7a4:	20 03 09 20 	unknown
     7a8:	03 09 20 03 	sethi  %hi(0x24800c00), %g1
     7ac:	09 20 21 25 	sethi  %hi(0x80849400), %g4
     7b0:	21 21 23 21 	sethi  %hi(0x848c8400), %l0
     7b4:	03 19 20 21 	sethi  %hi(0x64808400), %g1
     7b8:	22 21 22 21 	unknown
     7bc:	21 21 3d 21 	sethi  %hi(0x84f48400), %l0
     7c0:	21 21 21 21 	sethi  %hi(0x84848400), %l0
     7c4:	21 21 21 21 	sethi  %hi(0x84848400), %l0
     7c8:	21 21 21 21 	sethi  %hi(0x84848400), %l0
     7cc:	02 01 00 01 	unknown
     7d0:	01 00 00 00 	nop 
     7d4:	de 00 02 00 	ld  [ %g0 ], %o7
     7d8:	00 00 55 04 	unimp  0x5504
     7dc:	01 fb 0e 0d 	cbn  ffec4010 <LEON_REG+0x7fec4010>
     7e0:	00 01 01 01 	unimp  0x10101
     7e4:	01 00 00 00 	nop 
     7e8:	01 00 00 01 	sethi  %hi(0x400), %g0
     7ec:	2e 2e 2f 2e 	unknown
     7f0:	2e 2f 2e 2e 	unknown
     7f4:	2f 2e 2e 2f 	sethi  %hi(0xb8b8bc00), %l7
     7f8:	2e 2e 2f 6e 	unknown
     7fc:	65 77 6c 69 	call  95ddb9a0 <LEON_REG+0x15ddb9a0>
     800:	62 2d 31 2e 	call  88b4ccb8 <LEON_REG+0x8b4ccb8>
     804:	31 33 2e 30 	sethi  %hi(0xccb8c000), %i0
     808:	2f 6c 69 62 	unknown
     80c:	67 6c 6f 73 	call  9db1c5d8 <LEON_REG+0x1db1c5d8>
     810:	73 2f 73 70 	call  ccbdd5d0 <LEON_REG+0x4cbdd5d0>
     814:	61 72 63 5f 	call  85c99590 <LEON_REG+0x5c99590>
     818:	6c 65 6f 6e 	call  b195c5d0 <LEON_REG+0x3195c5d0>
     81c:	00 00 72 65 	unimp  0x7265
     820:	67 77 69 6e 	call  9dddadd8 <LEON_REG+0x1dddadd8>
     824:	66 6c 75 73 	call  99b1ddf0 <LEON_REG+0x19b1ddf0>
     828:	68 2e 53 00 	call  a0b95428 <LEON_REG+0x20b95428>
     82c:	01 00 00 00 	nop 
     830:	00 05 02 40 	unimp  0x50240
     834:	00 04 c0 03 	unimp  0x4c003
     838:	3a 01 23 40 	unknown
     83c:	2f 22 21 3e 	sethi  %hi(0x8884f800), %l7
     840:	75 76 2f 23 	call  d5d8c4cc <LEON_REG+0x55d8c4cc>
     844:	21 21 21 23 	sethi  %hi(0x84848c00), %l0
     848:	34 2f 21 21 	unknown
     84c:	21 21 21 22 	sethi  %hi(0x84848800), %l0
     850:	22 21 21 21 	unknown
     854:	21 21 22 21 	sethi  %hi(0x84888400), %l0
     858:	21 21 23 21 	sethi  %hi(0x848c8400), %l0
     85c:	21 21 24 21 	sethi  %hi(0x84908400), %l0
     860:	21 22 21 21 	sethi  %hi(0x88848400), %l0
     864:	23 21 21 21 	sethi  %hi(0x84848400), %l1
     868:	24 21 21 21 	unknown
     86c:	22 22 2f 21 	unknown
     870:	21 21 21 21 	sethi  %hi(0x84848400), %l0
     874:	24 21 21 21 	unknown
     878:	22 21 03 0d 	unknown
     87c:	20 21 21 3d 	unknown
     880:	21 03 23 20 	sethi  %hi(0xc8c8000), %l0
     884:	21 21 21 21 	sethi  %hi(0x84848400), %l0
     888:	21 22 21 21 	sethi  %hi(0x88848400), %l0
     88c:	21 21 21 21 	sethi  %hi(0x84848400), %l0
     890:	22 21 22 21 	unknown
     894:	21 21 3d 23 	sethi  %hi(0x84f48c00), %l0
     898:	21 22 21 21 	sethi  %hi(0x88848400), %l0
     89c:	21 3d 23 21 	sethi  %hi(0xf48c8400), %l0
     8a0:	21 22 23 22 	sethi  %hi(0x888c8800), %l0
     8a4:	21 27 21 21 	sethi  %hi(0x9c848400), %l0
     8a8:	27 21 21 27 	sethi  %hi(0x84849c00), %l3
     8ac:	21 21 02 01 	sethi  %hi(0x84080400), %l0
     8b0:	00 01 01 00 	unimp  0x10100
     8b4:	00 00 8a 00 	unimp  0x8a00
     8b8:	02 00 00 00 	unknown
     8bc:	56 04 01 fb 	call  581010a8 <__JCR_END__+0x180ff580>
     8c0:	0e 0d 00 01 	unknown
     8c4:	01 01 01 00 	sethi  %hi(0x4040000), %g0
     8c8:	00 00 01 00 	unimp  0x100
     8cc:	00 01 2e 2e 	unimp  0x12e2e
     8d0:	2f 2e 2e 2f 	sethi  %hi(0xb8b8bc00), %l7
     8d4:	2e 2e 2f 2e 	unknown
     8d8:	2e 2f 2e 2e 	unknown
     8dc:	2f 6e 65 77 	unknown
     8e0:	6c 69 62 2d 	call  b1a59194 <LEON_REG+0x31a59194>
     8e4:	31 2e 31 33 	sethi  %hi(0xb8c4cc00), %i0
     8e8:	2e 30 2f 6c 	unknown
     8ec:	69 62 67 6c 	call  a589a69c <LEON_REG+0x2589a69c>
     8f0:	6f 73 73 2f 	call  bdcdd5ac <LEON_REG+0x3dcdd5ac>
     8f4:	73 70 61 72 	call  cdc18ebc <LEON_REG+0x4dc18ebc>
     8f8:	63 5f 6c 65 	call  8d7dba8c <LEON_REG+0xd7dba8c>
     8fc:	6f 6e 00 00 	call  bdb808fc <LEON_REG+0x3db808fc>
     900:	69 72 71 74 	call  a5c9ced0 <LEON_REG+0x25c9ced0>
     904:	72 61 70 5f 	call  c985ca80 <LEON_REG+0x4985ca80>
     908:	66 61 73 74 	call  9985d6d8 <LEON_REG+0x1985d6d8>
     90c:	2e 53 00 01 	unknown
     910:	00 00 00 00 	unimp  0
     914:	05 02 40 00 	sethi  %hi(0x9000000), %g2
     918:	06 f0 03 1e 	unknown
     91c:	01 21 24 03 	sethi  %hi(0x84900c00), %g0
     920:	0a 58 2f 21 	unknown
     924:	21 27 21 21 	sethi  %hi(0x9c848400), %l0
     928:	21 2f 21 21 	sethi  %hi(0xbc848400), %l0
     92c:	21 22 21 3f 	sethi  %hi(0x8884fc00), %l0
     930:	21 24 23 21 	sethi  %hi(0x908c8400), %l0
     934:	21 3e 2f 21 	sethi  %hi(0xf8bc8400), %l0
     938:	21 03 09 20 	sethi  %hi(0xc248000), %l0
     93c:	02 02 00 01 	unknown
     940:	01 00 00 01 	sethi  %hi(0x400), %g0
     944:	34 00 02 00 	unknown
     948:	00 00 bb 04 	unimp  0xbb04
     94c:	01 fb 0e 0d 	cbn  ffec4180 <LEON_REG+0x7fec4180>
     950:	00 01 01 01 	unimp  0x10101
     954:	01 00 00 00 	nop 
     958:	01 00 00 01 	sethi  %hi(0x400), %g0
     95c:	2e 2e 2f 2e 	unknown
     960:	2e 2f 2e 2e 	unknown
     964:	2f 2e 2e 2f 	sethi  %hi(0xb8b8bc00), %l7
     968:	2e 2e 2f 6e 	unknown
     96c:	65 77 6c 69 	call  95ddbb10 <LEON_REG+0x15ddbb10>
     970:	62 2d 31 2e 	call  88b4ce28 <LEON_REG+0x8b4ce28>
     974:	31 33 2e 30 	sethi  %hi(0xccb8c000), %i0
     978:	2f 6c 69 62 	unknown
     97c:	67 6c 6f 73 	call  9db1c748 <LEON_REG+0x1db1c748>
     980:	73 2f 73 70 	call  ccbdd740 <LEON_REG+0x4cbdd740>
     984:	61 72 63 5f 	call  85c99700 <LEON_REG+0x5c99700>
     988:	6c 65 6f 6e 	call  b195c740 <LEON_REG+0x3195c740>
     98c:	00 2e 2f 2e 	unimp  0xffee2f2e
     990:	2e 2f 2e 2e 	unknown
     994:	2f 6e 65 77 	unknown
     998:	6c 69 62 2f 	call  b1a59254 <LEON_REG+0x31a59254>
     99c:	74 61 72 67 	call  d185d338 <LEON_REG+0x5185d338>
     9a0:	2d 69 6e 63 	unknown
     9a4:	6c 75 64 65 	call  b1d59b38 <LEON_REG+0x31d59b38>
     9a8:	2f 61 73 6d 	unknown
     9ac:	2d 6c 65 6f 	unknown
     9b0:	6e 00 00 63 	call  b8000b3c <LEON_REG+0x38000b3c>
     9b4:	61 74 63 68 	call  85d19754 <LEON_REG+0x5d19754>
     9b8:	5f 69 6e 74 	call  7da5c388 <__JCR_END__+0x3da5a860>
     9bc:	65 72 72 75 	call  95c9d390 <LEON_REG+0x15c9d390>
     9c0:	70 74 2e 63 	call  c1d0c34c <LEON_REG+0x41d0c34c>
     9c4:	00 01 00 00 	unimp  0x10000
     9c8:	6c 65 6f 6e 	call  b195c780 <LEON_REG+0x3195c780>
     9cc:	33 2e 68 00 	sethi  %hi(0xb9a00000), %i1
     9d0:	02 00 00 69 	unknown
     9d4:	72 71 2e 68 	call  c9c4c374 <LEON_REG+0x49c4c374>
     9d8:	00 02 00 00 	unimp  0x20000
     9dc:	6c 65 6f 6e 	call  b195c794 <LEON_REG+0x3195c794>
     9e0:	73 74 61 63 	call  cdd18f6c <LEON_REG+0x4dd18f6c>
     9e4:	6b 2e 68 00 	call  acb9a9e4 <LEON_REG+0x2cb9a9e4>
     9e8:	02 00 00 61 	unknown
     9ec:	6d 62 61 2e 	call  b5898ea4 <LEON_REG+0x35898ea4>
     9f0:	68 00 02 00 	call  a00011f0 <LEON_REG+0x200011f0>
     9f4:	00 6c 65 6f 	unknown
     9f8:	6e 63 6f 6d 	call  b98dc7ac <LEON_REG+0x398dc7ac>
     9fc:	70 61 74 2e 	call  c185dab4 <LEON_REG+0x4185dab4>
     a00:	68 00 02 00 	call  a0001200 <LEON_REG+0x20001200>
     a04:	00 00 00 05 	unimp  0x5
     a08:	02 40 00 07 	unknown
     a0c:	90 03 36 01 	add  %o4, -2559, %o0
     a10:	13 03 6c 74 	sethi  %hi(0xdb1d000), %o1
     a14:	21 3d 2d 21 	sethi  %hi(0xf4b48400), %l0
     a18:	1e 22 21 21 	unknown
     a1c:	11 03 09 2e 	sethi  %hi(0xc24b800), %o0
     a20:	2a 11 33 29 	unknown
     a24:	17 30 13 2f 	sethi  %hi(0xc04cbc00), %o3
     a28:	03 79 2e 03 	unknown
     a2c:	18 3c 23 67 	unknown
     a30:	3e 03 12 4a 	unknown
     a34:	03 78 58 4b 	unknown
     a38:	5a 41 03 71 	call  690417fc <__JCR_END__+0x2903fcd4>
     a3c:	4a 03 0f 2e 	call  280c46f4 <_trap_table-0x17f3b90c>
     a40:	03 71 01 30 	unknown
     a44:	3e 10 03 0d 	unknown
     a48:	66 03 73 01 	call  980dd64c <LEON_REG+0x180dd64c>
     a4c:	30 21 1f 21 	unknown
     a50:	2d 13 2f 3d 	sethi  %hi(0x4cbcf400), %l6
     a54:	4b 3e 10 2f 	call  2cf84b10 <_trap_table-0x1307b4f0>
     a58:	2f 03 70 2e 	sethi  %hi(0xdc0b800), %l7
     a5c:	03 22 58 21 	sethi  %hi(0x89608400), %g1
     a60:	30 2c 22 1f 	unknown
     a64:	1f 22 1f 1f 	sethi  %hi(0x887c7c00), %o7
     a68:	2f 4b 21 2c 	unknown
     a6c:	21 40 04 02 	unknown
     a70:	03 ab 7f 01 	fbne  ffae0674 <LEON_REG+0x7fae0674>
     a74:	02 03 00 01 	unknown
     a78:	01 00 00 00 	nop 
     a7c:	a6 00 02 00 	unknown
     a80:	00 00 52 04 	unimp  0x5204
     a84:	01 fb 0e 0d 	cbn  ffec42b8 <LEON_REG+0x7fec42b8>
     a88:	00 01 01 01 	unimp  0x10101
     a8c:	01 00 00 00 	nop 
     a90:	01 00 00 01 	sethi  %hi(0x400), %g0
     a94:	2e 2e 2f 2e 	unknown
     a98:	2e 2f 2e 2e 	unknown
     a9c:	2f 2e 2e 2f 	sethi  %hi(0xb8b8bc00), %l7
     aa0:	2e 2e 2f 6e 	unknown
     aa4:	65 77 6c 69 	call  95ddbc48 <LEON_REG+0x15ddbc48>
     aa8:	62 2d 31 2e 	call  88b4cf60 <LEON_REG+0x8b4cf60>
     aac:	31 33 2e 30 	sethi  %hi(0xccb8c000), %i0
     ab0:	2f 6c 69 62 	unknown
     ab4:	67 6c 6f 73 	call  9db1c880 <LEON_REG+0x1db1c880>
     ab8:	73 2f 73 70 	call  ccbdd878 <LEON_REG+0x4cbdd878>
     abc:	61 72 63 5f 	call  85c99838 <LEON_REG+0x5c99838>
     ac0:	6c 65 6f 6e 	call  b195c878 <LEON_REG+0x3195c878>
     ac4:	00 00 6c 63 	unimp  0x6c63
     ac8:	70 75 69 6e 	call  c1d5b080 <LEON_REG+0x41d5b080>
     acc:	69 74 2e 53 	call  a5d0c418 <LEON_REG+0x25d0c418>
     ad0:	00 01 00 00 	unimp  0x10000
     ad4:	00 00 05 02 	unimp  0x502
     ad8:	40 00 09 c0 	call  31d8 <_trap_table-0x3fffce28>
     adc:	03 24 01 22 	sethi  %hi(0x90048800), %g1
     ae0:	21 21 21 21 	sethi  %hi(0x84848400), %l0
     ae4:	24 24 21 21 	unknown
     ae8:	21 22 21 21 	sethi  %hi(0x88848400), %l0
     aec:	22 21 21 22 	unknown
     af0:	21 23 21 21 	sethi  %hi(0x8c848400), %l0
     af4:	21 21 21 21 	sethi  %hi(0x84848400), %l0
     af8:	21 22 21 22 	sethi  %hi(0x88848800), %l0
     afc:	2f 24 21 21 	sethi  %hi(0x90848400), %l7
     b00:	21 21 21 21 	sethi  %hi(0x84848400), %l0
     b04:	21 22 21 22 	sethi  %hi(0x88848800), %l0
     b08:	21 2f 24 21 	sethi  %hi(0xbc908400), %l0
     b0c:	21 21 21 21 	sethi  %hi(0x84848400), %l0
     b10:	21 21 22 21 	sethi  %hi(0x84888400), %l0
     b14:	22 2f 21 21 	unknown
     b18:	21 21 24 21 	sethi  %hi(0x84908400), %l0
     b1c:	21 24 02 02 	sethi  %hi(0x90080800), %l0
     b20:	00 01 01 00 	unimp  0x10100
     b24:	00 00 57 00 	unimp  0x5700
     b28:	02 00 00 00 	unknown
     b2c:	51 04 01 fb 	call  44101318 <__JCR_END__+0x40ff7f0>
     b30:	0e 0d 00 01 	unknown
     b34:	01 01 01 00 	sethi  %hi(0x4040000), %g0
     b38:	00 00 01 00 	unimp  0x100
     b3c:	00 01 2e 2e 	unimp  0x12e2e
     b40:	2f 2e 2e 2f 	sethi  %hi(0xb8b8bc00), %l7
     b44:	2e 2e 2f 2e 	unknown
     b48:	2e 2f 2e 2e 	unknown
     b4c:	2f 6e 65 77 	unknown
     b50:	6c 69 62 2d 	call  b1a59404 <LEON_REG+0x31a59404>
     b54:	31 2e 31 33 	sethi  %hi(0xb8c4cc00), %i0
     b58:	2e 30 2f 6c 	unknown
     b5c:	69 62 67 6c 	call  a589a90c <LEON_REG+0x2589a90c>
     b60:	6f 73 73 2f 	call  bdcdd81c <LEON_REG+0x3dcdd81c>
     b64:	73 70 61 72 	call  cdc1912c <LEON_REG+0x4dc1912c>
     b68:	63 5f 6c 65 	call  8d7dbcfc <LEON_REG+0xd7dbcfc>
     b6c:	6f 6e 00 00 	call  bdb80b6c <LEON_REG+0x3db80b6c>
     b70:	63 6f 6e 73 	call  8dbdc53c <LEON_REG+0xdbdc53c>
     b74:	6f 6c 65 2e 	call  bdb1a02c <LEON_REG+0x3db1a02c>
     b78:	63 00 01 00 	call  8c000f78 <LEON_REG+0xc000f78>
     b7c:	00 00 00 00 	unimp  0
     b80:	00 8b 00 02 	bn  2c0b88 <_trap_table-0x3fd3f478>
     b84:	00 00 00 50 	unimp  0x50
     b88:	04 01 fb 0e 	unknown
     b8c:	0d 00 01 01 	sethi  %hi(0x40400), %g6
     b90:	01 01 00 00 	sethi  %hi(0x4000000), %g0
     b94:	00 01 00 00 	unimp  0x10000
     b98:	01 2e 2e 2f 	sethi  %hi(0xb8b8bc00), %g0
     b9c:	2e 2e 2f 2e 	unknown
     ba0:	2e 2f 2e 2e 	unknown
     ba4:	2f 2e 2e 2f 	sethi  %hi(0xb8b8bc00), %l7
     ba8:	6e 65 77 6c 	call  b995e958 <LEON_REG+0x3995e958>
     bac:	69 62 2d 31 	call  a588c070 <LEON_REG+0x2588c070>
     bb0:	2e 31 33 2e 	unknown
     bb4:	30 2f 6c 69 	unknown
     bb8:	62 67 6c 6f 	call  899dbd74 <LEON_REG+0x99dbd74>
     bbc:	73 73 2f 73 	call  cdccc988 <LEON_REG+0x4dccc988>
     bc0:	70 61 72 63 	call  c185d54c <LEON_REG+0x4185d54c>
     bc4:	5f 6c 65 6f 	call  7db1a180 <__JCR_END__+0x3db18658>
     bc8:	6e 00 00 6c 	call  b8000d78 <LEON_REG+0x38000d78>
     bcc:	6f 63 6f 72 	call  bd8dc994 <LEON_REG+0x3d8dc994>
     bd0:	65 2e 53 00 	call  94b957d0 <LEON_REG+0x14b957d0>
     bd4:	01 00 00 00 	nop 
     bd8:	00 05 02 40 	unimp  0x50240
     bdc:	00 0a d0 03 	unimp  0xad003
     be0:	c3 00 01 22 	ld  [ %g0 + %g2 ], %f1
     be4:	2f 21 22 2f 	sethi  %hi(0x8488bc00), %l7
     be8:	22 2f 21 22 	unknown
     bec:	2f 21 03 26 	sethi  %hi(0x840c9800), %l7
     bf0:	20 21 21 21 	unknown
     bf4:	21 23 21 22 	sethi  %hi(0x8c848800), %l0
     bf8:	21 25 21 21 	sethi  %hi(0x94848400), %l0
     bfc:	22 21 21 25 	unknown
     c00:	21 21 21 21 	sethi  %hi(0x84848400), %l0
     c04:	22 21 3d 21 	unknown
     c08:	02 01 00 01 	unknown
     c0c:	01 00 00 00 	nop 
     c10:	71 00 02 00 	call  c4001410 <LEON_REG+0x44001410>
     c14:	00 00 56 04 	unimp  0x5604
     c18:	01 fb 0e 0d 	cbn  ffec444c <LEON_REG+0x7fec444c>
     c1c:	00 01 01 01 	unimp  0x10101
     c20:	01 00 00 00 	nop 
     c24:	01 00 00 01 	sethi  %hi(0x400), %g0
     c28:	2e 2e 2f 2e 	unknown
     c2c:	2e 2f 2e 2e 	unknown
     c30:	2f 2e 2e 2f 	sethi  %hi(0xb8b8bc00), %l7
     c34:	2e 2e 2f 6e 	unknown
     c38:	65 77 6c 69 	call  95ddbddc <LEON_REG+0x15ddbddc>
     c3c:	62 2d 31 2e 	call  88b4d0f4 <LEON_REG+0x8b4d0f4>
     c40:	31 33 2e 30 	sethi  %hi(0xccb8c000), %i0
     c44:	2f 6c 69 62 	unknown
     c48:	67 6c 6f 73 	call  9db1ca14 <LEON_REG+0x1db1ca14>
     c4c:	73 2f 73 70 	call  ccbdda0c <LEON_REG+0x4cbdda0c>
     c50:	61 72 63 5f 	call  85c999cc <LEON_REG+0x5c999cc>
     c54:	6c 65 6f 6e 	call  b195ca0c <LEON_REG+0x3195ca0c>
     c58:	00 00 6c 6f 	unimp  0x6c6f
     c5c:	63 6f 72 65 	call  8dbdd5f0 <LEON_REG+0xdbdd5f0>
     c60:	5f 63 6c 65 	call  7d8dbdf4 <__JCR_END__+0x3d8da2cc>
     c64:	61 6e 2e 53 	call  85b8c5b0 <LEON_REG+0x5b8c5b0>
     c68:	00 01 00 00 	unimp  0x10000
     c6c:	00 00 05 02 	unimp  0x502
     c70:	40 00 0b 78 	call  3a50 <_trap_table-0x3fffc5b0>
     c74:	03 25 01 21 	sethi  %hi(0x94048400), %g1
     c78:	03 c9 00 20 	cb123  240cf8 <_trap_table-0x3fdbf308>
     c7c:	21 02 01 00 	sethi  %hi(0x8040000), %l0
     c80:	01 01 00 00 	sethi  %hi(0x4000000), %g0
     c84:	00 7e 00 02 	unknown
     c88:	00 00 00 54 	unimp  0x54
     c8c:	04 01 fb 0e 	unknown
     c90:	0d 00 01 01 	sethi  %hi(0x40400), %g6
     c94:	01 01 00 00 	sethi  %hi(0x4000000), %g0
     c98:	00 01 00 00 	unimp  0x10000
     c9c:	01 2e 2e 2f 	sethi  %hi(0xb8b8bc00), %g0
     ca0:	2e 2e 2f 2e 	unknown
     ca4:	2e 2f 2e 2e 	unknown
     ca8:	2f 2e 2e 2f 	sethi  %hi(0xb8b8bc00), %l7
     cac:	6e 65 77 6c 	call  b995ea5c <LEON_REG+0x3995ea5c>
     cb0:	69 62 2d 31 	call  a588c174 <LEON_REG+0x2588c174>
     cb4:	2e 31 33 2e 	unknown
     cb8:	30 2f 6c 69 	unknown
     cbc:	62 67 6c 6f 	call  899dbe78 <LEON_REG+0x99dbe78>
     cc0:	73 73 2f 73 	call  cdccca8c <LEON_REG+0x4dccca8c>
     cc4:	70 61 72 63 	call  c185d650 <LEON_REG+0x4185d650>
     cc8:	5f 6c 65 6f 	call  7db1a284 <__JCR_END__+0x3db1875c>
     ccc:	6e 00 00 6c 	call  b8000e7c <LEON_REG+0x38000e7c>
     cd0:	6f 63 6f 72 	call  bd8dca98 <LEON_REG+0x3d8dca98>
     cd4:	65 5f 76 61 	call  957de658 <LEON_REG+0x157de658>
     cd8:	72 2e 53 00 	call  c8b958d8 <LEON_REG+0x48b958d8>
     cdc:	01 00 00 00 	nop 
     ce0:	00 05 02 40 	unimp  0x50240
     ce4:	00 0b 88 03 	unimp  0xb8803
     ce8:	26 01 21 21 	unknown
     cec:	21 21 21 21 	sethi  %hi(0x84848400), %l0
     cf0:	2f 21 21 21 	sethi  %hi(0x84848400), %l7
     cf4:	24 21 2f 21 	unknown
     cf8:	21 2f 21 2f 	sethi  %hi(0xbc84bc00), %l0
     cfc:	21 24 21 02 	sethi  %hi(0x90840800), %l0
     d00:	01 00 01 01 	sethi  %hi(0x40400), %g0
     d04:	00 00 00 6e 	unimp  0x6e
     d08:	00 02 00 00 	unimp  0x20000
     d0c:	00 58 04 01 	unknown
     d10:	fb 0e 0d 00 	unknown
     d14:	01 01 01 01 	sethi  %hi(0x4040400), %g0
     d18:	00 00 00 01 	unimp  0x1
     d1c:	00 00 01 2e 	unimp  0x12e
     d20:	2e 2f 2e 2e 	unknown
     d24:	2f 2e 2e 2f 	sethi  %hi(0xb8b8bc00), %l7
     d28:	2e 2e 2f 2e 	unknown
     d2c:	2e 2f 6e 65 	unknown
     d30:	77 6c 69 62 	call  ddb1b2b8 <LEON_REG+0x5db1b2b8>
     d34:	2d 31 2e 31 	sethi  %hi(0xc4b8c400), %l6
     d38:	33 2e 30 2f 	sethi  %hi(0xb8c0bc00), %i1
     d3c:	6c 69 62 67 	call  b1a596d8 <LEON_REG+0x31a596d8>
     d40:	6c 6f 73 73 	call  b1bddb0c <LEON_REG+0x31bddb0c>
     d44:	2f 73 70 61 	unknown
     d48:	72 63 5f 6c 	call  c98d8af8 <LEON_REG+0x498d8af8>
     d4c:	65 6f 6e 00 	call  95bdc54c <LEON_REG+0x15bdc54c>
     d50:	00 6c 6f 63 	unknown
     d54:	6f 72 65 5f 	call  bdc9a2d0 <LEON_REG+0x3dc9a2d0>
     d58:	76 61 72 5f 	call  d985d6d4 <LEON_REG+0x5985d6d4>
     d5c:	73 76 74 2e 	call  cdd9de14 <LEON_REG+0x4dd9de14>
     d60:	53 00 01 00 	call  4c001160 <__JCR_END__+0xbfff638>
     d64:	00 00 00 05 	unimp  0x5
     d68:	02 40 00 0b 	unknown
     d6c:	f0 03 22 01 	ld  [ %o4 + 0x201 ], %i0
     d70:	21 02 01 00 	sethi  %hi(0x8040000), %l0
     d74:	01 01 00 00 	sethi  %hi(0x4000000), %g0
     d78:	00 ea 00 02 	unknown
     d7c:	00 00 00 e4 	unimp  0xe4
     d80:	04 01 fb 0e 	unknown
     d84:	0d 00 01 01 	sethi  %hi(0x40400), %g6
     d88:	01 01 00 00 	sethi  %hi(0x4000000), %g0
     d8c:	00 01 00 00 	unimp  0x10000
     d90:	01 2e 2f 2e 	sethi  %hi(0xb8bcb800), %g0
     d94:	2e 2f 2e 2e 	unknown
     d98:	2f 6e 65 77 	unknown
     d9c:	6c 69 62 2f 	call  b1a59658 <LEON_REG+0x31a59658>
     da0:	74 61 72 67 	call  d185d73c <LEON_REG+0x5185d73c>
     da4:	2d 69 6e 63 	unknown
     da8:	6c 75 64 65 	call  b1d59f3c <LEON_REG+0x31d59f3c>
     dac:	2f 61 73 6d 	unknown
     db0:	2d 6c 65 6f 	unknown
     db4:	6e 00 2e 2e 	call  b800c66c <LEON_REG+0x3800c66c>
     db8:	2f 2e 2e 2f 	sethi  %hi(0xb8b8bc00), %l7
     dbc:	2e 2e 2f 2e 	unknown
     dc0:	2e 2f 2e 2e 	unknown
     dc4:	2f 6e 65 77 	unknown
     dc8:	6c 69 62 2d 	call  b1a5967c <LEON_REG+0x31a5967c>
     dcc:	31 2e 31 33 	sethi  %hi(0xb8c4cc00), %i0
     dd0:	2e 30 2f 6c 	unknown
     dd4:	69 62 67 6c 	call  a589ab84 <LEON_REG+0x2589ab84>
     dd8:	6f 73 73 2f 	call  bdcdda94 <LEON_REG+0x3dcdda94>
     ddc:	73 70 61 72 	call  cdc193a4 <LEON_REG+0x4dc193a4>
     de0:	63 5f 6c 65 	call  8d7dbf74 <LEON_REG+0xd7dbf74>
     de4:	6f 6e 00 2f 	call  bdb80ea0 <LEON_REG+0x3db80ea0>
     de8:	68 6f 6d 65 	call  a1bdc37c <LEON_REG+0x21bdc37c>
     dec:	2f 62 75 69 	unknown
     df0:	6c 64 2f 62 	call  b190cb78 <LEON_REG+0x3190cb78>
     df4:	63 63 2f 42 	call  8d8ccafc <LEON_REG+0xd8ccafc>
     df8:	43 43 5f 52 	call  d0d8b40 <_trap_table-0x32f274c0>
     dfc:	45 50 2f 6e 	call  1540cbb4 <_trap_table-0x2abf344c>
     e00:	65 77 6c 69 	call  95ddbfa4 <LEON_REG+0x15ddbfa4>
     e04:	62 2d 31 2e 	call  88b4d2bc <LEON_REG+0x8b4d2bc>
     e08:	31 33 2e 30 	sethi  %hi(0xccb8c000), %i0
     e0c:	2f 6e 65 77 	unknown
     e10:	6c 69 62 2f 	call  b1a596cc <LEON_REG+0x31a596cc>
     e14:	6c 69 62 63 	call  b1a597a0 <LEON_REG+0x31a597a0>
     e18:	2f 69 6e 63 	unknown
     e1c:	6c 75 64 65 	call  b1d59fb0 <LEON_REG+0x31d59fb0>
     e20:	2f 73 79 73 	unknown
     e24:	00 00 61 6d 	unimp  0x616d
     e28:	62 61 2e 68 	call  8984c7c8 <LEON_REG+0x984c7c8>
     e2c:	00 01 00 00 	unimp  0x10000
     e30:	6c 65 6f 6e 	call  b195cbe8 <LEON_REG+0x3195cbe8>
     e34:	63 6f 6d 70 	call  8dbdc3f4 <LEON_REG+0xdbdc3f4>
     e38:	61 74 2e 68 	call  85d0c7d8 <LEON_REG+0x5d0c7d8>
     e3c:	00 01 00 00 	unimp  0x10000
     e40:	6a 69 66 66 	call  a9a5a7d8 <LEON_REG+0x29a5a7d8>
     e44:	69 65 73 2e 	call  a595dafc <LEON_REG+0x2595dafc>
     e48:	63 00 02 00 	call  8c001648 <LEON_REG+0xc001648>
     e4c:	00 74 79 70 	unknown
     e50:	65 73 2e 68 	call  95ccc7f0 <LEON_REG+0x15ccc7f0>
     e54:	00 01 00 00 	unimp  0x10000
     e58:	74 79 70 65 	call  d1e5cfec <LEON_REG+0x51e5cfec>
     e5c:	73 2e 68 00 	call  ccb9ae5c <LEON_REG+0x4cb9ae5c>
     e60:	03 00 00 00 	sethi  %hi(0), %g1
     e64:	00 00 00 68 	unimp  0x68
     e68:	00 02 00 00 	unimp  0x20000
     e6c:	00 51 04 01 	unknown
     e70:	fb 0e 0d 00 	unknown
     e74:	01 01 01 01 	sethi  %hi(0x4040400), %g0
     e78:	00 00 00 01 	unimp  0x1
     e7c:	00 00 01 2e 	unimp  0x12e
     e80:	2e 2f 2e 2e 	unknown
     e84:	2f 2e 2e 2f 	sethi  %hi(0xb8b8bc00), %l7
     e88:	2e 2e 2f 2e 	unknown
     e8c:	2e 2f 6e 65 	unknown
     e90:	77 6c 69 62 	call  ddb1b418 <LEON_REG+0x5db1b418>
     e94:	2d 31 2e 31 	sethi  %hi(0xc4b8c400), %l6
     e98:	33 2e 30 2f 	sethi  %hi(0xb8c0bc00), %i1
     e9c:	6c 69 62 67 	call  b1a59838 <LEON_REG+0x31a59838>
     ea0:	6c 6f 73 73 	call  b1bddc6c <LEON_REG+0x31bddc6c>
     ea4:	2f 73 70 61 	unknown
     ea8:	72 63 5f 6c 	call  c98d8c58 <LEON_REG+0x498d8c58>
     eac:	65 6f 6e 00 	call  95bdc6ac <LEON_REG+0x15bdc6ac>
     eb0:	00 6d 6d 75 	unknown
     eb4:	5f 61 73 6d 	call  7d85dc68 <__JCR_END__+0x3d85c140>
     eb8:	2e 53 00 01 	unknown
     ebc:	00 00 00 00 	unimp  0
     ec0:	05 02 40 00 	sethi  %hi(0x9000000), %g2
     ec4:	0b f8 03 2a 	cb23  ffe01b6c <LEON_REG+0x7fe01b6c>
     ec8:	01 4b 21 02 	unknown
     ecc:	01 00 01 01 	sethi  %hi(0x40400), %g0
     ed0:	00 00 00 76 	unimp  0x76
     ed4:	00 02 00 00 	unimp  0x20000
     ed8:	00 4f 04 01 	unknown
     edc:	fb 0e 0d 00 	unknown
     ee0:	01 01 01 01 	sethi  %hi(0x4040400), %g0
     ee4:	00 00 00 01 	unimp  0x1
     ee8:	00 00 01 2e 	unimp  0x12e
     eec:	2e 2f 2e 2e 	unknown
     ef0:	2f 2e 2e 2f 	sethi  %hi(0xb8b8bc00), %l7
     ef4:	2e 2e 2f 2e 	unknown
     ef8:	2e 2f 6e 65 	unknown
     efc:	77 6c 69 62 	call  ddb1b484 <LEON_REG+0x5db1b484>
     f00:	2d 31 2e 31 	sethi  %hi(0xc4b8c400), %l6
     f04:	33 2e 30 2f 	sethi  %hi(0xb8c0bc00), %i1
     f08:	6c 69 62 67 	call  b1a598a4 <LEON_REG+0x31a598a4>
     f0c:	6c 6f 73 73 	call  b1bddcd8 <LEON_REG+0x31bddcd8>
     f10:	2f 73 70 61 	unknown
     f14:	72 63 5f 6c 	call  c98d8cc4 <LEON_REG+0x498d8cc4>
     f18:	65 6f 6e 00 	call  95bdc718 <LEON_REG+0x15bdc718>
     f1c:	00 65 74 72 	unknown
     f20:	61 70 2e 53 	call  85c0c86c <LEON_REG+0x5c0c86c>
     f24:	00 01 00 00 	unimp  0x10000
     f28:	00 00 05 02 	unimp  0x502
     f2c:	40 00 0c 10 	call  3f6c <_trap_table-0x3fffc094>
     f30:	03 34 01 22 	sethi  %hi(0xd0048800), %g1
     f34:	ce 21 21 21 	st  %g7, [ %g4 + 0x121 ]
     f38:	21 24 22 21 	sethi  %hi(0x90888400), %l0
     f3c:	22 21 21 22 	unknown
     f40:	23 23 84 28 	sethi  %hi(0x8e10a000), %l1
     f44:	21 02 01 00 	sethi  %hi(0x8040000), %l0
     f48:	01 01 00 00 	sethi  %hi(0x4000000), %g0
     f4c:	00 89 00 02 	bn  240f54 <_trap_table-0x3fdbf0ac>
     f50:	00 00 00 4f 	unimp  0x4f
     f54:	04 01 fb 0e 	unknown
     f58:	0d 00 01 01 	sethi  %hi(0x40400), %g6
     f5c:	01 01 00 00 	sethi  %hi(0x4000000), %g0
     f60:	00 01 00 00 	unimp  0x10000
     f64:	01 2e 2e 2f 	sethi  %hi(0xb8b8bc00), %g0
     f68:	2e 2e 2f 2e 	unknown
     f6c:	2e 2f 2e 2e 	unknown
     f70:	2f 2e 2e 2f 	sethi  %hi(0xb8b8bc00), %l7
     f74:	6e 65 77 6c 	call  b995ed24 <LEON_REG+0x3995ed24>
     f78:	69 62 2d 31 	call  a588c43c <LEON_REG+0x2588c43c>
     f7c:	2e 31 33 2e 	unknown
     f80:	30 2f 6c 69 	unknown
     f84:	62 67 6c 6f 	call  899dc140 <LEON_REG+0x99dc140>
     f88:	73 73 2f 73 	call  cdcccd54 <LEON_REG+0x4dcccd54>
     f8c:	70 61 72 63 	call  c185d918 <LEON_REG+0x4185d918>
     f90:	5f 6c 65 6f 	call  7db1a54c <__JCR_END__+0x3db18a24>
     f94:	6e 00 00 72 	call  b800115c <LEON_REG+0x3800115c>
     f98:	74 72 61 70 	call  d1c99558 <LEON_REG+0x51c99558>
     f9c:	2e 53 00 01 	unknown
     fa0:	00 00 00 00 	unimp  0
     fa4:	05 02 40 00 	sethi  %hi(0x9000000), %g2
     fa8:	0c a8 03 1b 	bneg  ffa01c14 <LEON_REG+0x7fa01c14>
     fac:	01 2f 21 21 	sethi  %hi(0xbc848400), %g0
     fb0:	21 22 24 03 	sethi  %hi(0x88900c00), %l0
     fb4:	0b 20 24 21 	sethi  %hi(0x80908400), %g5
     fb8:	22 21 22 21 	unknown
     fbc:	21 21 21 21 	sethi  %hi(0x84848400), %l0
     fc0:	23 21 22 21 	sethi  %hi(0x84888400), %l1
     fc4:	21 22 23 ca 	sethi  %hi(0x888f2800), %l0
     fc8:	21 83 21 27 	fbn,a   c9464 <_trap_table-0x3ff36b9c>
     fcc:	03 09 c8 21 	sethi  %hi(0x27208400), %g1
     fd0:	3e 21 02 01 	unknown
     fd4:	00 01 01 00 	unimp  0x10100
     fd8:	00 00 7c 00 	unimp  0x7c00
     fdc:	02 00 00 00 	unknown
     fe0:	54 04 01 fb 	call  501017cc <__JCR_END__+0x100ffca4>
     fe4:	0e 0d 00 01 	unknown
     fe8:	01 01 01 00 	sethi  %hi(0x4040000), %g0
     fec:	00 00 01 00 	unimp  0x100
     ff0:	00 01 2e 2e 	unimp  0x12e2e
     ff4:	2f 2e 2e 2f 	sethi  %hi(0xb8b8bc00), %l7
     ff8:	2e 2e 2f 2e 	unknown
     ffc:	2e 2f 2e 2e 	unknown
    1000:	2f 6e 65 77 	unknown
    1004:	6c 69 62 2d 	call  b1a598b8 <LEON_REG+0x31a598b8>
    1008:	31 2e 31 33 	sethi  %hi(0xb8c4cc00), %i0
    100c:	2e 30 2f 6c 	unknown
    1010:	69 62 67 6c 	call  a589adc0 <LEON_REG+0x2589adc0>
    1014:	6f 73 73 2f 	call  bdcddcd0 <LEON_REG+0x3dcddcd0>
    1018:	73 70 61 72 	call  cdc195e0 <LEON_REG+0x4dc195e0>
    101c:	63 5f 6c 65 	call  8d7dc1b0 <LEON_REG+0xd7dc1b0>
    1020:	6f 6e 00 00 	call  bdb81020 <LEON_REG+0x3db81020>
    1024:	65 74 72 61 	call  95d1d9a8 <LEON_REG+0x15d1d9a8>
    1028:	70 5f 66 61 	call  c17da9ac <LEON_REG+0x417da9ac>
    102c:	73 74 2e 53 	call  cdd0c978 <LEON_REG+0x4dd0c978>
    1030:	00 01 00 00 	unimp  0x10000
    1034:	00 00 05 02 	unimp  0x502
    1038:	40 00 0d b8 	call  4718 <_trap_table-0x3fffb8e8>
    103c:	03 3a 01 21 	sethi  %hi(0xe8048400), %g1
    1040:	21 6d 21 21 	unknown
    1044:	21 21 24 22 	sethi  %hi(0x84908800), %l0
    1048:	21 22 21 21 	sethi  %hi(0x88848400), %l0
    104c:	22 23 23 84 	unknown
    1050:	28 21 02 01 	unknown
    1054:	00 01 01 00 	unimp  0x10100
    1058:	00 00 8e 00 	unimp  0x8e00
    105c:	02 00 00 00 	unknown
    1060:	54 04 01 fb 	call  5010184c <__JCR_END__+0x100ffd24>
    1064:	0e 0d 00 01 	unknown
    1068:	01 01 01 00 	sethi  %hi(0x4040000), %g0
    106c:	00 00 01 00 	unimp  0x100
    1070:	00 01 2e 2e 	unimp  0x12e2e
    1074:	2f 2e 2e 2f 	sethi  %hi(0xb8b8bc00), %l7
    1078:	2e 2e 2f 2e 	unknown
    107c:	2e 2f 2e 2e 	unknown
    1080:	2f 6e 65 77 	unknown
    1084:	6c 69 62 2d 	call  b1a59938 <LEON_REG+0x31a59938>
    1088:	31 2e 31 33 	sethi  %hi(0xb8c4cc00), %i0
    108c:	2e 30 2f 6c 	unknown
    1090:	69 62 67 6c 	call  a589ae40 <LEON_REG+0x2589ae40>
    1094:	6f 73 73 2f 	call  bdcddd50 <LEON_REG+0x3dcddd50>
    1098:	73 70 61 72 	call  cdc19660 <LEON_REG+0x4dc19660>
    109c:	63 5f 6c 65 	call  8d7dc230 <LEON_REG+0xd7dc230>
    10a0:	6f 6e 00 00 	call  bdb810a0 <LEON_REG+0x3db810a0>
    10a4:	72 74 72 61 	call  c9d1da28 <LEON_REG+0x49d1da28>
    10a8:	70 5f 66 61 	call  c17daa2c <LEON_REG+0x417daa2c>
    10ac:	73 74 2e 53 	call  cdd0c9f8 <LEON_REG+0x4dd0c9f8>
    10b0:	00 01 00 00 	unimp  0x10000
    10b4:	00 00 05 02 	unimp  0x502
    10b8:	40 00 0e 38 	call  4998 <_trap_table-0x3fffb668>
    10bc:	03 1d 01 2f 	sethi  %hi(0x7404bc00), %g1
    10c0:	21 21 21 22 	sethi  %hi(0x84848800), %l0
    10c4:	24 03 22 20 	unknown
    10c8:	24 21 22 21 	unknown
    10cc:	22 21 21 21 	unknown
    10d0:	21 21 23 21 	sethi  %hi(0x848c8400), %l0
    10d4:	22 21 21 22 	unknown
    10d8:	23 68 21 83 	unknown
    10dc:	21 27 03 0a 	sethi  %hi(0x9c0c2800), %l0
    10e0:	66 21 3e 21 	call  98850964 <LEON_REG+0x18850964>
    10e4:	02 01 00 01 	unknown
    10e8:	01 00 00 00 	nop 
    10ec:	a2 00 02 00 	unknown
    10f0:	00 00 51 04 	unimp  0x5104
    10f4:	01 fb 0e 0d 	cbn  ffec4928 <LEON_REG+0x7fec4928>
    10f8:	00 01 01 01 	unimp  0x10101
    10fc:	01 00 00 00 	nop 
    1100:	01 00 00 01 	sethi  %hi(0x400), %g0
    1104:	2e 2e 2f 2e 	unknown
    1108:	2e 2f 2e 2e 	unknown
    110c:	2f 2e 2e 2f 	sethi  %hi(0xb8b8bc00), %l7
    1110:	2e 2e 2f 6e 	unknown
    1114:	65 77 6c 69 	call  95ddc2b8 <LEON_REG+0x15ddc2b8>
    1118:	62 2d 31 2e 	call  88b4d5d0 <LEON_REG+0x8b4d5d0>
    111c:	31 33 2e 30 	sethi  %hi(0xccb8c000), %i0
    1120:	2f 6c 69 62 	unknown
    1124:	67 6c 6f 73 	call  9db1cef0 <LEON_REG+0x1db1cef0>
    1128:	73 2f 73 70 	call  ccbddee8 <LEON_REG+0x4cbddee8>
    112c:	61 72 63 5f 	call  85c99ea8 <LEON_REG+0x5c99ea8>
    1130:	6c 65 6f 6e 	call  b195cee8 <LEON_REG+0x3195cee8>
    1134:	00 00 62 75 	unimp  0x6275
    1138:	73 73 63 61 	call  cdcd9ebc <LEON_REG+0x4dcd9ebc>
    113c:	6e 2e 53 00 	call  b8b95d3c <LEON_REG+0x38b95d3c>
    1140:	01 00 00 00 	nop 
    1144:	00 05 02 40 	unimp  0x50240
    1148:	00 0f 10 03 	unimp  0xf1003
    114c:	2b 01 21 21 	sethi  %hi(0x4848400), %l5
    1150:	21 22 21 21 	sethi  %hi(0x88848400), %l0
    1154:	21 21 21 21 	sethi  %hi(0x84848400), %l0
    1158:	21 21 21 21 	sethi  %hi(0x84848400), %l0
    115c:	21 22 21 21 	sethi  %hi(0x88848400), %l0
    1160:	21 22 21 03 	sethi  %hi(0x88840c00), %l0
    1164:	17 20 21 21 	sethi  %hi(0x80848400), %o3
    1168:	22 21 21 21 	unknown
    116c:	21 21 21 21 	sethi  %hi(0x84848400), %l0
    1170:	21 21 21 21 	sethi  %hi(0x84848400), %l0
    1174:	22 21 21 21 	unknown
    1178:	22 21 03 11 	unknown
    117c:	20 21 21 21 	unknown
    1180:	21 21 21 21 	sethi  %hi(0x84848400), %l0
    1184:	21 21 21 21 	sethi  %hi(0x84848400), %l0
    1188:	21 21 02 01 	sethi  %hi(0x84080400), %l0
    118c:	00 01 01 00 	unimp  0x10100
    1190:	00 00 53 00 	unimp  0x5300
    1194:	02 00 00 00 	unknown
    1198:	4d 04 01 fb 	call  34101984 <_trap_table-0xbefe67c>
    119c:	0e 0d 00 01 	unknown
    11a0:	01 01 01 00 	sethi  %hi(0x4040000), %g0
    11a4:	00 00 01 00 	unimp  0x100
    11a8:	00 01 2e 2e 	unimp  0x12e2e
    11ac:	2f 2e 2e 2f 	sethi  %hi(0xb8b8bc00), %l7
    11b0:	2e 2e 2f 2e 	unknown
    11b4:	2e 2f 2e 2e 	unknown
    11b8:	2f 6e 65 77 	unknown
    11bc:	6c 69 62 2d 	call  b1a59a70 <LEON_REG+0x31a59a70>
    11c0:	31 2e 31 33 	sethi  %hi(0xb8c4cc00), %i0
    11c4:	2e 30 2f 6c 	unknown
    11c8:	69 62 67 6c 	call  a589af78 <LEON_REG+0x2589af78>
    11cc:	6f 73 73 2f 	call  bdcdde88 <LEON_REG+0x3dcdde88>
    11d0:	73 70 61 72 	call  cdc19798 <LEON_REG+0x4dc19798>
    11d4:	63 5f 6c 65 	call  8d7dc368 <LEON_REG+0xd7dc368>
    11d8:	6f 6e 00 00 	call  bdb811d8 <LEON_REG+0x3db811d8>
    11dc:	72 74 63 2e 	call  c9d19e94 <LEON_REG+0x49d19e94>
    11e0:	63 00 01 00 	call  8c0015e0 <LEON_REG+0xc0015e0>
    11e4:	Address 0x000011e4 is out of bounds.

Disassembly of section .debug_frame:

00000000 <.debug_frame>:
   0:	00 00 00 0c 	unimp  0xc
   4:	ff ff ff ff 	unknown
   8:	01 00 01 7c 	sethi  %hi(0x5f000), %g0
   c:	0f 0c 0e 00 	sethi  %hi(0x30380000), %g7
  10:	00 00 00 0c 	unimp  0xc
  14:	00 00 00 00 	unimp  0
  18:	40 00 01 80 	call  618 <_trap_table-0x3ffff9e8>
  1c:	00 00 00 08 	unimp  0x8
  20:	00 00 00 0c 	unimp  0xc
  24:	ff ff ff ff 	unknown
  28:	01 00 01 7c 	sethi  %hi(0x5f000), %g0
  2c:	0f 0c 0e 00 	sethi  %hi(0x30380000), %g7
  30:	00 00 00 0c 	unimp  0xc
  34:	00 00 00 20 	unimp  0x20
  38:	40 00 02 28 	call  8d8 <_trap_table-0x3ffff728>
  3c:	00 00 00 58 	unimp  0x58
  40:	00 00 00 0c 	unimp  0xc
  44:	ff ff ff ff 	unknown
  48:	01 00 01 7c 	sethi  %hi(0x5f000), %g0
  4c:	0f 0c 0e 00 	sethi  %hi(0x30380000), %g7
  50:	00 00 00 0c 	unimp  0xc
  54:	00 00 00 40 	unimp  0x40
  58:	40 00 02 98 	call  ab8 <_trap_table-0x3ffff548>
  5c:	00 00 00 10 	unimp  0x10
  60:	00 00 00 0c 	unimp  0xc
  64:	ff ff ff ff 	unknown
  68:	01 00 01 7c 	sethi  %hi(0x5f000), %g0
  6c:	0f 0c 0e 00 	sethi  %hi(0x30380000), %g7
  70:	00 00 00 14 	unimp  0x14
  74:	00 00 00 60 	unimp  0x60
  78:	40 00 03 94 	call  ec8 <_trap_table-0x3ffff138>
  7c:	00 00 00 60 	unimp  0x60
  80:	44 0d 1e 2d 	call  10347934 <_trap_table-0x2fcb86cc>
  84:	09 0f 1f 00 	sethi  %hi(0x3c7c0000), %g4
  88:	00 00 00 0c 	unimp  0xc
  8c:	ff ff ff ff 	unknown
  90:	01 00 01 7c 	sethi  %hi(0x5f000), %g0
  94:	0f 0c 0e 00 	sethi  %hi(0x30380000), %g7
  98:	00 00 00 0c 	unimp  0xc
  9c:	00 00 00 88 	unimp  0x88
  a0:	40 00 07 90 	call  1ee0 <_trap_table-0x3fffe120>
  a4:	00 00 00 1c 	unimp  0x1c
  a8:	00 00 00 14 	unimp  0x14
  ac:	00 00 00 88 	unimp  0x88
  b0:	40 00 07 ac 	call  1f60 <_trap_table-0x3fffe0a0>
  b4:	00 00 00 70 	unimp  0x70
  b8:	44 0d 1e 2d 	call  1034796c <_trap_table-0x2fcb8694>
  bc:	09 0f 1f 00 	sethi  %hi(0x3c7c0000), %g4
  c0:	00 00 00 14 	unimp  0x14
  c4:	00 00 00 88 	unimp  0x88
  c8:	40 00 08 1c 	call  2138 <_trap_table-0x3fffdec8>
  cc:	00 00 01 38 	unimp  0x138
  d0:	44 0d 1e 2d 	call  10347984 <_trap_table-0x2fcb867c>
  d4:	09 0f 1f 00 	sethi  %hi(0x3c7c0000), %g4
  d8:	00 00 00 14 	unimp  0x14
  dc:	00 00 00 88 	unimp  0x88
  e0:	40 00 09 54 	call  2630 <_trap_table-0x3fffd9d0>
  e4:	00 00 00 60 	unimp  0x60
  e8:	44 0d 1e 2d 	call  1034799c <_trap_table-0x2fcb8664>
  ec:	09 0f 1f 00 	sethi  %hi(0x3c7c0000), %g4
  f0:	00 00 00 0c 	unimp  0xc
  f4:	00 00 00 88 	unimp  0x88
  f8:	40 00 09 b4 	call  27c8 <_trap_table-0x3fffd838>
  fc:	00 00 00 0c 	unimp  0xc
Disassembly of section .debug_str:

00000000 <.debug_str>:
   0:	75 6e 73 69 	call  d5b9cda4 <LEON_REG+0x55b9cda4>
   4:	67 6e 65 64 	call  9db99594 <LEON_REG+0x1db99594>
   8:	20 63 68 61 	unknown
   c:	72 00 6c 6f 	call  c801b1c8 <LEON_REG+0x4801b1c8>
  10:	6e 67 20 6c 	call  b99c81c0 <LEON_REG+0x399c81c0>
  14:	6f 6e 67 20 	call  bdb99c94 <LEON_REG+0x3db99c94>
  18:	75 6e 73 69 	call  d5b9cdbc <LEON_REG+0x55b9cdbc>
  1c:	67 6e 65 64 	call  9db995ac <LEON_REG+0x1db995ac>
  20:	20 69 6e 74 	unknown
  24:	00 6c 6f 6e 	unknown
  28:	67 20 6c 6f 	call  9c81b1e4 <LEON_REG+0x1c81b1e4>
  2c:	6e 67 20 69 	call  b99c81d0 <LEON_REG+0x399c81d0>
  30:	6e 74 00 73 	call  b9d001fc <LEON_REG+0x39d001fc>
  34:	68 6f 72 74 	call  a1bdca04 <LEON_REG+0x21bdca04>
  38:	20 75 6e 73 	unknown
  3c:	69 67 6e 65 	call  a59db9d0 <LEON_REG+0x259db9d0>
  40:	64 20 69 6e 	call  9081a5f8 <LEON_REG+0x1081a5f8>
  44:	74 00 2f 68 	call  d000bde4 <LEON_REG+0x5000bde4>
  48:	6f 6d 65 2f 	call  bdb59504 <LEON_REG+0x3db59504>
  4c:	62 75 69 6c 	call  89d5a5fc <LEON_REG+0x9d5a5fc>
  50:	64 2f 62 63 	call  90bd89dc <LEON_REG+0x10bd89dc>
  54:	63 2f 42 43 	call  8cbd0960 <LEON_REG+0xcbd0960>
  58:	43 5f 52 45 	call  d7d496c <_trap_table-0x3282b694>
  5c:	50 2f 67 63 	call  40bd9de8 <__JCR_END__+0xbd82c0>
  60:	63 2d 33 2e 	call  8cb4cd18 <LEON_REG+0xcb4cd18>
  64:	34 2e 34 2d 	unknown
  68:	6d 69 6e 67 	call  b5a5ba04 <LEON_REG+0x35a5ba04>
  6c:	77 2d 31 2e 	call  dcb4c524 <LEON_REG+0x5cb4c524>
  70:	30 2e 34 36 	unknown
  74:	6e 65 77 6c 	call  b995de24 <LEON_REG+0x3995de24>
  78:	69 62 2d 31 	call  a588b53c <LEON_REG+0x2588b53c>
  7c:	2e 31 33 2e 	unknown
  80:	30 2d 62 75 	unknown
  84:	69 6c 64 2f 	call  a5b19140 <LEON_REG+0x25b19140>
  88:	73 70 61 72 	call  cdc18650 <LEON_REG+0x4dc18650>
  8c:	63 2d 65 6c 	call  8cb5963c <LEON_REG+0xcb5963c>
  90:	66 2f 73 6f 	call  98bdce4c <LEON_REG+0x18bdce4c>
  94:	66 74 2f 6c 	call  99d0be44 <LEON_REG+0x19d0be44>
  98:	69 62 67 6c 	call  a5899e48 <LEON_REG+0x25899e48>
  9c:	6f 73 73 2f 	call  bdcdcd58 <LEON_REG+0x3dcdcd58>
  a0:	73 70 61 72 	call  cdc18668 <LEON_REG+0x4dc18668>
  a4:	63 5f 6c 65 	call  8d7db238 <LEON_REG+0xd7db238>
  a8:	6f 6e 00 47 	call  bdb801c4 <LEON_REG+0x3db801c4>
  ac:	4e 55 20 43 	call  395481b8 <_trap_table-0x6ab7e48>
  b0:	20 33 2e 34 	unknown
  b4:	2e 34 00 70 	unknown
  b8:	6e 70 69 6e 	call  b9c1a670 <LEON_REG+0x39c1a670>
  bc:	69 74 00 73 	call  a5d00288 <LEON_REG+0x25d00288>
  c0:	68 6f 72 74 	call  a1bdca90 <LEON_REG+0x21bdca90>
  c4:	20 69 6e 74 	unknown
  c8:	00 2e 2e 2f 	unimp  0xffee2e2f
  cc:	2e 2e 2f 2e 	unknown
  d0:	2e 2f 2e 2e 	unknown
  d4:	2f 2e 2e 2f 	sethi  %hi(0xb8b8bc00), %l7
  d8:	6e 65 77 6c 	call  b995de88 <LEON_REG+0x3995de88>
  dc:	69 62 2d 31 	call  a588b5a0 <LEON_REG+0x2588b5a0>
  e0:	2e 31 33 2e 	unknown
  e4:	30 2f 6c 69 	unknown
  e8:	62 67 6c 6f 	call  899db2a4 <LEON_REG+0x99db2a4>
  ec:	73 73 2f 73 	call  cdccbeb8 <LEON_REG+0x4dccbeb8>
  f0:	70 61 72 63 	call  c185ca7c <LEON_REG+0x4185ca7c>
  f4:	5f 6c 65 6f 	call  7db196b0 <__JCR_END__+0x3db17b88>
  f8:	6e 2f 70 6e 	call  b8bdc2b0 <LEON_REG+0x38bdc2b0>
  fc:	70 69 6e 69 	call  c1a5baa0 <LEON_REG+0x41a5baa0>
 100:	74 5f 73 69 	call  d17dcea4 <LEON_REG+0x517dcea4>
 104:	6d 70 6c 65 	call  b5c1b298 <LEON_REG+0x35c1b298>
 108:	2e 63 00 5f 	unknown
 10c:	63 6c 6f 73 	call  8db1bed8 <LEON_REG+0xdb1bed8>
 110:	65 00 5f 69 	call  94017eb4 <LEON_REG+0x14017eb4>
 114:	6f 62 73 00 	call  bd89cd14 <LEON_REG+0x3d89cd14>
 118:	5f 6d 62 6c 	call  7db58ac8 <__JCR_END__+0x3db56fa0>
 11c:	65 6e 5f 73 	call  95b97ee8 <LEON_REG+0x15b97ee8>
 120:	74 61 74 65 	call  d185d2b4 <LEON_REG+0x5185d2b4>
 124:	00 5f 5f 73 	unknown
 128:	66 00 5f 6c 	call  98017ed8 <LEON_REG+0x18017ed8>
 12c:	36 34 61 5f 	unknown
 130:	62 75 66 00 	call  89d59930 <LEON_REG+0x9d59930>
 134:	70 74 68 72 	call  c1d1a2fc <LEON_REG+0x41d1a2fc>
 138:	65 61 64 5f 	call  958592b4 <LEON_REG+0x158592b4>
 13c:	6d 75 74 65 	call  b5d5d2d0 <LEON_REG+0x35d5d2d0>
 140:	78 00 5f 5f 	call  e0017ebc <LEON_REG+0x60017ebc>
 144:	77 63 68 00 	call  dd8da144 <LEON_REG+0x5d8da144>
 148:	5f 77 63 72 	call  7ddd8f10 <__JCR_END__+0x3ddd73e8>
 14c:	74 6f 6d 62 	call  d1bdb6d4 <LEON_REG+0x51bdb6d4>
 150:	5f 73 74 61 	call  7dcdd2d4 <__JCR_END__+0x3dcdb7ac>
 154:	74 65 00 5f 	call  d19402d0 <LEON_REG+0x519402d0>
 158:	6c 62 66 73 	call  b1899b24 <LEON_REG+0x31899b24>
 15c:	69 7a 65 00 	call  a5e9955c <LEON_REG+0x25e9955c>
 160:	5f 5f 76 61 	call  7d7ddae4 <__JCR_END__+0x3d7dbfbc>
 164:	6c 75 65 00 	call  b1d59564 <LEON_REG+0x31d59564>
 168:	2e 2e 2f 2e 	unknown
 16c:	2e 2f 2e 2e 	unknown
 170:	2f 2e 2e 2f 	sethi  %hi(0xb8b8bc00), %l7
 174:	2e 2e 2f 6e 	unknown
 178:	65 77 6c 69 	call  95ddb31c <LEON_REG+0x15ddb31c>
 17c:	62 2d 31 2e 	call  88b4c634 <LEON_REG+0x8b4c634>
 180:	31 33 2e 30 	sethi  %hi(0xccb8c000), %i0
 184:	2f 6c 69 62 	unknown
 188:	67 6c 6f 73 	call  9db1bf54 <LEON_REG+0x1db1bf54>
 18c:	73 2f 73 70 	call  ccbdcf4c <LEON_REG+0x4cbdcf4c>
 190:	61 72 63 5f 	call  85c98f0c <LEON_REG+0x5c98f0c>
 194:	6c 65 6f 6e 	call  b195bf4c <LEON_REG+0x3195bf4c>
 198:	2f 6c 6f 63 	unknown
 19c:	6f 72 65 5f 	call  bdc99718 <LEON_REG+0x3dc99718>
 1a0:	61 74 65 78 	call  85d19780 <LEON_REG+0x5d19780>
 1a4:	69 74 2e 63 	call  a5d0bb30 <LEON_REG+0x25d0bb30>
 1a8:	00 5f 5f 73 	unknown
 1ac:	62 75 66 00 	call  89d599ac <LEON_REG+0x9d599ac>
 1b0:	5f 67 6c 6f 	call  7d9db36c <__JCR_END__+0x3d9d9844>
 1b4:	62 61 6c 5f 	call  8985b330 <LEON_REG+0x985b330>
 1b8:	69 6d 70 75 	call  a5b5c38c <LEON_REG+0x25b5c38c>
 1bc:	72 65 5f 70 	call  c9957f7c <LEON_REG+0x49957f7c>
 1c0:	74 72 00 70 	call  d1c80380 <LEON_REG+0x51c80380>
 1c4:	74 68 72 65 	call  d1a1cb58 <LEON_REG+0x51a1cb58>
 1c8:	61 64 00 5f 	call  85900344 <LEON_REG+0x5900344>
 1cc:	72 65 73 75 	call  c995cfa0 <LEON_REG+0x4995cfa0>
 1d0:	6c 74 5f 6b 	call  b1d17f7c <LEON_REG+0x31d17f7c>
 1d4:	00 5f 6f 66 	unknown
 1d8:	66 73 65 74 	call  99cd97a8 <LEON_REG+0x19cd97a8>
 1dc:	00 5f 73 69 	unknown
 1e0:	67 6e 61 6c 	call  9db98790 <LEON_REG+0x1db98790>
 1e4:	5f 62 75 66 	call  7d89d77c <__JCR_END__+0x3d89bc54>
 1e8:	00 5f 73 65 	unknown
 1ec:	65 6b 00 5f 	call  95ac0368 <LEON_REG+0x15ac0368>
 1f0:	5f 6c 69 62 	call  7db1a778 <__JCR_END__+0x3db18c50>
 1f4:	63 5f 6c 6f 	call  8d7db3b0 <LEON_REG+0xd7db3b0>
 1f8:	63 6b 5f 72 	call  8dad7fc0 <LEON_REG+0xdad7fc0>
 1fc:	65 63 75 72 	call  958dd7c4 <LEON_REG+0x158dd7c4>
 200:	73 69 76 65 	call  cda5db94 <LEON_REG+0x4da5db94>
 204:	5f 74 00 5f 	call  7dd00380 <__JCR_END__+0x3dcfe858>
 208:	73 69 67 5f 	call  cda59f84 <LEON_REG+0x4da59f84>
 20c:	66 75 6e 63 	call  99d5bb98 <LEON_REG+0x19d5bb98>
 210:	00 5f 66 6c 	unknown
 214:	61 67 73 00 	call  859dce14 <LEON_REG+0x59dce14>
 218:	5f 77 72 69 	call  7dddcbbc <__JCR_END__+0x3dddb094>
 21c:	74 65 00 70 	call  d19403dc <LEON_REG+0x519403dc>
 220:	74 68 72 65 	call  d1a1cbb4 <LEON_REG+0x51a1cbb4>
 224:	61 64 5f 6d 	call  85917fd8 <LEON_REG+0x5917fd8>
 228:	75 74 65 78 	call  d5d19808 <LEON_REG+0x55d19808>
 22c:	5f 74 00 70 	call  7dd003ec <__JCR_END__+0x3dcfe8c4>
 230:	74 68 72 65 	call  d1a1cbc4 <LEON_REG+0x51a1cbc4>
 234:	61 64 5f 71 	call  85917ff8 <LEON_REG+0x5917ff8>
 238:	75 65 75 65 	call  d595d7cc <LEON_REG+0x5595d7cc>
 23c:	00 5f 6d 62 	unknown
 240:	72 6c 65 6e 	call  c9b197f8 <LEON_REG+0x49b197f8>
 244:	5f 73 74 61 	call  7dcdd3c8 <__JCR_END__+0x3dcdb8a0>
 248:	74 65 00 5f 	call  d19403c4 <LEON_REG+0x519403c4>
 24c:	6c 6f 63 6b 	call  b1bd8ff8 <LEON_REG+0x31bd8ff8>
 250:	00 5f 72 34 	unknown
 254:	38 00 5f 6e 	unknown
 258:	65 78 74 66 	call  95e1d3f0 <LEON_REG+0x15e1d3f0>
 25c:	00 5f 61 74 	unknown
 260:	65 78 69 74 	call  95e1a830 <LEON_REG+0x15e1a830>
 264:	00 64 62 67 	unknown
 268:	6c 69 73 74 	call  b1a5d038 <LEON_REG+0x31a5d038>
 26c:	00 5f 63 76 	unknown
 270:	74 6c 65 6e 	call  d1b19828 <LEON_REG+0x51b19828>
 274:	00 77 69 6e 	unknown
 278:	74 5f 74 00 	call  d17dd278 <LEON_REG+0x517dd278>
 27c:	5f 4c 4f 43 	call  7d313f88 <__JCR_END__+0x3d312460>
 280:	4b 5f 52 45 	call  2d7d4b94 <_trap_table-0x1282b46c>
 284:	43 55 52 53 	call  d554bd0 <_trap_table-0x32aab430>
 288:	49 56 45 5f 	call  25591804 <_trap_table-0x1aa6e7fc>
 28c:	54 00 5f 6e 	call  50018044 <__JCR_END__+0x1001651c>
 290:	69 6f 62 73 	call  a5bd8c5c <LEON_REG+0x25bd8c5c>
 294:	00 74 71 65 	unknown
 298:	5f 70 72 65 	call  7dc1cc2c <__JCR_END__+0x3dc1b104>
 29c:	76 00 5f 5f 	call  d8018018 <LEON_REG+0x58018018>
 2a0:	46 49 4c 45 	call  192533b4 <_trap_table-0x26dacc4c>
 2a4:	00 5f 5f 63 	unknown
 2a8:	6f 75 6e 74 	call  bdd5bc78 <LEON_REG+0x3dd5bc78>
 2ac:	00 5f 67 65 	unknown
 2b0:	74 64 61 74 	call  d1918880 <LEON_REG+0x51918880>
 2b4:	65 5f 65 72 	call  957d987c <LEON_REG+0x157d987c>
 2b8:	72 00 5f 5f 	call  c8018034 <LEON_REG+0x48018034>
 2bc:	74 6d 5f 6d 	call  d1b58070 <LEON_REG+0x51b58070>
 2c0:	69 6e 00 5f 	call  a5b8043c <LEON_REG+0x25b8043c>
 2c4:	5f 73 64 69 	call  7dcd9468 <__JCR_END__+0x3dcd7940>
 2c8:	64 69 6e 69 	call  91a5bc6c <LEON_REG+0x11a5bc6c>
 2cc:	74 00 74 71 	call  d001d490 <LEON_REG+0x5001d490>
 2d0:	65 5f 6e 65 	call  957dbc64 <LEON_REG+0x157dbc64>
 2d4:	78 74 00 5f 	call  e1d00450 <LEON_REG+0x61d00450>
 2d8:	6e 6d 61 6c 	call  b9b58888 <LEON_REG+0x39b58888>
 2dc:	6c 6f 63 00 	call  b1bd8edc <LEON_REG+0x31bd8edc>
 2e0:	5f 66 72 65 	call  7d99cc74 <__JCR_END__+0x3d99b14c>
 2e4:	65 6c 69 73 	call  95b1a8b0 <LEON_REG+0x15b1a8b0>
 2e8:	74 00 70 72 	call  d001c4b0 <LEON_REG+0x5001c4b0>
 2ec:	6f 74 6f 63 	call  bdd1c078 <LEON_REG+0x3dd1c078>
 2f0:	6f 6c 00 5f 	call  bdb0046c <LEON_REG+0x3db0046c>
 2f4:	5f 74 6d 5f 	call  7dd1b870 <__JCR_END__+0x3dd19d48>
 2f8:	77 64 61 79 	call  dd9188dc <LEON_REG+0x5d9188dc>
 2fc:	00 5f 66 6e 	unknown
 300:	61 72 67 73 	call  85c9a0cc <LEON_REG+0x5c9a0cc>
 304:	00 70 74 68 	unknown
 308:	72 65 61 64 	call  c9958898 <LEON_REG+0x49958898>
 30c:	5f 70 72 6f 	call  7dc1ccc8 <__JCR_END__+0x3dc1b1a0>
 310:	74 6f 63 6f 	call  d1bd90cc <LEON_REG+0x51bd90cc>
 314:	6c 5f 74 00 	call  b17dd314 <LEON_REG+0x317dd314>
 318:	5f 6e 65 77 	call  7db998f4 <__JCR_END__+0x3db97dcc>
 31c:	00 5f 6d 75 	unknown
 320:	6c 74 00 5f 	call  b1d0049c <LEON_REG+0x31d0049c>
 324:	5f 74 6d 5f 	call  7dd1b8a0 <__JCR_END__+0x3dd19d78>
 328:	69 73 64 73 	call  a5cd94f4 <LEON_REG+0x25cd94f4>
 32c:	74 00 5f 6c 	call  d00180dc <LEON_REG+0x500180dc>
 330:	6f 63 61 6c 	call  bd8d88e0 <LEON_REG+0x3d8d88e0>
 334:	74 69 6d 65 	call  d1a5b8c8 <LEON_REG+0x51a5b8c8>
 338:	5f 62 75 66 	call  7d89d8d0 <__JCR_END__+0x3d89bda8>
 33c:	00 5f 62 6c 	unknown
 340:	6b 73 69 7a 	call  adcda928 <LEON_REG+0x2dcda928>
 344:	65 00 64 62 	call  940194cc <LEON_REG+0x140194cc>
 348:	67 6e 61 6d 	call  9db988fc <LEON_REG+0x1db988fc>
 34c:	65 00 5f 66 	call  940180e4 <LEON_REG+0x140180e4>
 350:	6e 74 79 70 	call  b9d1e910 <LEON_REG+0x39d1e910>
 354:	65 73 00 5f 	call  95cc04d0 <LEON_REG+0x15cc04d0>
 358:	66 70 6f 73 	call  99c1c124 <LEON_REG+0x19c1c124>
 35c:	5f 74 00 74 	call  7dd0052c <__JCR_END__+0x3dcfea04>
 360:	71 68 5f 66 	call  c5a180f8 <LEON_REG+0x45a180f8>
 364:	69 72 73 74 	call  a5c9d134 <LEON_REG+0x25c9d134>
 368:	00 5f 66 6c 	unknown
 36c:	6f 63 6b 5f 	call  bd8db0e8 <LEON_REG+0x3d8db0e8>
 370:	74 00 5f 73 	call  d001813c <LEON_REG+0x5001813c>
 374:	74 64 6f 75 	call  d191c148 <LEON_REG+0x5191c148>
 378:	74 00 5f 65 	call  d001810c <LEON_REG+0x5001810c>
 37c:	6d 65 72 67 	call  b595cd18 <LEON_REG+0x3595cd18>
 380:	65 6e 63 79 	call  95b99164 <LEON_REG+0x15b99164>
 384:	00 5f 5f 74 	unknown
 388:	6d 5f 73 65 	call  b57dd11c <LEON_REG+0x357dd11c>
 38c:	63 00 5f 5f 	call  8c018108 <LEON_REG+0xc018108>
 390:	74 6d 5f 68 	call  d1b58130 <LEON_REG+0x51b58130>
 394:	6f 75 72 00 	call  bdd5cb94 <LEON_REG+0x3dd5cb94>
 398:	5f 6e 62 75 	call  7db98d6c <__JCR_END__+0x3db97244>
 39c:	66 00 70 72 	call  9801c564 <LEON_REG+0x1801c564>
 3a0:	65 76 5f 6d 	call  95d98154 <LEON_REG+0x15d98154>
 3a4:	61 78 5f 63 	call  85e18130 <LEON_REG+0x5e18130>
 3a8:	65 69 6c 69 	call  95a5b54c <LEON_REG+0x15a5b54c>
 3ac:	6e 67 5f 70 	call  b99d816c <LEON_REG+0x399d816c>
 3b0:	72 69 6f 00 	call  c9a5bfb0 <LEON_REG+0x49a5bfb0>
 3b4:	6f 77 6e 65 	call  bdddbd48 <LEON_REG+0x3dddbd48>
 3b8:	72 00 5f 67 	call  c8018154 <LEON_REG+0x48018154>
 3bc:	6c 75 65 00 	call  b1d597bc <LEON_REG+0x31d597bc>
 3c0:	5f 72 65 61 	call  7dc99944 <__JCR_END__+0x3dc97e1c>
 3c4:	64 00 5f 70 	call  90018184 <LEON_REG+0x10018184>
 3c8:	35 73 00 5f 	unknown
 3cc:	65 72 72 6e 	call  95c9cd84 <LEON_REG+0x15c9cd84>
 3d0:	6f 00 5f 5f 	call  bc01814c <LEON_REG+0x3c01814c>
 3d4:	77 63 68 62 	call  dd8da55c <LEON_REG+0x5d8da55c>
 3d8:	00 5f 5f 73 	unknown
 3dc:	67 6c 75 65 	call  9db1d970 <LEON_REG+0x1db1d970>
 3e0:	00 5f 6f 6e 	unknown
 3e4:	5f 65 78 69 	call  7d95e588 <__JCR_END__+0x3d95ca60>
 3e8:	74 5f 61 72 	call  d17d89b0 <LEON_REG+0x517d89b0>
 3ec:	67 73 00 5f 	call  9dcc0568 <LEON_REG+0x1dcc0568>
 3f0:	6d 62 72 74 	call  b589cdc0 <LEON_REG+0x3589cdc0>
 3f4:	6f 77 63 5f 	call  bddd9170 <LEON_REG+0x3ddd9170>
 3f8:	73 74 61 74 	call  cdd189c8 <LEON_REG+0x4dd189c8>
 3fc:	65 00 5f 77 	call  940181d8 <LEON_REG+0x140181d8>
 400:	63 73 72 74 	call  8dcdcdd0 <LEON_REG+0xdcdcdd0>
 404:	6f 6d 62 73 	call  bdb58dd0 <LEON_REG+0x3db58dd0>
 408:	5f 73 74 61 	call  7dcdd58c <__JCR_END__+0x3dcdba64>
 40c:	74 65 00 5f 	call  d1940588 <LEON_REG+0x51940588>
 410:	61 74 65 78 	call  85d199f0 <LEON_REG+0x5d199f0>
 414:	69 74 30 00 	call  a5d0c414 <LEON_REG+0x25d0c414>
 418:	5f 63 76 74 	call  7d8ddde8 <__JCR_END__+0x3d8dc2c0>
 41c:	62 75 66 00 	call  89d59c1c <LEON_REG+0x9d59c1c>
 420:	5f 63 6f 6f 	call  7d8dc1dc <__JCR_END__+0x3d8da6b4>
 424:	6b 69 65 00 	call  ada59824 <LEON_REG+0x2da59824>
 428:	5f 67 61 6d 	call  7d9d89dc <__JCR_END__+0x3d9d6eb4>
 42c:	6d 61 5f 73 	call  b58581f8 <LEON_REG+0x358581f8>
 430:	69 67 6e 67 	call  a59dbdcc <LEON_REG+0x259dbdcc>
 434:	61 6d 00 5f 	call  85b405b0 <LEON_REG+0x5b405b0>
 438:	66 69 74 6f 	call  99a5d5f4 <LEON_REG+0x19a5d5f4>
 43c:	74 68 65 72 	call  d1a19a04 <LEON_REG+0x51a19a04>
 440:	73 00 5f 77 	call  cc01821c <LEON_REG+0x4c01821c>
 444:	64 73 00 5f 	call  91cc05c0 <LEON_REG+0x11cc05c0>
 448:	5f 74 6d 00 	call  7dd1b848 <__JCR_END__+0x3dd19d20>
 44c:	5f 75 6e 75 	call  7dd5be20 <__JCR_END__+0x3dd5a2f8>
 450:	73 65 64 00 	call  cd959450 <LEON_REG+0x4d959450>
 454:	5f 6d 62 74 	call  7db58e24 <__JCR_END__+0x3db572fc>
 458:	6f 77 63 5f 	call  bddd91d4 <LEON_REG+0x3ddd91d4>
 45c:	73 74 61 74 	call  cdd18a2c <LEON_REG+0x4dd18a2c>
 460:	65 00 5f 5f 	call  940181dc <LEON_REG+0x140181dc>
 464:	74 6d 5f 6d 	call  d1b58218 <LEON_REG+0x51b58218>
 468:	64 61 79 00 	call  9185e868 <LEON_REG+0x1185e868>
 46c:	74 71 68 5f 	call  d1c5a5e8 <LEON_REG+0x51c5a5e8>
 470:	6e 61 6d 65 	call  b985ba04 <LEON_REG+0x3985ba04>
 474:	00 5f 63 75 	unknown
 478:	72 72 65 6e 	call  c9c99a30 <LEON_REG+0x49c99a30>
 47c:	74 5f 63 61 	call  d17d9200 <LEON_REG+0x517d9200>
 480:	74 65 67 6f 	call  d195a23c <LEON_REG+0x5195a23c>
 484:	72 79 00 5f 	call  c9e40600 <LEON_REG+0x49e40600>
 488:	69 73 5f 63 	call  a5cd8214 <LEON_REG+0x25cd8214>
 48c:	78 61 00 5f 	call  e1840608 <LEON_REG+0x61840608>
 490:	5f 74 6d 5f 	call  7dd1ba0c <__JCR_END__+0x3dd19ee4>
 494:	79 65 61 72 	call  e5958a5c <LEON_REG+0x65958a5c>
 498:	00 5f 5f 63 	unknown
 49c:	6c 65 61 6e 	call  b1958a54 <LEON_REG+0x31958a54>
 4a0:	75 70 00 5f 	call  d5c0061c <LEON_REG+0x55c0061c>
 4a4:	6d 62 73 74 	call  b589d274 <LEON_REG+0x3589d274>
 4a8:	61 74 65 5f 	call  85d19a24 <LEON_REG+0x5d19a24>
 4ac:	74 00 5f 42 	call  d00181b4 <LEON_REG+0x500181b4>
 4b0:	69 67 69 6e 	call  a59daa68 <LEON_REG+0x259daa68>
 4b4:	74 00 5f 6d 	call  d0018268 <LEON_REG+0x50018268>
 4b8:	61 78 77 64 	call  85e1e248 <LEON_REG+0x5e1e248>
 4bc:	73 00 5f 5f 	call  cc018238 <LEON_REG+0x4c018238>
 4c0:	74 6d 5f 6d 	call  d1b58274 <LEON_REG+0x51b58274>
 4c4:	6f 6e 00 5f 	call  bdb80640 <LEON_REG+0x3db80640>
 4c8:	73 74 72 74 	call  cdd1ce98 <LEON_REG+0x4dd1ce98>
 4cc:	6f 6b 5f 6c 	call  bdad827c <LEON_REG+0x3dad827c>
 4d0:	61 73 74 00 	call  85cdd4d0 <LEON_REG+0x5cdd4d0>
 4d4:	5f 73 65 65 	call  7dcd9a68 <__JCR_END__+0x3dcd7f40>
 4d8:	64 00 5f 72 	call  900182a0 <LEON_REG+0x100182a0>
 4dc:	61 6e 64 34 	call  85b995ac <LEON_REG+0x5b995ac>
 4e0:	38 00 5f 5f 	unknown
 4e4:	74 6d 5f 79 	call  d1b582c8 <LEON_REG+0x51b582c8>
 4e8:	64 61 79 00 	call  9185e8e8 <LEON_REG+0x1185e8e8>
 4ec:	5f 5f 55 4c 	call  7d7d5a1c <__JCR_END__+0x3d7d3ef4>
 4f0:	6f 6e 67 00 	call  bdb9a0f0 <LEON_REG+0x3db9a0f0>
 4f4:	5f 72 65 73 	call  7dc99ac0 <__JCR_END__+0x3dc97f98>
 4f8:	75 6c 74 00 	call  d5b1d4f8 <LEON_REG+0x55b1d4f8>
 4fc:	5f 66 69 6c 	call  7d99aaac <__JCR_END__+0x3d998f84>
 500:	65 00 74 71 	call  9401d6c4 <LEON_REG+0x1401d6c4>
 504:	68 5f 6c 61 	call  a17db688 <LEON_REG+0x217db688>
 508:	73 74 00 5f 	call  cdd00684 <LEON_REG+0x4dd00684>
 50c:	63 75 72 72 	call  8dd5ced4 <LEON_REG+0xdd5ced4>
 510:	65 6e 74 5f 	call  95b9d68c <LEON_REG+0x15b9d68c>
 514:	6c 6f 63 61 	call  b1bd9298 <LEON_REG+0x31bd9298>
 518:	6c 65 00 5f 	call  b1940694 <LEON_REG+0x31940694>
 51c:	61 64 64 00 	call  8591951c <LEON_REG+0x591951c>
 520:	5f 69 6e 63 	call  7da5beac <__JCR_END__+0x3da5a384>
 524:	00 5f 69 6e 	unknown
 528:	64 00 5f 77 	call  90018304 <LEON_REG+0x10018304>
 52c:	63 74 6f 6d 	call  8dd1c2e0 <LEON_REG+0xdd1c2e0>
 530:	62 5f 73 74 	call  897dd300 <LEON_REG+0x97dd300>
 534:	61 74 65 00 	call  85d19934 <LEON_REG+0x5d19934>
 538:	5f 64 73 6f 	call  7d91d2f4 <__JCR_END__+0x3d91b7cc>
 53c:	5f 68 61 6e 	call  7da18af4 <__JCR_END__+0x3da16fcc>
 540:	64 6c 65 00 	call  91b19940 <LEON_REG+0x11b19940>
 544:	5f 66 6e 73 	call  7d99bf10 <__JCR_END__+0x3d99a3e8>
 548:	00 5f 73 69 	unknown
 54c:	67 6e 00 5f 	call  9db806c8 <LEON_REG+0x1db806c8>
 550:	72 61 6e 64 	call  c985bee0 <LEON_REG+0x4985bee0>
 554:	5f 6e 65 78 	call  7db99b34 <__JCR_END__+0x3db9800c>
 558:	74 00 5f 73 	call  d0018324 <LEON_REG+0x50018324>
 55c:	74 64 69 6e 	call  d191ab14 <LEON_REG+0x5191ab14>
 560:	00 5f 6d 62 	unknown
 564:	73 72 74 6f 	call  cdc9d720 <LEON_REG+0x4dc9d720>
 568:	77 63 73 5f 	call  dd8dd2e4 <LEON_REG+0x5d8dd2e4>
 56c:	73 74 61 74 	call  cdd18b3c <LEON_REG+0x4dd18b3c>
 570:	65 00 5f 72 	call  94018338 <LEON_REG+0x14018338>
 574:	65 65 6e 74 	call  9595bf44 <LEON_REG+0x1595bf44>
 578:	00 5f 75 6e 	unknown
 57c:	75 73 65 64 	call  d5cd9b0c <LEON_REG+0x55cd9b0c>
 580:	5f 72 61 6e 	call  7dc98b38 <__JCR_END__+0x3dc97010>
 584:	64 00 5f 73 	call  90018350 <LEON_REG+0x10018350>
 588:	74 64 65 72 	call  d1919b50 <LEON_REG+0x51919b50>
 58c:	72 00 5f 75 	call  c8018360 <LEON_REG+0x48018360>
 590:	62 75 66 00 	call  89d59d90 <LEON_REG+0x9d59d90>
 594:	5f 73 69 7a 	call  7dcdab7c <__JCR_END__+0x3dcd9054>
 598:	65 00 5f 61 	call  9401831c <LEON_REG+0x1401831c>
 59c:	73 63 74 69 	call  cd8dd740 <LEON_REG+0x4d8dd740>
 5a0:	6d 65 5f 62 	call  b5958328 <LEON_REG+0x35958328>
 5a4:	75 66 00 70 	call  d5980764 <LEON_REG+0x55980764>
 5a8:	72 69 6f 63 	call  c9a5c334 <LEON_REG+0x49a5c334>
 5ac:	65 69 6c 69 	call  95a5b750 <LEON_REG+0x15a5b750>
 5b0:	6e 67 00 5f 	call  b99c072c <LEON_REG+0x399c072c>
 5b4:	5f 73 46 49 	call  7dcd1ed8 <__JCR_END__+0x3dcd03b0>
 5b8:	4c 45 00 69 	call  3114075c <_trap_table-0xeebf8a4>
 5bc:	6d 70 75 72 	call  b5c1db84 <LEON_REG+0x35c1db84>
 5c0:	65 5f 64 61 	call  957d9744 <LEON_REG+0x157d9744>
 5c4:	74 61 00 2f 	call  d1840680 <LEON_REG+0x51840680>
 5c8:	68 6f 6d 65 	call  a1bdbb5c <LEON_REG+0x21bdbb5c>
 5cc:	2f 62 75 69 	unknown
 5d0:	6c 64 2f 62 	call  b190c358 <LEON_REG+0x3190c358>
 5d4:	63 63 2f 42 	call  8d8cc2dc <LEON_REG+0xd8cc2dc>
 5d8:	43 43 5f 52 	call  d0d8320 <_trap_table-0x32f27ce0>
 5dc:	45 50 2f 67 	call  1540c378 <_trap_table-0x2abf3c88>
 5e0:	63 63 2d 33 	call  8d8cbaac <LEON_REG+0xd8cbaac>
 5e4:	2e 34 2e 34 	unknown
 5e8:	2d 6d 69 6e 	unknown
 5ec:	67 77 2d 31 	call  9ddcbab0 <LEON_REG+0x1ddcbab0>
 5f0:	2e 30 2e 34 	unknown
 5f4:	36 6e 65 77 	unknown
 5f8:	6c 69 62 2d 	call  b1a58eac <LEON_REG+0x31a58eac>
 5fc:	31 2e 31 33 	sethi  %hi(0xb8c4cc00), %i0
 600:	2e 30 2d 62 	unknown
 604:	75 69 6c 64 	call  d5a5b794 <LEON_REG+0x55a5b794>
 608:	2f 73 70 61 	unknown
 60c:	72 63 2d 65 	call  c98cbba0 <LEON_REG+0x498cbba0>
 610:	6c 66 2f 73 	call  b198c3dc <LEON_REG+0x3198c3dc>
 614:	6f 66 74 2f 	call  bd99d6d0 <LEON_REG+0x3d99d6d0>
 618:	6e 65 77 6c 	call  b995e3c8 <LEON_REG+0x3995e3c8>
 61c:	69 62 2f 6c 	call  a588c3cc <LEON_REG+0x2588c3cc>
 620:	69 62 63 2f 	call  a58992dc <LEON_REG+0x258992dc>
 624:	72 65 65 6e 	call  c9959bdc <LEON_REG+0x49959bdc>
 628:	74 00 2e 2e 	call  d000bee0 <LEON_REG+0x5000bee0>
 62c:	2f 2e 2e 2f 	sethi  %hi(0xb8b8bc00), %l7
 630:	2e 2e 2f 2e 	unknown
 634:	2e 2f 2e 2e 	unknown
 638:	2f 2e 2e 2f 	sethi  %hi(0xb8b8bc00), %l7
 63c:	6e 65 77 6c 	call  b995e3ec <LEON_REG+0x3995e3ec>
 640:	69 62 2d 31 	call  a588bb04 <LEON_REG+0x2588bb04>
 644:	2e 31 33 2e 	unknown
 648:	30 2f 6e 65 	unknown
 64c:	77 6c 69 62 	call  ddb1abd4 <LEON_REG+0x5db1abd4>
 650:	2f 6c 69 62 	unknown
 654:	63 2f 72 65 	call  8cbdcfe8 <LEON_REG+0xcbdcfe8>
 658:	65 6e 74 2f 	call  95b9d714 <LEON_REG+0x15b9d714>
 65c:	69 6d 70 75 	call  a5b5c830 <LEON_REG+0x25b5c830>
 660:	72 65 2e 63 	call  c994bfec <LEON_REG+0x4994bfec>
 664:	00 5f 65 78 	unknown
 668:	69 74 00 73 	call  a5d00834 <LEON_REG+0x25d00834>
 66c:	74 61 74 75 	call  d185d840 <LEON_REG+0x5185d840>
 670:	73 00 2e 2e 	call  cc00bf28 <LEON_REG+0x4c00bf28>
 674:	2f 2e 2e 2f 	sethi  %hi(0xb8b8bc00), %l7
 678:	2e 2e 2f 2e 	unknown
 67c:	2e 2f 2e 2e 	unknown
 680:	2f 6e 65 77 	unknown
 684:	6c 69 62 2d 	call  b1a58f38 <LEON_REG+0x31a58f38>
 688:	31 2e 31 33 	sethi  %hi(0xb8c4cc00), %i0
 68c:	2e 30 2f 6c 	unknown
 690:	69 62 67 6c 	call  a589a440 <LEON_REG+0x2589a440>
 694:	6f 73 73 2f 	call  bdcdd350 <LEON_REG+0x3dcdd350>
 698:	73 70 61 72 	call  cdc18c60 <LEON_REG+0x4dc18c60>
 69c:	63 5f 6c 65 	call  8d7db830 <LEON_REG+0xd7db830>
 6a0:	6f 6e 2f 5f 	call  bdb8c41c <LEON_REG+0x3db8c41c>
 6a4:	65 78 69 74 	call  95e1ac74 <LEON_REG+0x15e1ac74>
 6a8:	2e 63 00 2e 	unknown
 6ac:	2e 2f 2e 2e 	unknown
 6b0:	2f 2e 2e 2f 	sethi  %hi(0xb8b8bc00), %l7
 6b4:	2e 2e 2f 2e 	unknown
 6b8:	2e 2f 6e 65 	unknown
 6bc:	77 6c 69 62 	call  ddb1ac44 <LEON_REG+0x5db1ac44>
 6c0:	2d 31 2e 31 	sethi  %hi(0xc4b8c400), %l6
 6c4:	33 2e 30 2f 	sethi  %hi(0xb8c0bc00), %i1
 6c8:	6c 69 62 67 	call  b1a59064 <LEON_REG+0x31a59064>
 6cc:	6c 6f 73 73 	call  b1bdd498 <LEON_REG+0x31bdd498>
 6d0:	2f 73 70 61 	unknown
 6d4:	72 63 5f 6c 	call  c98d8484 <LEON_REG+0x498d8484>
 6d8:	65 6f 6e 2f 	call  95bdbf94 <LEON_REG+0x15bdbf94>
 6dc:	69 6e 69 74 	call  a5b9acac <LEON_REG+0x25b9acac>
 6e0:	63 61 6c 6c 	call  8d85b890 <LEON_REG+0xd85b890>
 6e4:	73 2e 63 00 	call  ccb992e4 <LEON_REG+0x4cb992e4>
 6e8:	5f 5f 6c 65 	call  7d7db87c <__JCR_END__+0x3d7d9d54>
 6ec:	6f 6e 62 61 	call  bdb99070 <LEON_REG+0x3db99070>
 6f0:	72 65 5f 69 	call  c9958494 <LEON_REG+0x49958494>
 6f4:	6e 69 74 63 	call  b9a5d880 <LEON_REG+0x39a5d880>
 6f8:	61 6c 6c 5f 	call  85b1b874 <LEON_REG+0x5b1b874>
 6fc:	73 74 61 72 	call  cdd18cc4 <LEON_REG+0x4dd18cc4>
 700:	74 00 69 6e 	call  d001acb8 <LEON_REG+0x5001acb8>
 704:	69 74 63 61 	call  a5d19488 <LEON_REG+0x25d19488>
 708:	6c 6c 5f 74 	call  b1b184d8 <LEON_REG+0x31b184d8>
 70c:	00 5f 5f 6c 	unknown
 710:	65 6f 6e 62 	call  95bdc098 <LEON_REG+0x15bdc098>
 714:	61 72 65 5f 	call  85c99c90 <LEON_REG+0x5c99c90>
 718:	69 6e 69 74 	call  a5b9ace8 <LEON_REG+0x25b9ace8>
 71c:	63 61 6c 6c 	call  8d85b8cc <LEON_REG+0xd85b8cc>
 720:	5f 65 6e 64 	call  7d95c0b0 <__JCR_END__+0x3d95a588>
 724:	00 5f 63 61 	unknown
 728:	6c 6c 5f 69 	call  b1b184cc <LEON_REG+0x31b184cc>
 72c:	6e 69 74 63 	call  b9a5d8b8 <LEON_REG+0x39a5d8b8>
 730:	61 6c 6c 73 	call  85b1b8fc <LEON_REG+0x5b1b8fc>
 734:	00 6e 6f 74 	unknown
 738:	75 73 65 64 	call  d5cd9cc8 <LEON_REG+0x55cd9cc8>
 73c:	31 30 00 64 	sethi  %hi(0xc0019000), %i0
 740:	65 76 5f 69 	call  95d984e4 <LEON_REG+0x15d984e4>
 744:	64 00 6e 6f 	call  9001c100 <LEON_REG+0x1001c100>
 748:	74 75 73 65 	call  d1d5d4dc <LEON_REG+0x51d5d4dc>
 74c:	64 31 32 00 	call  90c4cf4c <LEON_REG+0x10c4cf4c>
 750:	4c 45 4f 4e 	call  31154488 <_trap_table-0xeeabb78>
 754:	33 5f 49 72 	unknown
 758:	71 43 74 72 	call  c50dd920 <LEON_REG+0x450dd920>
 75c:	6c 5f 52 65 	call  b17d50f0 <LEON_REG+0x317d50f0>
 760:	67 73 00 69 	call  9dcc0904 <LEON_REG+0x1dcc0904>
 764:	6e 69 72 71 	call  b9a5d128 <LEON_REG+0x39a5d128>
 768:	00 68 61 6e 	unknown
 76c:	64 6c 65 72 	call  91b19d34 <LEON_REG+0x11b19d34>
 770:	5f 69 72 71 	call  7da5d134 <__JCR_END__+0x3da5b60c>
 774:	5f 70 72 65 	call  7dc1d108 <__JCR_END__+0x3dc1b5e0>
 778:	00 75 5f 72 	unknown
 77c:	65 67 73 00 	call  959dd37c <LEON_REG+0x159dd37c>
 780:	72 65 74 76 	call  c995d958 <LEON_REG+0x4995d958>
 784:	61 6c 00 5f 	call  85b00900 <LEON_REG+0x5b00900>
 788:	6f 69 72 71 	call  bda5d14c <LEON_REG+0x3da5d14c>
 78c:	74 62 6c 00 	call  d189b78c <LEON_REG+0x5189b78c>
 790:	5f 69 72 71 	call  7da5d154 <__JCR_END__+0x3da5b62c>
 794:	74 62 6c 00 	call  d189b794 <LEON_REG+0x5189b794>
 798:	69 66 6f 72 	call  a599c560 <LEON_REG+0x2599c560>
 79c:	63 65 00 4c 	call  8d9408cc <LEON_REG+0xd9408cc>
 7a0:	45 4f 4e 33 	call  153d406c <_trap_table-0x2ac2bf94>
 7a4:	5f 49 72 71 	call  7d25d168 <__JCR_END__+0x3d25b640>
 7a8:	43 74 72 6c 	call  dd1d158 <_trap_table-0x322e2ea8>
 7ac:	5f 52 65 67 	call  7d499d48 <__JCR_END__+0x3d498220>
 7b0:	73 5f 4d 61 	call  cd7d3d34 <LEON_REG+0x4d7d3d34>
 7b4:	70 00 6e 6f 	call  c001c170 <LEON_REG+0x4001c170>
 7b8:	74 75 73 65 	call  d1d5d54c <LEON_REG+0x51d5d54c>
 7bc:	64 32 30 00 	call  90c8c7bc <LEON_REG+0x10c8c7bc>
 7c0:	6e 6f 74 75 	call  b9bdd994 <LEON_REG+0x39bdd994>
 7c4:	73 65 64 32 	call  cd95988c <LEON_REG+0x4d95988c>
 7c8:	31 00 6e 6f 	sethi  %hi(0x1b9bc00), %i0
 7cc:	74 75 73 65 	call  d1d5d560 <LEON_REG+0x51d5d560>
 7d0:	64 32 32 00 	call  90c8cfd0 <LEON_REG+0x10c8cfd0>
 7d4:	6e 6f 74 75 	call  b9bdd9a8 <LEON_REG+0x39bdd9a8>
 7d8:	73 65 64 32 	call  cd9598a0 <LEON_REG+0x4d9598a0>
 7dc:	33 00 61 64 	sethi  %hi(0x1859000), %i1
 7e0:	64 72 00 69 	call  91c80984 <LEON_REG+0x11c80984>
 7e4:	72 71 6d 70 	call  c9c5bda4 <LEON_REG+0x49c5bda4>
 7e8:	5f 74 79 70 	call  7dd1eda8 <__JCR_END__+0x3dd1d280>
 7ec:	65 00 74 72 	call  9401d9b4 <LEON_REG+0x1401d9b4>
 7f0:	61 70 74 61 	call  85c1d974 <LEON_REG+0x5c1d974>
 7f4:	62 6c 65 5f 	call  89b19d70 <LEON_REG+0x9b19d70>
 7f8:	67 65 6e 6a 	call  9d95c1a0 <LEON_REG+0x1d95c1a0>
 7fc:	6d 70 00 69 	call  b5c009a0 <LEON_REG+0x35c009a0>
 800:	63 6c 65 61 	call  8db19d84 <LEON_REG+0xdb19d84>
 804:	72 00 73 70 	call  c801d5c4 <LEON_REG+0x4801d5c4>
 808:	61 72 63 5f 	call  85c99584 <LEON_REG+0x5c99584>
 80c:	6c 65 6f 6e 	call  b195c5c4 <LEON_REG+0x3195c5c4>
 810:	32 33 5f 67 	unknown
 814:	65 74 5f 74 	call  95d185e4 <LEON_REG+0x15d185e4>
 818:	62 72 00 68 	call  89c809b8 <LEON_REG+0x9c809b8>
 81c:	61 6e 64 6c 	call  85b999cc <LEON_REG+0x5b999cc>
 820:	65 72 5f 69 	call  95c985c4 <LEON_REG+0x15c985c4>
 824:	72 71 00 69 	call  c9c409c8 <LEON_REG+0x49c409c8>
 828:	72 71 68 61 	call  c9c5a9ac <LEON_REG+0x49c5a9ac>
 82c:	6e 64 6c 65 	call  b991b9c0 <LEON_REG+0x3991b9c0>
 830:	72 00 65 69 	call  c8019dd4 <LEON_REG+0x48019dd4>
 834:	72 71 00 5f 	call  c9c409b0 <LEON_REG+0x49c409b0>
 838:	6c 65 6f 6e 	call  b195c5f0 <LEON_REG+0x3195c5f0>
 83c:	5f 76 65 72 	call  7dd99e04 <__JCR_END__+0x3dd982dc>
 840:	73 69 6f 6e 	call  cda5c5f8 <LEON_REG+0x4da5c5f8>
 844:	00 67 65 6e 	unknown
 848:	73 65 71 00 	call  cd95cc48 <LEON_REG+0x4d95cc48>
 84c:	73 70 61 72 	call  cdc18e14 <LEON_REG+0x4dc18e14>
 850:	63 5f 6c 65 	call  8d7db9e4 <LEON_REG+0xd7db9e4>
 854:	6f 6e 32 33 	call  bdb8d120 <LEON_REG+0x3db8d120>
 858:	5f 67 65 74 	call  7d9d9e28 <__JCR_END__+0x3d9d8300>
 85c:	5f 74 62 72 	call  7dd19224 <__JCR_END__+0x3dd176fc>
 860:	5f 62 61 73 	call  7d898e2c <__JCR_END__+0x3d897304>
 864:	65 00 69 72 	call  9401ae2c <LEON_REG+0x1401ae2c>
 868:	71 6d 70 00 	call  c5b5c868 <LEON_REG+0x45b5c868>
 86c:	6e 6f 74 75 	call  b9bdda40 <LEON_REG+0x39bdda40>
 870:	73 65 64 30 	call  cd959930 <LEON_REG+0x4d959930>
 874:	30 00 6e 6f 	unknown
 878:	74 75 73 65 	call  d1d5d60c <LEON_REG+0x51d5d60c>
 87c:	64 30 31 00 	call  90c0cc7c <LEON_REG+0x10c0cc7c>
 880:	6e 6f 74 75 	call  b9bdda54 <LEON_REG+0x39bdda54>
 884:	73 65 64 30 	call  cd959944 <LEON_REG+0x4d959944>
 888:	32 00 6e 6f 	unknown
 88c:	74 75 73 65 	call  d1d5d620 <LEON_REG+0x51d5d620>
 890:	64 30 33 00 	call  90c0d490 <LEON_REG+0x10c0d490>
 894:	6d 61 73 6b 	call  b585d640 <LEON_REG+0x3585d640>
 898:	00 68 61 6e 	unknown
 89c:	64 6c 65 72 	call  91b19e64 <LEON_REG+0x11b19e64>
 8a0:	5f 69 72 71 	call  7da5d264 <__JCR_END__+0x3da5b73c>
 8a4:	5f 70 6f 73 	call  7dc1c670 <__JCR_END__+0x3dc1ab48>
 8a8:	74 00 2e 2e 	call  d000c160 <LEON_REG+0x5000c160>
 8ac:	2f 2e 2e 2f 	sethi  %hi(0xb8b8bc00), %l7
 8b0:	2e 2e 2f 2e 	unknown
 8b4:	2e 2f 2e 2e 	unknown
 8b8:	2f 6e 65 77 	unknown
 8bc:	6c 69 62 2d 	call  b1a59170 <LEON_REG+0x31a59170>
 8c0:	31 2e 31 33 	sethi  %hi(0xb8c4cc00), %i0
 8c4:	2e 30 2f 6c 	unknown
 8c8:	69 62 67 6c 	call  a589a678 <LEON_REG+0x2589a678>
 8cc:	6f 73 73 2f 	call  bdcdd588 <LEON_REG+0x3dcdd588>
 8d0:	73 70 61 72 	call  cdc18e98 <LEON_REG+0x4dc18e98>
 8d4:	63 5f 6c 65 	call  8d7dba68 <LEON_REG+0xd7dba68>
 8d8:	6f 6e 2f 63 	call  bdb8c664 <LEON_REG+0x3db8c664>
 8dc:	61 74 63 68 	call  85d1967c <LEON_REG+0x5d1967c>
 8e0:	5f 69 6e 74 	call  7da5c2b0 <__JCR_END__+0x3da5a788>
 8e4:	65 72 72 75 	call  95c9d2b8 <LEON_REG+0x15c9d2b8>
 8e8:	70 74 2e 63 	call  c1d0c274 <LEON_REG+0x41d0c274>
 8ec:	00 69 6c 65 	unknown
 8f0:	76 65 6c 00 	call  d995b8f0 <LEON_REG+0x5995b8f0>
 8f4:	6c 65 6f 6e 	call  b195c6ac <LEON_REG+0x3195c6ac>
 8f8:	62 61 72 65 	call  8985d28c <LEON_REG+0x985d28c>
 8fc:	5f 70 74 5f 	call  7dc1da78 <__JCR_END__+0x3dc1bf50>
 900:	72 65 67 73 	call  c995a6cc <LEON_REG+0x4995a6cc>
 904:	00 69 72 71 	unknown
 908:	61 63 74 69 	call  858ddaac <LEON_REG+0x58ddaac>
 90c:	6f 6e 00 63 	call  bdb80a98 <LEON_REG+0x3db80a98>
 910:	68 61 69 6e 	call  a185aec8 <LEON_REG+0x2185aec8>
 914:	65 64 5f 63 	call  959186a0 <LEON_REG+0x159186a0>
 918:	61 74 63 68 	call  85d196b8 <LEON_REG+0x5d196b8>
 91c:	5f 69 6e 74 	call  7da5c2ec <__JCR_END__+0x3da5a7c4>
 920:	65 72 72 75 	call  95c9d2f4 <LEON_REG+0x15c9d2f4>
 924:	70 74 00 6e 	call  c1d00adc <LEON_REG+0x41d00adc>
 928:	6f 5f 69 6e 	call  bd7daee0 <LEON_REG+0x3d7daee0>
 92c:	69 72 71 5f 	call  a5c9cea8 <LEON_REG+0x25c9cea8>
 930:	63 68 65 63 	call  8da19ebc <LEON_REG+0xda19ebc>
 934:	6b 00 6e 6f 	call  ac01c2f0 <LEON_REG+0x2c01c2f0>
 938:	74 75 73 65 	call  d1d5d6cc <LEON_REG+0x51d5d6cc>
 93c:	64 31 31 00 	call  90c4cd3c <LEON_REG+0x10c4cd3c>
 940:	6e 6f 74 75 	call  b9bddb14 <LEON_REG+0x39bddb14>
 944:	73 65 64 31 	call  cd959a08 <LEON_REG+0x4d959a08>
 948:	33 00 73 63 	sethi  %hi(0x1cd8c00), %i1
 94c:	68 65 64 75 	call  a1959b20 <LEON_REG+0x21959b20>
 950:	6c 65 5f 63 	call  b19586dc <LEON_REG+0x319586dc>
 954:	61 6c 6c 62 	call  85b1badc <LEON_REG+0x5b1badc>
 958:	61 63 6b 00 	call  858db558 <LEON_REG+0x58db558>
 95c:	69 70 65 6e 	call  a5c19f14 <LEON_REG+0x25c19f14>
 960:	64 00 73 63 	call  9001d6ec <LEON_REG+0x1001d6ec>
 964:	68 65 64 75 	call  a1959b38 <LEON_REG+0x21959b38>
 968:	6c 65 68 61 	call  b195aaec <LEON_REG+0x3195aaec>
 96c:	6e 64 6c 65 	call  b991bb00 <LEON_REG+0x3991bb00>
 970:	72 00 63 6f 	call  c801972c <LEON_REG+0x4801972c>
 974:	6e 73 6f 6c 	call  b9cdc724 <LEON_REG+0x39cdc724>
 978:	65 00 2e 2e 	call  9400c230 <LEON_REG+0x1400c230>
 97c:	2f 2e 2e 2f 	sethi  %hi(0xb8b8bc00), %l7
 980:	2e 2e 2f 2e 	unknown
 984:	2e 2f 2e 2e 	unknown
 988:	2f 6e 65 77 	unknown
 98c:	6c 69 62 2d 	call  b1a59240 <LEON_REG+0x31a59240>
 990:	31 2e 31 33 	sethi  %hi(0xb8c4cc00), %i0
 994:	2e 30 2f 6c 	unknown
 998:	69 62 67 6c 	call  a589a748 <LEON_REG+0x2589a748>
 99c:	6f 73 73 2f 	call  bdcdd658 <LEON_REG+0x3dcdd658>
 9a0:	73 70 61 72 	call  cdc18f68 <LEON_REG+0x4dc18f68>
 9a4:	63 5f 6c 65 	call  8d7dbb38 <LEON_REG+0xd7dbb38>
 9a8:	6f 6e 2f 63 	call  bdb8c734 <LEON_REG+0x3db8c734>
 9ac:	6f 6e 73 6f 	call  bdb9d768 <LEON_REG+0x3db9d768>
 9b0:	6c 65 2e 63 	call  b194c33c <LEON_REG+0x3194c33c>
 9b4:	00 74 76 5f 	unknown
 9b8:	6e 73 65 63 	call  b9cd9f44 <LEON_REG+0x39cd9f44>
 9bc:	00 74 76 5f 	unknown
 9c0:	73 65 63 00 	call  cd9595c0 <LEON_REG+0x4d9595c0>
 9c4:	2e 2e 2f 2e 	unknown
 9c8:	2e 2f 2e 2e 	unknown
 9cc:	2f 2e 2e 2f 	sethi  %hi(0xb8b8bc00), %l7
 9d0:	2e 2e 2f 6e 	unknown
 9d4:	65 77 6c 69 	call  95ddbb78 <LEON_REG+0x15ddbb78>
 9d8:	62 2d 31 2e 	call  88b4ce90 <LEON_REG+0x8b4ce90>
 9dc:	31 33 2e 30 	sethi  %hi(0xccb8c000), %i0
 9e0:	2f 6c 69 62 	unknown
 9e4:	67 6c 6f 73 	call  9db1c7b0 <LEON_REG+0x1db1c7b0>
 9e8:	73 2f 73 70 	call  ccbdd7a8 <LEON_REG+0x4cbdd7a8>
 9ec:	61 72 63 5f 	call  85c99768 <LEON_REG+0x5c99768>
 9f0:	6c 65 6f 6e 	call  b195c7a8 <LEON_REG+0x3195c7a8>
 9f4:	2f 6a 69 66 	unknown
 9f8:	66 69 65 73 	call  99a59fc4 <LEON_REG+0x19a59fc4>
 9fc:	2e 63 00 74 	unknown
 a00:	69 6d 65 5f 	call  a5b59f7c <LEON_REG+0x25b59f7c>
 a04:	74 00 74 69 	call  d001dba8 <LEON_REG+0x5001dba8>
 a08:	6d 65 73 70 	call  b595d7c8 <LEON_REG+0x3595d7c8>
 a0c:	65 63 00 6a 	call  958c0bb4 <LEON_REG+0x158c0bb4>
 a10:	69 66 66 69 	call  a599a3b4 <LEON_REG+0x2599a3b4>
 a14:	65 73 5f 36 	call  95cd86ec <LEON_REG+0x15cd86ec>
 a18:	34 00 78 74 	unknown
 a1c:	69 6d 65 00 	call  a5b59e1c <LEON_REG+0x25b59e1c>
 a20:	2e 2e 2f 2e 	unknown
 a24:	2e 2f 2e 2e 	unknown
 a28:	2f 2e 2e 2f 	sethi  %hi(0xb8b8bc00), %l7
 a2c:	2e 2e 2f 6e 	unknown
 a30:	65 77 6c 69 	call  95ddbbd4 <LEON_REG+0x15ddbbd4>
 a34:	62 2d 31 2e 	call  88b4ceec <LEON_REG+0x8b4ceec>
 a38:	31 33 2e 30 	sethi  %hi(0xccb8c000), %i0
 a3c:	2f 6c 69 62 	unknown
 a40:	67 6c 6f 73 	call  9db1c80c <LEON_REG+0x1db1c80c>
 a44:	73 2f 73 70 	call  ccbdd804 <LEON_REG+0x4cbdd804>
 a48:	61 72 63 5f 	call  85c997c4 <LEON_REG+0x5c997c4>
 a4c:	6c 65 6f 6e 	call  b195c804 <LEON_REG+0x3195c804>
 a50:	2f 72 74 63 	unknown
 a54:	Address 0x00000a54 is out of bounds.

Disassembly of section .comment:

00000000 <.comment>:
   0:	00 47 43 43 	unknown
   4:	3a 20 28 47 	unknown
   8:	4e 55 29 20 	call  3954a488 <_trap_table-0x6ab5b78>
   c:	33 2e 34 2e 	sethi  %hi(0xb8d0b800), %i1
  10:	34 00 00 47 	unknown
  14:	43 43 3a 20 	call  d0ce894 <_trap_table-0x32f3176c>
  18:	28 47 4e 55 	unknown
  1c:	29 20 33 2e 	sethi  %hi(0x80ccb800), %l4
  20:	34 2e 34 00 	unknown
  24:	00 47 43 43 	unknown
  28:	3a 20 28 47 	unknown
  2c:	4e 55 29 20 	call  3954a4ac <_trap_table-0x6ab5b54>
  30:	33 2e 34 2e 	sethi  %hi(0xb8d0b800), %i1
  34:	34 00 00 47 	unknown
  38:	43 43 3a 20 	call  d0ce8b8 <_trap_table-0x32f31748>
  3c:	28 47 4e 55 	unknown
  40:	29 20 33 2e 	sethi  %hi(0x80ccb800), %l4
  44:	34 2e 34 00 	unknown
  48:	00 47 43 43 	unknown
  4c:	3a 20 28 47 	unknown
  50:	4e 55 29 20 	call  3954a4d0 <_trap_table-0x6ab5b30>
  54:	33 2e 34 2e 	sethi  %hi(0xb8d0b800), %i1
  58:	34 00 00 47 	unknown
  5c:	43 43 3a 20 	call  d0ce8dc <_trap_table-0x32f31724>
  60:	28 47 4e 55 	unknown
  64:	29 20 33 2e 	sethi  %hi(0x80ccb800), %l4
  68:	34 2e 34 00 	unknown
  6c:	00 47 43 43 	unknown
  70:	3a 20 28 47 	unknown
  74:	4e 55 29 20 	call  3954a4f4 <_trap_table-0x6ab5b0c>
  78:	33 2e 34 2e 	sethi  %hi(0xb8d0b800), %i1
  7c:	34 00 00 47 	unknown
  80:	43 43 3a 20 	call  d0ce900 <_trap_table-0x32f31700>
  84:	28 47 4e 55 	unknown
  88:	29 20 33 2e 	sethi  %hi(0x80ccb800), %l4
  8c:	34 2e 34 00 	unknown
  90:	00 47 43 43 	unknown
  94:	3a 20 28 47 	unknown
  98:	4e 55 29 20 	call  3954a518 <_trap_table-0x6ab5ae8>
  9c:	33 2e 34 2e 	sethi  %hi(0xb8d0b800), %i1
  a0:	34 00 00 47 	unknown
  a4:	43 43 3a 20 	call  d0ce924 <_trap_table-0x32f316dc>
  a8:	28 47 4e 55 	unknown
  ac:	29 20 33 2e 	sethi  %hi(0x80ccb800), %l4
  b0:	34 2e 34 00 	unknown
  b4:	00 47 43 43 	unknown
  b8:	3a 20 28 47 	unknown
  bc:	4e 55 29 20 	call  3954a53c <_trap_table-0x6ab5ac4>
  c0:	33 2e 34 2e 	sethi  %hi(0xb8d0b800), %i1
  c4:	34 00 00 47 	unknown
  c8:	43 43 3a 20 	call  d0ce948 <_trap_table-0x32f316b8>
  cc:	28 47 4e 55 	unknown
  d0:	29 20 33 2e 	sethi  %hi(0x80ccb800), %l4
  d4:	34 2e 34 00 	unknown
