
main.exe:     file format elf32-sparc


Disassembly of section .text:

40000000 <_trap_table>:
40000000:	0d 10 00 03 	sethi  %hi(0x40000c00), %g6
40000004:	81 c1 a3 04 	jmp  %g6 + 0x304	! 40000f04 <_start_svt_weak>
40000008:	01 00 00 00 	nop 

4000000c <_start>:
4000000c:	9d e3 bf c0 	save  %sp, -64, %sp
40000010:	05 10 00 09 	sethi  %hi(0x40002400), %g2
40000014:	84 10 a2 30 	or  %g2, 0x230, %g2	! 40002630 <__bss_start>
40000018:	07 10 00 0a 	sethi  %hi(0x40002800), %g3
4000001c:	86 10 e1 98 	or  %g3, 0x198, %g3	! 40002998 <__end>
40000020:	82 10 00 00 	mov  %g0, %g1
40000024:	86 20 c0 02 	sub  %g3, %g2, %g3

40000028 <zerobss>:
40000028:	86 a0 e0 08 	subcc  %g3, 8, %g3
4000002c:	36 bf ff ff 	bge,a   40000028 <zerobss>
40000030:	c0 38 80 03 	std  %g0, [ %g2 + %g3 ]
40000034:	11 10 00 0a 	sethi  %hi(0x40002800), %o0
40000038:	90 12 21 98 	or  %o0, 0x198, %o0	! 40002998 <__end>
4000003c:	c0 22 00 00 	clr  [ %o0 ]
40000040:	40 00 03 a8 	call  40000ee0 <bdinit2>
40000044:	01 00 00 00 	nop 
40000048:	40 00 03 a8 	call  40000ee8 <prelibchook>
4000004c:	01 00 00 00 	nop 
40000050:	40 00 03 e7 	call  40000fec <_call_initcalls>
40000054:	01 00 00 00 	nop 
40000058:	11 10 00 08 	sethi  %hi(0x40002000), %o0
4000005c:	90 12 20 5c 	or  %o0, 0x5c, %o0	! 4000205c <_fini>
40000060:	40 00 00 53 	call  400001ac <atexit>
40000064:	01 00 00 00 	nop 
40000068:	40 00 07 f6 	call  40002040 <_init>
4000006c:	01 00 00 00 	nop 
40000070:	40 00 01 83 	call  4000067c <main>
40000074:	01 00 00 00 	nop 
40000078:	40 00 03 9e 	call  40000ef0 <_exit>
4000007c:	01 00 00 00 	nop 
40000080:	81 c7 e0 08 	ret 
40000084:	81 e8 00 00 	restore 

40000088 <__do_global_dtors_aux>:
40000088:	9d e3 bf a0 	save  %sp, -96, %sp
4000008c:	21 10 00 09 	sethi  %hi(0x40002400), %l0
40000090:	c2 0c 22 30 	ldub  [ %l0 + 0x230 ], %g1	! 40002630 <__bss_start>
40000094:	80 a0 60 00 	cmp  %g1, 0
40000098:	12 80 00 22 	bne  40000120 <__do_global_dtors_aux+0x98>
4000009c:	23 10 00 09 	sethi  %hi(0x40002400), %l1
400000a0:	c2 04 62 34 	ld  [ %l1 + 0x234 ], %g1	! 40002634 <dtor_idx.4017>
400000a4:	27 10 00 07 	sethi  %hi(0x40001c00), %l3
400000a8:	25 10 00 07 	sethi  %hi(0x40001c00), %l2
400000ac:	a6 14 e1 d4 	or  %l3, 0x1d4, %l3
400000b0:	a4 14 a1 d8 	or  %l2, 0x1d8, %l2
400000b4:	a4 24 80 13 	sub  %l2, %l3, %l2
400000b8:	a5 3c a0 02 	sra  %l2, 2, %l2
400000bc:	a4 04 bf ff 	add  %l2, -1, %l2
400000c0:	80 a0 40 12 	cmp  %g1, %l2
400000c4:	3a 80 00 0e 	bcc,a   400000fc <__do_global_dtors_aux+0x74>
400000c8:	03 00 00 00 	sethi  %hi(0), %g1
400000cc:	a2 14 62 34 	or  %l1, 0x234, %l1
400000d0:	82 00 60 01 	inc  %g1
400000d4:	85 28 60 02 	sll  %g1, 2, %g2
400000d8:	c2 24 40 00 	st  %g1, [ %l1 ]
400000dc:	c2 04 c0 02 	ld  [ %l3 + %g2 ], %g1
400000e0:	9f c0 40 00 	call  %g1
400000e4:	01 00 00 00 	nop 
400000e8:	c2 04 40 00 	ld  [ %l1 ], %g1
400000ec:	80 a0 40 12 	cmp  %g1, %l2
400000f0:	0a bf ff f9 	bcs  400000d4 <__do_global_dtors_aux+0x4c>
400000f4:	82 00 60 01 	inc  %g1
400000f8:	03 00 00 00 	sethi  %hi(0), %g1
400000fc:	82 10 60 00 	mov  %g1, %g1	! 0 <_trap_table-0x40000000>
40000100:	80 a0 60 00 	cmp  %g1, 0
40000104:	02 80 00 06 	be  4000011c <__do_global_dtors_aux+0x94>
40000108:	82 10 20 01 	mov  1, %g1
4000010c:	11 10 00 07 	sethi  %hi(0x40001c00), %o0
40000110:	6f ff ff bc 	call  0 <_trap_table-0x40000000>
40000114:	90 12 20 70 	or  %o0, 0x70, %o0	! 40001c70 <__EH_FRAME_BEGIN__>
40000118:	82 10 20 01 	mov  1, %g1
4000011c:	c2 2c 22 30 	stb  %g1, [ %l0 + 0x230 ]
40000120:	81 c7 e0 08 	ret 
40000124:	81 e8 00 00 	restore 

40000128 <call___do_global_dtors_aux>:
40000128:	9d e3 bf a0 	save  %sp, -96, %sp
4000012c:	81 c7 e0 08 	ret 
40000130:	81 e8 00 00 	restore 

40000134 <frame_dummy>:
40000134:	9d e3 bf a0 	save  %sp, -96, %sp
40000138:	03 00 00 00 	sethi  %hi(0), %g1
4000013c:	82 10 60 00 	mov  %g1, %g1	! 0 <_trap_table-0x40000000>
40000140:	80 a0 60 00 	cmp  %g1, 0
40000144:	22 80 00 08 	be,a   40000164 <frame_dummy+0x30>
40000148:	11 10 00 0a 	sethi  %hi(0x40002800), %o0
4000014c:	11 10 00 07 	sethi  %hi(0x40001c00), %o0
40000150:	13 10 00 09 	sethi  %hi(0x40002400), %o1
40000154:	90 12 20 70 	or  %o0, 0x70, %o0
40000158:	6f ff ff aa 	call  0 <_trap_table-0x40000000>
4000015c:	92 12 62 38 	or  %o1, 0x238, %o1
40000160:	11 10 00 0a 	sethi  %hi(0x40002800), %o0
40000164:	c2 02 21 98 	ld  [ %o0 + 0x198 ], %g1	! 40002998 <__end>
40000168:	80 a0 60 00 	cmp  %g1, 0
4000016c:	02 80 00 09 	be  40000190 <frame_dummy+0x5c>
40000170:	90 12 21 98 	or  %o0, 0x198, %o0
40000174:	03 00 00 00 	sethi  %hi(0), %g1
40000178:	82 10 60 00 	mov  %g1, %g1	! 0 <_trap_table-0x40000000>
4000017c:	80 a0 60 00 	cmp  %g1, 0
40000180:	02 80 00 04 	be  40000190 <frame_dummy+0x5c>
40000184:	01 00 00 00 	nop 
40000188:	9f c0 40 00 	call  %g1
4000018c:	01 00 00 00 	nop 
40000190:	81 c7 e0 08 	ret 
40000194:	81 e8 00 00 	restore 

40000198 <call_frame_dummy>:
40000198:	9d e3 bf a0 	save  %sp, -96, %sp
4000019c:	81 c7 e0 08 	ret 
400001a0:	81 e8 00 00 	restore 

400001a4 <pnpinit>:
400001a4:	81 c3 e0 08 	retl 
400001a8:	01 00 00 00 	nop 

400001ac <atexit>:
400001ac:	03 10 00 07 	sethi  %hi(0x40001c00), %g1
400001b0:	c4 00 62 e0 	ld  [ %g1 + 0x2e0 ], %g2	! 40001ee0 <_global_impure_ptr>
400001b4:	c2 00 a1 48 	ld  [ %g2 + 0x148 ], %g1
400001b8:	80 a0 60 00 	cmp  %g1, 0
400001bc:	22 80 00 0e 	be,a   400001f4 <atexit+0x48>
400001c0:	82 00 a1 4c 	add  %g2, 0x14c, %g1
400001c4:	c4 00 60 04 	ld  [ %g1 + 4 ], %g2
400001c8:	80 a0 a0 1f 	cmp  %g2, 0x1f
400001cc:	14 80 00 08 	bg  400001ec <atexit+0x40>
400001d0:	86 10 3f ff 	mov  -1, %g3
400001d4:	86 00 a0 02 	add  %g2, 2, %g3
400001d8:	87 28 e0 02 	sll  %g3, 2, %g3
400001dc:	84 00 a0 01 	inc  %g2
400001e0:	c4 20 60 04 	st  %g2, [ %g1 + 4 ]
400001e4:	d0 20 40 03 	st  %o0, [ %g1 + %g3 ]
400001e8:	86 10 20 00 	clr  %g3
400001ec:	81 c3 e0 08 	retl 
400001f0:	90 10 00 03 	mov  %g3, %o0
400001f4:	10 bf ff f4 	b  400001c4 <atexit+0x18>
400001f8:	c2 20 a1 48 	st  %g1, [ %g2 + 0x148 ]

400001fc <bubblesort>:
400001fc:	9d e3 bf 88 	save  %sp, -120, %sp
40000200:	f0 27 a0 44 	st  %i0, [ %fp + 0x44 ]
40000204:	c0 27 bf f0 	clr  [ %fp + -16 ]
40000208:	10 80 00 4c 	b  40000338 <bubblesort+0x13c>
4000020c:	01 00 00 00 	nop 
40000210:	c0 27 bf ec 	clr  [ %fp + -20 ]
40000214:	c0 27 bf f4 	clr  [ %fp + -12 ]
40000218:	10 80 00 3a 	b  40000300 <bubblesort+0x104>
4000021c:	01 00 00 00 	nop 
40000220:	c2 07 bf f4 	ld  [ %fp + -12 ], %g1
40000224:	82 00 60 01 	inc  %g1
40000228:	c2 27 bf fc 	st  %g1, [ %fp + -4 ]
4000022c:	c2 07 bf f4 	ld  [ %fp + -12 ], %g1
40000230:	c4 07 a0 44 	ld  [ %fp + 0x44 ], %g2
40000234:	82 00 80 01 	add  %g2, %g1, %g1
40000238:	c4 08 40 00 	ldub  [ %g1 ], %g2
4000023c:	c2 07 bf fc 	ld  [ %fp + -4 ], %g1
40000240:	c6 07 a0 44 	ld  [ %fp + 0x44 ], %g3
40000244:	82 00 c0 01 	add  %g3, %g1, %g1
40000248:	c2 08 40 00 	ldub  [ %g1 ], %g1
4000024c:	84 08 a0 ff 	and  %g2, 0xff, %g2
40000250:	82 08 60 ff 	and  %g1, 0xff, %g1
40000254:	80 a0 80 01 	cmp  %g2, %g1
40000258:	08 80 00 27 	bleu  400002f4 <bubblesort+0xf8>
4000025c:	01 00 00 00 	nop 
40000260:	c2 07 bf f4 	ld  [ %fp + -12 ], %g1
40000264:	c4 07 a0 44 	ld  [ %fp + 0x44 ], %g2
40000268:	82 00 80 01 	add  %g2, %g1, %g1
4000026c:	c2 08 40 00 	ldub  [ %g1 ], %g1
40000270:	82 08 60 ff 	and  %g1, 0xff, %g1
40000274:	c2 27 bf f8 	st  %g1, [ %fp + -8 ]
40000278:	c2 07 bf f4 	ld  [ %fp + -12 ], %g1
4000027c:	c4 07 a0 44 	ld  [ %fp + 0x44 ], %g2
40000280:	82 00 80 01 	add  %g2, %g1, %g1
40000284:	c4 07 bf fc 	ld  [ %fp + -4 ], %g2
40000288:	c6 07 a0 44 	ld  [ %fp + 0x44 ], %g3
4000028c:	84 00 c0 02 	add  %g3, %g2, %g2
40000290:	c4 08 80 00 	ldub  [ %g2 ], %g2
40000294:	c4 28 40 00 	stb  %g2, [ %g1 ]
40000298:	c2 07 bf fc 	ld  [ %fp + -4 ], %g1
4000029c:	c4 07 a0 44 	ld  [ %fp + 0x44 ], %g2
400002a0:	82 00 80 01 	add  %g2, %g1, %g1
400002a4:	c4 07 bf f8 	ld  [ %fp + -8 ], %g2
400002a8:	c4 28 40 00 	stb  %g2, [ %g1 ]
400002ac:	82 10 20 01 	mov  1, %g1
400002b0:	c2 27 bf ec 	st  %g1, [ %fp + -20 ]
400002b4:	c2 07 bf f4 	ld  [ %fp + -12 ], %g1
400002b8:	c4 07 a0 44 	ld  [ %fp + 0x44 ], %g2
400002bc:	82 00 80 01 	add  %g2, %g1, %g1
400002c0:	c2 08 40 00 	ldub  [ %g1 ], %g1
400002c4:	84 08 60 ff 	and  %g1, 0xff, %g2
400002c8:	c2 07 bf fc 	ld  [ %fp + -4 ], %g1
400002cc:	c6 07 a0 44 	ld  [ %fp + 0x44 ], %g3
400002d0:	82 00 c0 01 	add  %g3, %g1, %g1
400002d4:	c2 08 40 00 	ldub  [ %g1 ], %g1
400002d8:	82 08 60 ff 	and  %g1, 0xff, %g1
400002dc:	90 10 00 02 	mov  %g2, %o0
400002e0:	92 10 00 01 	mov  %g1, %o1
400002e4:	d4 07 bf f4 	ld  [ %fp + -12 ], %o2
400002e8:	d6 07 bf fc 	ld  [ %fp + -4 ], %o3
400002ec:	40 00 00 1d 	call  40000360 <bubblelog>
400002f0:	01 00 00 00 	nop 
400002f4:	c2 07 bf f4 	ld  [ %fp + -12 ], %g1
400002f8:	82 00 60 01 	inc  %g1
400002fc:	c2 27 bf f4 	st  %g1, [ %fp + -12 ]
40000300:	84 10 20 13 	mov  0x13, %g2
40000304:	c2 07 bf f0 	ld  [ %fp + -16 ], %g1
40000308:	84 20 80 01 	sub  %g2, %g1, %g2
4000030c:	c2 07 bf f4 	ld  [ %fp + -12 ], %g1
40000310:	80 a0 80 01 	cmp  %g2, %g1
40000314:	14 bf ff c3 	bg  40000220 <bubblesort+0x24>
40000318:	01 00 00 00 	nop 
4000031c:	c2 07 bf ec 	ld  [ %fp + -20 ], %g1
40000320:	80 a0 60 00 	cmp  %g1, 0
40000324:	02 80 00 0b 	be  40000350 <bubblesort+0x154>
40000328:	01 00 00 00 	nop 
4000032c:	c2 07 bf f0 	ld  [ %fp + -16 ], %g1
40000330:	82 00 60 01 	inc  %g1
40000334:	c2 27 bf f0 	st  %g1, [ %fp + -16 ]
40000338:	c2 07 bf f0 	ld  [ %fp + -16 ], %g1
4000033c:	80 a0 60 13 	cmp  %g1, 0x13
40000340:	04 bf ff b4 	ble  40000210 <bubblesort+0x14>
40000344:	01 00 00 00 	nop 
40000348:	10 80 00 03 	b  40000354 <bubblesort+0x158>
4000034c:	01 00 00 00 	nop 
40000350:	01 00 00 00 	nop 
40000354:	81 e8 00 00 	restore 
40000358:	81 c3 e0 08 	retl 
4000035c:	01 00 00 00 	nop 

40000360 <bubblelog>:
40000360:	9d e3 bf a0 	save  %sp, -96, %sp
40000364:	84 10 00 18 	mov  %i0, %g2
40000368:	82 10 00 19 	mov  %i1, %g1
4000036c:	f4 27 a0 4c 	st  %i2, [ %fp + 0x4c ]
40000370:	f6 27 a0 50 	st  %i3, [ %fp + 0x50 ]
40000374:	c4 2f a0 44 	stb  %g2, [ %fp + 0x44 ]
40000378:	c2 2f a0 48 	stb  %g1, [ %fp + 0x48 ]
4000037c:	03 10 00 0a 	sethi  %hi(0x40002800), %g1
40000380:	82 10 61 60 	or  %g1, 0x160, %g1	! 40002960 <TData>
40000384:	c4 0f a0 44 	ldub  [ %fp + 0x44 ], %g2
40000388:	c4 28 40 00 	stb  %g2, [ %g1 ]
4000038c:	03 10 00 0a 	sethi  %hi(0x40002800), %g1
40000390:	82 10 61 60 	or  %g1, 0x160, %g1	! 40002960 <TData>
40000394:	c4 0f a0 48 	ldub  [ %fp + 0x48 ], %g2
40000398:	c4 28 60 01 	stb  %g2, [ %g1 + 1 ]
4000039c:	03 10 00 0a 	sethi  %hi(0x40002800), %g1
400003a0:	82 10 61 60 	or  %g1, 0x160, %g1	! 40002960 <TData>
400003a4:	c4 07 a0 4c 	ld  [ %fp + 0x4c ], %g2
400003a8:	c4 20 60 04 	st  %g2, [ %g1 + 4 ]
400003ac:	03 10 00 0a 	sethi  %hi(0x40002800), %g1
400003b0:	82 10 61 60 	or  %g1, 0x160, %g1	! 40002960 <TData>
400003b4:	c4 07 a0 50 	ld  [ %fp + 0x50 ], %g2
400003b8:	c4 20 60 08 	st  %g2, [ %g1 + 8 ]
400003bc:	81 e8 00 00 	restore 
400003c0:	81 c3 e0 08 	retl 
400003c4:	01 00 00 00 	nop 

400003c8 <initializeTestData>:
400003c8:	9d e3 bf 98 	save  %sp, -104, %sp
400003cc:	c0 27 bf fc 	clr  [ %fp + -4 ]
400003d0:	10 80 00 31 	b  40000494 <initializeTestData+0xcc>
400003d4:	01 00 00 00 	nop 
400003d8:	e8 07 bf fc 	ld  [ %fp + -4 ], %l4
400003dc:	40 00 02 42 	call  40000ce4 <rand>
400003e0:	01 00 00 00 	nop 
400003e4:	82 10 00 08 	mov  %o0, %g1
400003e8:	a6 10 00 01 	mov  %g1, %l3
400003ec:	83 38 60 1f 	sra  %g1, 0x1f, %g1
400003f0:	a4 10 00 01 	mov  %g1, %l2
400003f4:	84 10 00 12 	mov  %l2, %g2
400003f8:	86 10 00 13 	mov  %l3, %g3
400003fc:	83 30 e0 18 	srl  %g3, 0x18, %g1
40000400:	a1 28 a0 08 	sll  %g2, 8, %l0
40000404:	a0 10 40 10 	or  %g1, %l0, %l0
40000408:	a3 28 e0 08 	sll  %g3, 8, %l1
4000040c:	86 a4 40 13 	subcc  %l1, %l3, %g3
40000410:	84 64 00 12 	subx  %l0, %l2, %g2
40000414:	90 10 00 02 	mov  %g2, %o0
40000418:	92 10 00 03 	mov  %g3, %o1
4000041c:	94 10 20 00 	clr  %o2
40000420:	17 1f ff ff 	sethi  %hi(0x7ffffc00), %o3
40000424:	96 12 e3 ff 	or  %o3, 0x3ff, %o3	! 7fffffff <__end+0x3fffd667>
40000428:	40 00 00 ad 	call  400006dc <__udivdi3>
4000042c:	01 00 00 00 	nop 
40000430:	84 10 00 08 	mov  %o0, %g2
40000434:	86 10 00 09 	mov  %o1, %g3
40000438:	84 10 00 03 	mov  %g3, %g2
4000043c:	03 10 00 0a 	sethi  %hi(0x40002800), %g1
40000440:	82 10 61 70 	or  %g1, 0x170, %g1	! 40002970 <DataToSort>
40000444:	c4 28 40 14 	stb  %g2, [ %g1 + %l4 ]
40000448:	c2 07 bf fc 	ld  [ %fp + -4 ], %g1
4000044c:	05 10 00 0a 	sethi  %hi(0x40002800), %g2
40000450:	84 10 a1 70 	or  %g2, 0x170, %g2	! 40002970 <DataToSort>
40000454:	c2 08 80 01 	ldub  [ %g2 + %g1 ], %g1
40000458:	84 08 60 ff 	and  %g1, 0xff, %g2
4000045c:	c2 07 bf fc 	ld  [ %fp + -4 ], %g1
40000460:	07 10 00 0a 	sethi  %hi(0x40002800), %g3
40000464:	86 10 e1 70 	or  %g3, 0x170, %g3	! 40002970 <DataToSort>
40000468:	c2 08 c0 01 	ldub  [ %g3 + %g1 ], %g1
4000046c:	82 08 60 ff 	and  %g1, 0xff, %g1
40000470:	90 10 00 02 	mov  %g2, %o0
40000474:	92 10 00 01 	mov  %g1, %o1
40000478:	d4 07 bf fc 	ld  [ %fp + -4 ], %o2
4000047c:	d6 07 bf fc 	ld  [ %fp + -4 ], %o3
40000480:	7f ff ff b8 	call  40000360 <bubblelog>
40000484:	01 00 00 00 	nop 
40000488:	c2 07 bf fc 	ld  [ %fp + -4 ], %g1
4000048c:	82 00 60 01 	inc  %g1
40000490:	c2 27 bf fc 	st  %g1, [ %fp + -4 ]
40000494:	c2 07 bf fc 	ld  [ %fp + -4 ], %g1
40000498:	80 a0 60 13 	cmp  %g1, 0x13
4000049c:	04 bf ff cf 	ble  400003d8 <initializeTestData+0x10>
400004a0:	01 00 00 00 	nop 
400004a4:	81 e8 00 00 	restore 
400004a8:	81 c3 e0 08 	retl 
400004ac:	01 00 00 00 	nop 

400004b0 <runTestAlgorithm>:
400004b0:	9d e3 bf a0 	save  %sp, -96, %sp
400004b4:	03 10 00 0a 	sethi  %hi(0x40002800), %g1
400004b8:	90 10 61 70 	or  %g1, 0x170, %o0	! 40002970 <DataToSort>
400004bc:	7f ff ff 50 	call  400001fc <bubblesort>
400004c0:	01 00 00 00 	nop 
400004c4:	81 e8 00 00 	restore 
400004c8:	81 c3 e0 08 	retl 
400004cc:	01 00 00 00 	nop 

400004d0 <disable_cache>:
400004d0:	9d e3 bf a0 	save  %sp, -96, %sp
400004d4:	e2 80 00 40 	lda  [ %g0 ] (2), %l1
400004d8:	a4 10 20 0f 	mov  0xf, %l2
400004dc:	a4 2c 80 11 	andn  %l2, %l1, %l2
400004e0:	e4 a0 00 40 	sta  %l2, [ %g0 ] (2)
400004e4:	81 e8 00 00 	restore 
400004e8:	81 c3 e0 08 	retl 
400004ec:	01 00 00 00 	nop 

400004f0 <enable_traps>:
400004f0:	9d e3 bf a0 	save  %sp, -96, %sp
400004f4:	25 00 00 04 	sethi  %hi(0x1000), %l2
400004f8:	a4 14 a0 e0 	or  %l2, 0xe0, %l2	! 10e0 <_trap_table-0x3fffef20>
400004fc:	81 8c 80 00 	mov  %l2, %psr
40000500:	81 e8 00 00 	restore 
40000504:	81 c3 e0 08 	retl 
40000508:	01 00 00 00 	nop 

4000050c <set_tbr>:
4000050c:	9d e3 bf a0 	save  %sp, -96, %sp
40000510:	25 10 00 00 	sethi  %hi(0x40000000), %l2
40000514:	81 9c 80 00 	mov  %l2, %tbr
40000518:	01 00 00 00 	nop 
4000051c:	01 00 00 00 	nop 
40000520:	01 00 00 00 	nop 
40000524:	81 e8 00 00 	restore 
40000528:	81 c3 e0 08 	retl 
4000052c:	01 00 00 00 	nop 

40000530 <powerdown>:
40000530:	9d e3 bf a0 	save  %sp, -96, %sp
40000534:	a7 80 00 00 	mov  %g0, %asr19
40000538:	81 e8 00 00 	restore 
4000053c:	81 c3 e0 08 	retl 
40000540:	01 00 00 00 	nop 

40000544 <get_psr>:
40000544:	9d e3 bf 98 	save  %sp, -104, %sp
40000548:	83 48 00 00 	rd  %psr, %g1
4000054c:	c2 27 bf fc 	st  %g1, [ %fp + -4 ]
40000550:	c2 07 bf fc 	ld  [ %fp + -4 ], %g1
40000554:	b0 10 00 01 	mov  %g1, %i0
40000558:	81 e8 00 00 	restore 
4000055c:	81 c3 e0 08 	retl 
40000560:	01 00 00 00 	nop 

40000564 <get_wim>:
40000564:	9d e3 bf 98 	save  %sp, -104, %sp
40000568:	83 50 00 00 	rd  %wim, %g1
4000056c:	c2 27 bf fc 	st  %g1, [ %fp + -4 ]
40000570:	c2 07 bf fc 	ld  [ %fp + -4 ], %g1
40000574:	b0 10 00 01 	mov  %g1, %i0
40000578:	81 e8 00 00 	restore 
4000057c:	81 c3 e0 08 	retl 
40000580:	01 00 00 00 	nop 

40000584 <get_tbr>:
40000584:	9d e3 bf 98 	save  %sp, -104, %sp
40000588:	83 58 00 00 	rd  %tbr, %g1
4000058c:	c2 27 bf fc 	st  %g1, [ %fp + -4 ]
40000590:	c2 07 bf fc 	ld  [ %fp + -4 ], %g1
40000594:	b0 10 00 01 	mov  %g1, %i0
40000598:	81 e8 00 00 	restore 
4000059c:	81 c3 e0 08 	retl 
400005a0:	01 00 00 00 	nop 

400005a4 <get_asr17>:
400005a4:	9d e3 bf 98 	save  %sp, -104, %sp
400005a8:	83 44 40 00 	rd  %asr17, %g1
400005ac:	c2 27 bf fc 	st  %g1, [ %fp + -4 ]
400005b0:	c2 07 bf fc 	ld  [ %fp + -4 ], %g1
400005b4:	b0 10 00 01 	mov  %g1, %i0
400005b8:	81 e8 00 00 	restore 
400005bc:	81 c3 e0 08 	retl 
400005c0:	01 00 00 00 	nop 

400005c4 <get_proc_index>:
400005c4:	9d e3 bf a0 	save  %sp, -96, %sp
400005c8:	7f ff ff f7 	call  400005a4 <get_asr17>
400005cc:	01 00 00 00 	nop 
400005d0:	82 10 00 08 	mov  %o0, %g1
400005d4:	83 30 60 1c 	srl  %g1, 0x1c, %g1
400005d8:	b0 10 00 01 	mov  %g1, %i0
400005dc:	81 e8 00 00 	restore 
400005e0:	81 c3 e0 08 	retl 
400005e4:	01 00 00 00 	nop 

400005e8 <stop_processor>:
400005e8:	9d e3 bf a0 	save  %sp, -96, %sp
400005ec:	f0 27 a0 44 	st  %i0, [ %fp + 0x44 ]
400005f0:	c2 07 a0 44 	ld  [ %fp + 0x44 ], %g1
400005f4:	82 08 60 0f 	and  %g1, 0xf, %g1
400005f8:	c2 27 a0 44 	st  %g1, [ %fp + 0x44 ]
400005fc:	03 20 00 00 	sethi  %hi(0x80000000), %g1
40000600:	82 10 62 10 	or  %g1, 0x210, %g1	! 80000210 <__end+0x3fffd878>
40000604:	05 20 00 00 	sethi  %hi(0x80000000), %g2
40000608:	84 10 a2 10 	or  %g2, 0x210, %g2	! 80000210 <__end+0x3fffd878>
4000060c:	c6 00 80 00 	ld  [ %g2 ], %g3
40000610:	88 10 20 01 	mov  1, %g4
40000614:	c4 07 a0 44 	ld  [ %fp + 0x44 ], %g2
40000618:	85 29 00 02 	sll  %g4, %g2, %g2
4000061c:	84 10 c0 02 	or  %g3, %g2, %g2
40000620:	c4 20 40 00 	st  %g2, [ %g1 ]
40000624:	81 e8 00 00 	restore 
40000628:	81 c3 e0 08 	retl 
4000062c:	01 00 00 00 	nop 

40000630 <start_processor>:
40000630:	9d e3 bf a0 	save  %sp, -96, %sp
40000634:	f0 27 a0 44 	st  %i0, [ %fp + 0x44 ]
40000638:	c2 07 a0 44 	ld  [ %fp + 0x44 ], %g1
4000063c:	82 08 60 0f 	and  %g1, 0xf, %g1
40000640:	c2 27 a0 44 	st  %g1, [ %fp + 0x44 ]
40000644:	03 20 00 00 	sethi  %hi(0x80000000), %g1
40000648:	82 10 62 10 	or  %g1, 0x210, %g1	! 80000210 <__end+0x3fffd878>
4000064c:	05 20 00 00 	sethi  %hi(0x80000000), %g2
40000650:	84 10 a2 10 	or  %g2, 0x210, %g2	! 80000210 <__end+0x3fffd878>
40000654:	c6 00 80 00 	ld  [ %g2 ], %g3
40000658:	88 10 20 01 	mov  1, %g4
4000065c:	c4 07 a0 44 	ld  [ %fp + 0x44 ], %g2
40000660:	85 29 00 02 	sll  %g4, %g2, %g2
40000664:	84 38 00 02 	xnor  %g0, %g2, %g2
40000668:	84 08 c0 02 	and  %g3, %g2, %g2
4000066c:	c4 20 40 00 	st  %g2, [ %g1 ]
40000670:	81 e8 00 00 	restore 
40000674:	81 c3 e0 08 	retl 
40000678:	01 00 00 00 	nop 

4000067c <main>:
4000067c:	9d e3 bf a0 	save  %sp, -96, %sp
40000680:	7f ff ff d1 	call  400005c4 <get_proc_index>
40000684:	01 00 00 00 	nop 
40000688:	82 10 00 08 	mov  %o0, %g1
4000068c:	80 a0 60 00 	cmp  %g1, 0
40000690:	12 80 00 0e 	bne  400006c8 <main+0x4c>
40000694:	01 00 00 00 	nop 
40000698:	03 10 00 08 	sethi  %hi(0x40002000), %g1
4000069c:	82 10 60 7c 	or  %g1, 0x7c, %g1	! 4000207c <Seed>
400006a0:	c2 00 40 00 	ld  [ %g1 ], %g1
400006a4:	90 10 00 01 	mov  %g1, %o0
400006a8:	40 00 01 8a 	call  40000cd0 <srand>
400006ac:	01 00 00 00 	nop 
400006b0:	40 00 01 8d 	call  40000ce4 <rand>
400006b4:	01 00 00 00 	nop 
400006b8:	7f ff ff 44 	call  400003c8 <initializeTestData>
400006bc:	01 00 00 00 	nop 
400006c0:	7f ff ff 7c 	call  400004b0 <runTestAlgorithm>
400006c4:	01 00 00 00 	nop 
400006c8:	82 10 20 00 	clr  %g1	! 0 <_trap_table-0x40000000>
400006cc:	b0 10 00 01 	mov  %g1, %i0
400006d0:	81 e8 00 00 	restore 
400006d4:	81 c3 e0 08 	retl 
400006d8:	01 00 00 00 	nop 

400006dc <__udivdi3>:
400006dc:	9d e3 bf a0 	save  %sp, -96, %sp
400006e0:	80 a6 a0 00 	cmp  %i2, 0
400006e4:	12 80 00 37 	bne  400007c0 <__udivdi3+0xe4>
400006e8:	90 10 00 1b 	mov  %i3, %o0
400006ec:	80 a6 c0 18 	cmp  %i3, %i0
400006f0:	18 80 00 57 	bgu  4000084c <__udivdi3+0x170>
400006f4:	80 a6 e0 00 	cmp  %i3, 0
400006f8:	12 80 00 06 	bne  40000710 <__udivdi3+0x34>
400006fc:	84 10 20 00 	clr  %g2
40000700:	90 10 20 01 	mov  1, %o0
40000704:	40 00 00 c7 	call  40000a20 <.udiv>
40000708:	92 10 20 00 	clr  %o1
4000070c:	84 10 20 00 	clr  %g2
40000710:	82 10 20 20 	mov  0x20, %g1
40000714:	80 a0 80 08 	cmp  %g2, %o0
40000718:	0a 80 00 0c 	bcs  40000748 <__udivdi3+0x6c>
4000071c:	b0 c6 00 18 	addxcc  %i0, %i0, %i0
40000720:	84 20 80 08 	sub  %g2, %o0, %g2
40000724:	84 40 80 02 	addx  %g2, %g2, %g2
40000728:	82 a0 60 01 	deccc  %g1
4000072c:	12 bf ff fb 	bne  40000718 <__udivdi3+0x3c>
40000730:	80 a0 80 08 	cmp  %g2, %o0
40000734:	0a 80 00 0b 	bcs  40000760 <__udivdi3+0x84>
40000738:	b0 c6 00 18 	addxcc  %i0, %i0, %i0
4000073c:	10 80 00 09 	b  40000760 <__udivdi3+0x84>
40000740:	84 20 80 08 	sub  %g2, %o0, %g2
40000744:	84 20 80 08 	sub  %g2, %o0, %g2
40000748:	84 c0 80 02 	addxcc  %g2, %g2, %g2
4000074c:	1a bf ff f8 	bcc  4000072c <__udivdi3+0x50>
40000750:	82 a0 60 01 	deccc  %g1
40000754:	12 bf ff fc 	bne  40000744 <__udivdi3+0x68>
40000758:	b0 86 00 18 	addcc  %i0, %i0, %i0
4000075c:	84 20 80 08 	sub  %g2, %o0, %g2
40000760:	b0 3e 20 00 	xnor  %i0, 0, %i0
40000764:	82 10 20 20 	mov  0x20, %g1
40000768:	80 a0 80 08 	cmp  %g2, %o0
4000076c:	0a 80 00 0c 	bcs  4000079c <__udivdi3+0xc0>
40000770:	b2 c6 40 19 	addxcc  %i1, %i1, %i1
40000774:	84 20 80 08 	sub  %g2, %o0, %g2
40000778:	84 40 80 02 	addx  %g2, %g2, %g2
4000077c:	82 a0 60 01 	deccc  %g1
40000780:	12 bf ff fb 	bne  4000076c <__udivdi3+0x90>
40000784:	80 a0 80 08 	cmp  %g2, %o0
40000788:	0a 80 00 0b 	bcs  400007b4 <__udivdi3+0xd8>
4000078c:	b2 c6 40 19 	addxcc  %i1, %i1, %i1
40000790:	10 80 00 09 	b  400007b4 <__udivdi3+0xd8>
40000794:	84 20 80 08 	sub  %g2, %o0, %g2
40000798:	84 20 80 08 	sub  %g2, %o0, %g2
4000079c:	84 c0 80 02 	addxcc  %g2, %g2, %g2
400007a0:	1a bf ff f8 	bcc  40000780 <__udivdi3+0xa4>
400007a4:	82 a0 60 01 	deccc  %g1
400007a8:	12 bf ff fc 	bne  40000798 <__udivdi3+0xbc>
400007ac:	b2 86 40 19 	addcc  %i1, %i1, %i1
400007b0:	84 20 80 08 	sub  %g2, %o0, %g2
400007b4:	b2 3e 60 00 	xnor  %i1, 0, %i1
400007b8:	81 c7 e0 08 	ret 
400007bc:	81 e8 00 00 	restore 
400007c0:	80 a6 80 18 	cmp  %i2, %i0
400007c4:	38 80 00 1f 	bgu,a   40000840 <__udivdi3+0x164>
400007c8:	b2 10 20 00 	clr  %i1
400007cc:	03 00 00 3f 	sethi  %hi(0xfc00), %g1
400007d0:	82 10 63 ff 	or  %g1, 0x3ff, %g1	! ffff <_trap_table-0x3fff0001>
400007d4:	80 a6 80 01 	cmp  %i2, %g1
400007d8:	08 80 00 35 	bleu  400008ac <__udivdi3+0x1d0>
400007dc:	80 a6 a0 ff 	cmp  %i2, 0xff
400007e0:	03 00 3f ff 	sethi  %hi(0xfffc00), %g1
400007e4:	82 10 63 ff 	or  %g1, 0x3ff, %g1	! ffffff <_trap_table-0x3f000001>
400007e8:	84 10 20 10 	mov  0x10, %g2
400007ec:	80 a6 80 01 	cmp  %i2, %g1
400007f0:	08 80 00 04 	bleu  40000800 <__udivdi3+0x124>
400007f4:	82 10 20 10 	mov  0x10, %g1
400007f8:	84 10 20 18 	mov  0x18, %g2
400007fc:	82 10 20 18 	mov  0x18, %g1
40000800:	85 36 80 02 	srl  %i2, %g2, %g2
40000804:	07 10 00 07 	sethi  %hi(0x40001c00), %g3
40000808:	86 10 e1 e0 	or  %g3, 0x1e0, %g3	! 40001de0 <___DTOR_END__>
4000080c:	c4 08 c0 02 	ldub  [ %g3 + %g2 ], %g2
40000810:	82 00 80 01 	add  %g2, %g1, %g1
40000814:	86 10 20 20 	mov  0x20, %g3
40000818:	86 a0 c0 01 	subcc  %g3, %g1, %g3
4000081c:	12 80 00 2d 	bne  400008d0 <__udivdi3+0x1f4>
40000820:	9b 2e 00 03 	sll  %i0, %g3, %o5
40000824:	80 a6 c0 19 	cmp  %i3, %i1
40000828:	08 80 00 27 	bleu  400008c4 <__udivdi3+0x1e8>
4000082c:	b2 10 20 01 	mov  1, %i1
40000830:	80 a6 80 18 	cmp  %i2, %i0
40000834:	2a 80 00 25 	bcs,a   400008c8 <__udivdi3+0x1ec>
40000838:	b0 10 20 00 	clr  %i0
4000083c:	b2 10 20 00 	clr  %i1
40000840:	b0 10 20 00 	clr  %i0
40000844:	81 c7 e0 08 	ret 
40000848:	81 e8 00 00 	restore 
4000084c:	82 10 20 20 	mov  0x20, %g1
40000850:	80 a6 00 1b 	cmp  %i0, %i3
40000854:	0a 80 00 0c 	bcs  40000884 <__udivdi3+0x1a8>
40000858:	b2 c6 40 19 	addxcc  %i1, %i1, %i1
4000085c:	b0 26 00 1b 	sub  %i0, %i3, %i0
40000860:	b0 46 00 18 	addx  %i0, %i0, %i0
40000864:	82 a0 60 01 	deccc  %g1
40000868:	12 bf ff fb 	bne  40000854 <__udivdi3+0x178>
4000086c:	80 a6 00 1b 	cmp  %i0, %i3
40000870:	0a 80 00 0b 	bcs  4000089c <__udivdi3+0x1c0>
40000874:	b2 c6 40 19 	addxcc  %i1, %i1, %i1
40000878:	10 80 00 09 	b  4000089c <__udivdi3+0x1c0>
4000087c:	b0 26 00 1b 	sub  %i0, %i3, %i0
40000880:	b0 26 00 1b 	sub  %i0, %i3, %i0
40000884:	b0 c6 00 18 	addxcc  %i0, %i0, %i0
40000888:	1a bf ff f8 	bcc  40000868 <__udivdi3+0x18c>
4000088c:	82 a0 60 01 	deccc  %g1
40000890:	12 bf ff fc 	bne  40000880 <__udivdi3+0x1a4>
40000894:	b2 86 40 19 	addcc  %i1, %i1, %i1
40000898:	b0 26 00 1b 	sub  %i0, %i3, %i0
4000089c:	b2 3e 60 00 	xnor  %i1, 0, %i1
400008a0:	b0 10 20 00 	clr  %i0
400008a4:	81 c7 e0 08 	ret 
400008a8:	81 e8 00 00 	restore 
400008ac:	84 10 20 00 	clr  %g2
400008b0:	08 bf ff d4 	bleu  40000800 <__udivdi3+0x124>
400008b4:	82 10 20 00 	clr  %g1
400008b8:	84 10 20 08 	mov  8, %g2
400008bc:	10 bf ff d1 	b  40000800 <__udivdi3+0x124>
400008c0:	82 10 20 08 	mov  8, %g1
400008c4:	b0 10 20 00 	clr  %i0
400008c8:	81 c7 e0 08 	ret 
400008cc:	81 e8 00 00 	restore 
400008d0:	85 36 40 01 	srl  %i1, %g1, %g2
400008d4:	89 2e c0 03 	sll  %i3, %g3, %g4
400008d8:	84 13 40 02 	or  %o5, %g2, %g2
400008dc:	b7 36 c0 01 	srl  %i3, %g1, %i3
400008e0:	b1 36 00 01 	srl  %i0, %g1, %i0
400008e4:	b5 2e 80 03 	sll  %i2, %g3, %i2
400008e8:	b6 16 80 1b 	or  %i2, %i3, %i3
400008ec:	82 10 20 20 	mov  0x20, %g1
400008f0:	80 a6 00 1b 	cmp  %i0, %i3
400008f4:	0a 80 00 0c 	bcs  40000924 <__udivdi3+0x248>
400008f8:	84 c0 80 02 	addxcc  %g2, %g2, %g2
400008fc:	b0 26 00 1b 	sub  %i0, %i3, %i0
40000900:	b0 46 00 18 	addx  %i0, %i0, %i0
40000904:	82 a0 60 01 	deccc  %g1
40000908:	12 bf ff fb 	bne  400008f4 <__udivdi3+0x218>
4000090c:	80 a6 00 1b 	cmp  %i0, %i3
40000910:	0a 80 00 0b 	bcs  4000093c <__udivdi3+0x260>
40000914:	84 c0 80 02 	addxcc  %g2, %g2, %g2
40000918:	10 80 00 09 	b  4000093c <__udivdi3+0x260>
4000091c:	b0 26 00 1b 	sub  %i0, %i3, %i0
40000920:	b0 26 00 1b 	sub  %i0, %i3, %i0
40000924:	b0 c6 00 18 	addxcc  %i0, %i0, %i0
40000928:	1a bf ff f8 	bcc  40000908 <__udivdi3+0x22c>
4000092c:	82 a0 60 01 	deccc  %g1
40000930:	12 bf ff fc 	bne  40000920 <__udivdi3+0x244>
40000934:	84 80 80 02 	addcc  %g2, %g2, %g2
40000938:	b0 26 00 1b 	sub  %i0, %i3, %i0
4000093c:	84 38 a0 00 	xnor  %g2, 0, %g2
40000940:	81 80 00 02 	wr  %g0, %g2, %y
40000944:	9b 39 20 1f 	sra  %g4, 0x1f, %o5
40000948:	9a 08 80 0d 	and  %g2, %o5, %o5
4000094c:	82 88 20 00 	andcc  %g0, 0, %g1
40000950:	83 20 40 04 	mulscc  %g1, %g4, %g1
40000954:	83 20 40 04 	mulscc  %g1, %g4, %g1
40000958:	83 20 40 04 	mulscc  %g1, %g4, %g1
4000095c:	83 20 40 04 	mulscc  %g1, %g4, %g1
40000960:	83 20 40 04 	mulscc  %g1, %g4, %g1
40000964:	83 20 40 04 	mulscc  %g1, %g4, %g1
40000968:	83 20 40 04 	mulscc  %g1, %g4, %g1
4000096c:	83 20 40 04 	mulscc  %g1, %g4, %g1
40000970:	83 20 40 04 	mulscc  %g1, %g4, %g1
40000974:	83 20 40 04 	mulscc  %g1, %g4, %g1
40000978:	83 20 40 04 	mulscc  %g1, %g4, %g1
4000097c:	83 20 40 04 	mulscc  %g1, %g4, %g1
40000980:	83 20 40 04 	mulscc  %g1, %g4, %g1
40000984:	83 20 40 04 	mulscc  %g1, %g4, %g1
40000988:	83 20 40 04 	mulscc  %g1, %g4, %g1
4000098c:	83 20 40 04 	mulscc  %g1, %g4, %g1
40000990:	83 20 40 04 	mulscc  %g1, %g4, %g1
40000994:	83 20 40 04 	mulscc  %g1, %g4, %g1
40000998:	83 20 40 04 	mulscc  %g1, %g4, %g1
4000099c:	83 20 40 04 	mulscc  %g1, %g4, %g1
400009a0:	83 20 40 04 	mulscc  %g1, %g4, %g1
400009a4:	83 20 40 04 	mulscc  %g1, %g4, %g1
400009a8:	83 20 40 04 	mulscc  %g1, %g4, %g1
400009ac:	83 20 40 04 	mulscc  %g1, %g4, %g1
400009b0:	83 20 40 04 	mulscc  %g1, %g4, %g1
400009b4:	83 20 40 04 	mulscc  %g1, %g4, %g1
400009b8:	83 20 40 04 	mulscc  %g1, %g4, %g1
400009bc:	83 20 40 04 	mulscc  %g1, %g4, %g1
400009c0:	83 20 40 04 	mulscc  %g1, %g4, %g1
400009c4:	83 20 40 04 	mulscc  %g1, %g4, %g1
400009c8:	83 20 40 04 	mulscc  %g1, %g4, %g1
400009cc:	83 20 40 04 	mulscc  %g1, %g4, %g1
400009d0:	83 20 60 00 	mulscc  %g1, 0, %g1
400009d4:	88 00 40 0d 	add  %g1, %o5, %g4
400009d8:	99 40 00 00 	rd  %y, %o4
400009dc:	80 a6 00 04 	cmp  %i0, %g4
400009e0:	2a 80 00 0d 	bcs,a   40000a14 <__udivdi3+0x338>
400009e4:	b2 00 bf ff 	add  %g2, -1, %i1
400009e8:	b3 2e 40 03 	sll  %i1, %g3, %i1
400009ec:	80 a6 40 0c 	cmp  %i1, %o4
400009f0:	0a 80 00 06 	bcs  40000a08 <__udivdi3+0x32c>
400009f4:	80 a6 00 04 	cmp  %i0, %g4
400009f8:	b2 10 00 02 	mov  %g2, %i1
400009fc:	b0 10 20 00 	clr  %i0
40000a00:	81 c7 e0 08 	ret 
40000a04:	81 e8 00 00 	restore 
40000a08:	32 bf ff fd 	bne,a   400009fc <__udivdi3+0x320>
40000a0c:	b2 10 00 02 	mov  %g2, %i1
40000a10:	b2 00 bf ff 	add  %g2, -1, %i1
40000a14:	b0 10 20 00 	clr  %i0
40000a18:	81 c7 e0 08 	ret 
40000a1c:	81 e8 00 00 	restore 

40000a20 <.udiv>:
40000a20:	10 80 00 0b 	b  40000a4c <ready_to_divide>
40000a24:	86 10 20 00 	clr  %g3

40000a28 <.div>:
40000a28:	80 92 40 08 	orcc  %o1, %o0, %g0
40000a2c:	16 80 00 08 	bge  40000a4c <ready_to_divide>
40000a30:	86 1a 40 08 	xor  %o1, %o0, %g3
40000a34:	80 92 40 00 	tst  %o1
40000a38:	16 80 00 04 	bge  40000a48 <.div+0x20>
40000a3c:	80 92 00 00 	tst  %o0
40000a40:	16 80 00 03 	bge  40000a4c <ready_to_divide>
40000a44:	92 20 00 09 	neg  %o1
40000a48:	90 20 00 08 	neg  %o0

40000a4c <ready_to_divide>:
40000a4c:	9a 92 40 00 	orcc  %o1, %g0, %o5
40000a50:	12 80 00 05 	bne  40000a64 <ready_to_divide+0x18>
40000a54:	96 10 00 08 	mov  %o0, %o3
40000a58:	91 d0 20 02 	ta  2
40000a5c:	81 c3 e0 08 	retl 
40000a60:	90 10 00 00 	mov  %g0, %o0
40000a64:	80 a2 c0 0d 	cmp  %o3, %o5
40000a68:	0a 80 00 95 	bcs  40000cbc <got_result>
40000a6c:	94 10 00 00 	mov  %g0, %o2
40000a70:	03 02 00 00 	sethi  %hi(0x8000000), %g1
40000a74:	80 a2 c0 01 	cmp  %o3, %g1
40000a78:	0a 80 00 28 	bcs  40000b18 <not_really_big>
40000a7c:	98 10 00 00 	mov  %g0, %o4
40000a80:	80 a3 40 01 	cmp  %o5, %g1
40000a84:	1a 80 00 0d 	bcc  40000ab8 <not_too_big>
40000a88:	84 10 20 01 	mov  1, %g2
40000a8c:	9b 2b 60 04 	sll  %o5, 4, %o5
40000a90:	10 bf ff fc 	b  40000a80 <ready_to_divide+0x34>
40000a94:	98 03 20 01 	inc  %o4
40000a98:	9a 83 40 0d 	addcc  %o5, %o5, %o5
40000a9c:	1a 80 00 07 	bcc  40000ab8 <not_too_big>
40000aa0:	84 00 a0 01 	inc  %g2
40000aa4:	83 28 60 04 	sll  %g1, 4, %g1
40000aa8:	9b 33 60 01 	srl  %o5, 1, %o5
40000aac:	9a 03 40 01 	add  %o5, %g1, %o5
40000ab0:	10 80 00 07 	b  40000acc <do_single_div>
40000ab4:	84 20 a0 01 	dec  %g2

40000ab8 <not_too_big>:
40000ab8:	80 a3 40 0b 	cmp  %o5, %o3
40000abc:	0a bf ff f7 	bcs  40000a98 <ready_to_divide+0x4c>
40000ac0:	01 00 00 00 	nop 
40000ac4:	02 80 00 02 	be  40000acc <do_single_div>
40000ac8:	01 00 00 00 	nop 

40000acc <do_single_div>:
40000acc:	84 a0 a0 01 	deccc  %g2
40000ad0:	06 80 00 76 	bl  40000ca8 <end_regular_divide>
40000ad4:	01 00 00 00 	nop 
40000ad8:	96 22 c0 0d 	sub  %o3, %o5, %o3
40000adc:	94 10 20 01 	mov  1, %o2
40000ae0:	10 80 00 0a 	b  40000b08 <end_single_divloop>
40000ae4:	01 00 00 00 	nop 

40000ae8 <single_divloop>:
40000ae8:	95 2a a0 01 	sll  %o2, 1, %o2
40000aec:	06 80 00 05 	bl  40000b00 <single_divloop+0x18>
40000af0:	9b 33 60 01 	srl  %o5, 1, %o5
40000af4:	96 22 c0 0d 	sub  %o3, %o5, %o3
40000af8:	10 80 00 04 	b  40000b08 <end_single_divloop>
40000afc:	94 02 a0 01 	inc  %o2
40000b00:	96 02 c0 0d 	add  %o3, %o5, %o3
40000b04:	94 22 a0 01 	dec  %o2

40000b08 <end_single_divloop>:
40000b08:	84 a0 a0 01 	deccc  %g2
40000b0c:	16 bf ff f7 	bge  40000ae8 <single_divloop>
40000b10:	80 92 c0 00 	tst  %o3
40000b14:	30 80 00 65 	b,a   40000ca8 <end_regular_divide>

40000b18 <not_really_big>:
40000b18:	9b 2b 60 04 	sll  %o5, 4, %o5
40000b1c:	80 a3 40 0b 	cmp  %o5, %o3
40000b20:	08 bf ff fe 	bleu  40000b18 <not_really_big>
40000b24:	98 83 20 01 	inccc  %o4
40000b28:	02 80 00 65 	be  40000cbc <got_result>
40000b2c:	98 23 20 01 	dec  %o4
40000b30:	80 92 c0 00 	tst  %o3

40000b34 <divloop>:
40000b34:	95 2a a0 04 	sll  %o2, 4, %o2
40000b38:	06 80 00 2f 	bl  40000bf4 <L1.16>
40000b3c:	9b 33 60 01 	srl  %o5, 1, %o5
40000b40:	96 a2 c0 0d 	subcc  %o3, %o5, %o3
40000b44:	06 80 00 17 	bl  40000ba0 <L2.17>
40000b48:	9b 33 60 01 	srl  %o5, 1, %o5
40000b4c:	96 a2 c0 0d 	subcc  %o3, %o5, %o3
40000b50:	06 80 00 0b 	bl  40000b7c <L3.19>
40000b54:	9b 33 60 01 	srl  %o5, 1, %o5
40000b58:	96 a2 c0 0d 	subcc  %o3, %o5, %o3
40000b5c:	06 80 00 05 	bl  40000b70 <L4.23>
40000b60:	9b 33 60 01 	srl  %o5, 1, %o5
40000b64:	96 a2 c0 0d 	subcc  %o3, %o5, %o3
40000b68:	10 80 00 50 	b  40000ca8 <end_regular_divide>
40000b6c:	94 02 a0 0f 	add  %o2, 0xf, %o2

40000b70 <L4.23>:
40000b70:	96 82 c0 0d 	addcc  %o3, %o5, %o3
40000b74:	10 80 00 4d 	b  40000ca8 <end_regular_divide>
40000b78:	94 02 a0 0d 	add  %o2, 0xd, %o2

40000b7c <L3.19>:
40000b7c:	96 82 c0 0d 	addcc  %o3, %o5, %o3
40000b80:	06 80 00 05 	bl  40000b94 <L4.21>
40000b84:	9b 33 60 01 	srl  %o5, 1, %o5
40000b88:	96 a2 c0 0d 	subcc  %o3, %o5, %o3
40000b8c:	10 80 00 47 	b  40000ca8 <end_regular_divide>
40000b90:	94 02 a0 0b 	add  %o2, 0xb, %o2

40000b94 <L4.21>:
40000b94:	96 82 c0 0d 	addcc  %o3, %o5, %o3
40000b98:	10 80 00 44 	b  40000ca8 <end_regular_divide>
40000b9c:	94 02 a0 09 	add  %o2, 9, %o2

40000ba0 <L2.17>:
40000ba0:	96 82 c0 0d 	addcc  %o3, %o5, %o3
40000ba4:	06 80 00 0b 	bl  40000bd0 <L3.17>
40000ba8:	9b 33 60 01 	srl  %o5, 1, %o5
40000bac:	96 a2 c0 0d 	subcc  %o3, %o5, %o3
40000bb0:	06 80 00 05 	bl  40000bc4 <L4.19>
40000bb4:	9b 33 60 01 	srl  %o5, 1, %o5
40000bb8:	96 a2 c0 0d 	subcc  %o3, %o5, %o3
40000bbc:	10 80 00 3b 	b  40000ca8 <end_regular_divide>
40000bc0:	94 02 a0 07 	add  %o2, 7, %o2

40000bc4 <L4.19>:
40000bc4:	96 82 c0 0d 	addcc  %o3, %o5, %o3
40000bc8:	10 80 00 38 	b  40000ca8 <end_regular_divide>
40000bcc:	94 02 a0 05 	add  %o2, 5, %o2

40000bd0 <L3.17>:
40000bd0:	96 82 c0 0d 	addcc  %o3, %o5, %o3
40000bd4:	06 80 00 05 	bl  40000be8 <L4.17>
40000bd8:	9b 33 60 01 	srl  %o5, 1, %o5
40000bdc:	96 a2 c0 0d 	subcc  %o3, %o5, %o3
40000be0:	10 80 00 32 	b  40000ca8 <end_regular_divide>
40000be4:	94 02 a0 03 	add  %o2, 3, %o2

40000be8 <L4.17>:
40000be8:	96 82 c0 0d 	addcc  %o3, %o5, %o3
40000bec:	10 80 00 2f 	b  40000ca8 <end_regular_divide>
40000bf0:	94 02 a0 01 	inc  %o2

40000bf4 <L1.16>:
40000bf4:	96 82 c0 0d 	addcc  %o3, %o5, %o3
40000bf8:	06 80 00 17 	bl  40000c54 <L2.15>
40000bfc:	9b 33 60 01 	srl  %o5, 1, %o5
40000c00:	96 a2 c0 0d 	subcc  %o3, %o5, %o3
40000c04:	06 80 00 0b 	bl  40000c30 <L3.15>
40000c08:	9b 33 60 01 	srl  %o5, 1, %o5
40000c0c:	96 a2 c0 0d 	subcc  %o3, %o5, %o3
40000c10:	06 80 00 05 	bl  40000c24 <L4.15>
40000c14:	9b 33 60 01 	srl  %o5, 1, %o5
40000c18:	96 a2 c0 0d 	subcc  %o3, %o5, %o3
40000c1c:	10 80 00 23 	b  40000ca8 <end_regular_divide>
40000c20:	94 02 bf ff 	add  %o2, -1, %o2

40000c24 <L4.15>:
40000c24:	96 82 c0 0d 	addcc  %o3, %o5, %o3
40000c28:	10 80 00 20 	b  40000ca8 <end_regular_divide>
40000c2c:	94 02 bf fd 	add  %o2, -3, %o2

40000c30 <L3.15>:
40000c30:	96 82 c0 0d 	addcc  %o3, %o5, %o3
40000c34:	06 80 00 05 	bl  40000c48 <L4.13>
40000c38:	9b 33 60 01 	srl  %o5, 1, %o5
40000c3c:	96 a2 c0 0d 	subcc  %o3, %o5, %o3
40000c40:	10 80 00 1a 	b  40000ca8 <end_regular_divide>
40000c44:	94 02 bf fb 	add  %o2, -5, %o2

40000c48 <L4.13>:
40000c48:	96 82 c0 0d 	addcc  %o3, %o5, %o3
40000c4c:	10 80 00 17 	b  40000ca8 <end_regular_divide>
40000c50:	94 02 bf f9 	add  %o2, -7, %o2

40000c54 <L2.15>:
40000c54:	96 82 c0 0d 	addcc  %o3, %o5, %o3
40000c58:	06 80 00 0b 	bl  40000c84 <L3.13>
40000c5c:	9b 33 60 01 	srl  %o5, 1, %o5
40000c60:	96 a2 c0 0d 	subcc  %o3, %o5, %o3
40000c64:	06 80 00 05 	bl  40000c78 <L4.11>
40000c68:	9b 33 60 01 	srl  %o5, 1, %o5
40000c6c:	96 a2 c0 0d 	subcc  %o3, %o5, %o3
40000c70:	10 80 00 0e 	b  40000ca8 <end_regular_divide>
40000c74:	94 02 bf f7 	add  %o2, -9, %o2

40000c78 <L4.11>:
40000c78:	96 82 c0 0d 	addcc  %o3, %o5, %o3
40000c7c:	10 80 00 0b 	b  40000ca8 <end_regular_divide>
40000c80:	94 02 bf f5 	add  %o2, -11, %o2

40000c84 <L3.13>:
40000c84:	96 82 c0 0d 	addcc  %o3, %o5, %o3
40000c88:	06 80 00 05 	bl  40000c9c <L4.9>
40000c8c:	9b 33 60 01 	srl  %o5, 1, %o5
40000c90:	96 a2 c0 0d 	subcc  %o3, %o5, %o3
40000c94:	10 80 00 05 	b  40000ca8 <end_regular_divide>
40000c98:	94 02 bf f3 	add  %o2, -13, %o2

40000c9c <L4.9>:
40000c9c:	96 82 c0 0d 	addcc  %o3, %o5, %o3
40000ca0:	10 80 00 02 	b  40000ca8 <end_regular_divide>
40000ca4:	94 02 bf f1 	add  %o2, -15, %o2

40000ca8 <end_regular_divide>:
40000ca8:	98 a3 20 01 	deccc  %o4
40000cac:	16 bf ff a2 	bge  40000b34 <divloop>
40000cb0:	80 92 c0 00 	tst  %o3
40000cb4:	26 80 00 02 	bl,a   40000cbc <got_result>
40000cb8:	94 22 a0 01 	dec  %o2

40000cbc <got_result>:
40000cbc:	80 90 c0 00 	tst  %g3
40000cc0:	26 80 00 02 	bl,a   40000cc8 <got_result+0xc>
40000cc4:	94 20 00 0a 	neg  %o2
40000cc8:	81 c3 e0 08 	retl 
40000ccc:	90 10 00 0a 	mov  %o2, %o0

40000cd0 <srand>:
40000cd0:	03 10 00 08 	sethi  %hi(0x40002000), %g1
40000cd4:	c2 00 60 80 	ld  [ %g1 + 0x80 ], %g1	! 40002080 <_impure_ptr>
40000cd8:	d0 20 60 ac 	st  %o0, [ %g1 + 0xac ]
40000cdc:	81 c3 e0 08 	retl 
40000ce0:	c0 20 60 a8 	clr  [ %g1 + 0xa8 ]

40000ce4 <rand>:
40000ce4:	9d e3 bf a0 	save  %sp, -96, %sp
40000ce8:	03 10 00 08 	sethi  %hi(0x40002000), %g1
40000cec:	e0 00 60 80 	ld  [ %g1 + 0x80 ], %l0	! 40002080 <_impure_ptr>
40000cf0:	d0 1c 20 a8 	ldd  [ %l0 + 0xa8 ], %o0
40000cf4:	15 16 14 7d 	sethi  %hi(0x5851f400), %o2
40000cf8:	17 13 25 5f 	sethi  %hi(0x4c957c00), %o3
40000cfc:	94 12 a0 2d 	or  %o2, 0x2d, %o2
40000d00:	40 00 00 09 	call  40000d24 <__muldi3>
40000d04:	96 12 e3 2d 	or  %o3, 0x32d, %o3
40000d08:	86 82 60 01 	addcc  %o1, 1, %g3
40000d0c:	84 42 20 00 	addx  %o0, 0, %g2
40000d10:	31 20 00 00 	sethi  %hi(0x80000000), %i0
40000d14:	b0 28 80 18 	andn  %g2, %i0, %i0
40000d18:	c4 3c 20 a8 	std  %g2, [ %l0 + 0xa8 ]
40000d1c:	81 c7 e0 08 	ret 
40000d20:	81 e8 00 00 	restore 

40000d24 <__muldi3>:
40000d24:	9d e3 bf a0 	save  %sp, -96, %sp
40000d28:	81 80 00 19 	wr  %g0, %i1, %y
40000d2c:	9b 3e e0 1f 	sra  %i3, 0x1f, %o5
40000d30:	9a 0e 40 0d 	and  %i1, %o5, %o5
40000d34:	82 88 20 00 	andcc  %g0, 0, %g1
40000d38:	83 20 40 1b 	mulscc  %g1, %i3, %g1
40000d3c:	83 20 40 1b 	mulscc  %g1, %i3, %g1
40000d40:	83 20 40 1b 	mulscc  %g1, %i3, %g1
40000d44:	83 20 40 1b 	mulscc  %g1, %i3, %g1
40000d48:	83 20 40 1b 	mulscc  %g1, %i3, %g1
40000d4c:	83 20 40 1b 	mulscc  %g1, %i3, %g1
40000d50:	83 20 40 1b 	mulscc  %g1, %i3, %g1
40000d54:	83 20 40 1b 	mulscc  %g1, %i3, %g1
40000d58:	83 20 40 1b 	mulscc  %g1, %i3, %g1
40000d5c:	83 20 40 1b 	mulscc  %g1, %i3, %g1
40000d60:	83 20 40 1b 	mulscc  %g1, %i3, %g1
40000d64:	83 20 40 1b 	mulscc  %g1, %i3, %g1
40000d68:	83 20 40 1b 	mulscc  %g1, %i3, %g1
40000d6c:	83 20 40 1b 	mulscc  %g1, %i3, %g1
40000d70:	83 20 40 1b 	mulscc  %g1, %i3, %g1
40000d74:	83 20 40 1b 	mulscc  %g1, %i3, %g1
40000d78:	83 20 40 1b 	mulscc  %g1, %i3, %g1
40000d7c:	83 20 40 1b 	mulscc  %g1, %i3, %g1
40000d80:	83 20 40 1b 	mulscc  %g1, %i3, %g1
40000d84:	83 20 40 1b 	mulscc  %g1, %i3, %g1
40000d88:	83 20 40 1b 	mulscc  %g1, %i3, %g1
40000d8c:	83 20 40 1b 	mulscc  %g1, %i3, %g1
40000d90:	83 20 40 1b 	mulscc  %g1, %i3, %g1
40000d94:	83 20 40 1b 	mulscc  %g1, %i3, %g1
40000d98:	83 20 40 1b 	mulscc  %g1, %i3, %g1
40000d9c:	83 20 40 1b 	mulscc  %g1, %i3, %g1
40000da0:	83 20 40 1b 	mulscc  %g1, %i3, %g1
40000da4:	83 20 40 1b 	mulscc  %g1, %i3, %g1
40000da8:	83 20 40 1b 	mulscc  %g1, %i3, %g1
40000dac:	83 20 40 1b 	mulscc  %g1, %i3, %g1
40000db0:	83 20 40 1b 	mulscc  %g1, %i3, %g1
40000db4:	83 20 40 1b 	mulscc  %g1, %i3, %g1
40000db8:	83 20 60 00 	mulscc  %g1, 0, %g1
40000dbc:	a0 00 40 0d 	add  %g1, %o5, %l0
40000dc0:	85 40 00 00 	rd  %y, %g2
40000dc4:	92 10 00 1a 	mov  %i2, %o1
40000dc8:	90 10 00 19 	mov  %i1, %o0
40000dcc:	40 00 00 09 	call  40000df0 <.umul>
40000dd0:	b2 10 00 02 	mov  %g2, %i1
40000dd4:	92 10 00 18 	mov  %i0, %o1
40000dd8:	a2 10 00 08 	mov  %o0, %l1
40000ddc:	40 00 00 05 	call  40000df0 <.umul>
40000de0:	90 10 00 1b 	mov  %i3, %o0
40000de4:	a2 04 40 08 	add  %l1, %o0, %l1
40000de8:	81 c7 e0 08 	ret 
40000dec:	91 ec 40 10 	restore  %l1, %l0, %o0

40000df0 <.umul>:
40000df0:	98 12 00 09 	or  %o0, %o1, %o4
40000df4:	81 82 00 00 	mov  %o0, %y
40000df8:	9a ab 2f ff 	andncc  %o4, 0xfff, %o5
40000dfc:	02 80 00 25 	be  40000e90 <mul_shortway>
40000e00:	98 88 00 00 	andcc  %g0, %g0, %o4
40000e04:	99 23 00 09 	mulscc  %o4, %o1, %o4
40000e08:	99 23 00 09 	mulscc  %o4, %o1, %o4
40000e0c:	99 23 00 09 	mulscc  %o4, %o1, %o4
40000e10:	99 23 00 09 	mulscc  %o4, %o1, %o4
40000e14:	99 23 00 09 	mulscc  %o4, %o1, %o4
40000e18:	99 23 00 09 	mulscc  %o4, %o1, %o4
40000e1c:	99 23 00 09 	mulscc  %o4, %o1, %o4
40000e20:	99 23 00 09 	mulscc  %o4, %o1, %o4
40000e24:	99 23 00 09 	mulscc  %o4, %o1, %o4
40000e28:	99 23 00 09 	mulscc  %o4, %o1, %o4
40000e2c:	99 23 00 09 	mulscc  %o4, %o1, %o4
40000e30:	99 23 00 09 	mulscc  %o4, %o1, %o4
40000e34:	99 23 00 09 	mulscc  %o4, %o1, %o4
40000e38:	99 23 00 09 	mulscc  %o4, %o1, %o4
40000e3c:	99 23 00 09 	mulscc  %o4, %o1, %o4
40000e40:	99 23 00 09 	mulscc  %o4, %o1, %o4
40000e44:	99 23 00 09 	mulscc  %o4, %o1, %o4
40000e48:	99 23 00 09 	mulscc  %o4, %o1, %o4
40000e4c:	99 23 00 09 	mulscc  %o4, %o1, %o4
40000e50:	99 23 00 09 	mulscc  %o4, %o1, %o4
40000e54:	99 23 00 09 	mulscc  %o4, %o1, %o4
40000e58:	99 23 00 09 	mulscc  %o4, %o1, %o4
40000e5c:	99 23 00 09 	mulscc  %o4, %o1, %o4
40000e60:	99 23 00 09 	mulscc  %o4, %o1, %o4
40000e64:	99 23 00 09 	mulscc  %o4, %o1, %o4
40000e68:	99 23 00 09 	mulscc  %o4, %o1, %o4
40000e6c:	99 23 00 09 	mulscc  %o4, %o1, %o4
40000e70:	99 23 00 09 	mulscc  %o4, %o1, %o4
40000e74:	99 23 00 09 	mulscc  %o4, %o1, %o4
40000e78:	99 23 00 09 	mulscc  %o4, %o1, %o4
40000e7c:	99 23 00 09 	mulscc  %o4, %o1, %o4
40000e80:	99 23 00 09 	mulscc  %o4, %o1, %o4
40000e84:	99 23 00 00 	mulscc  %o4, %g0, %o4
40000e88:	81 c3 e0 08 	retl 
40000e8c:	91 40 00 00 	rd  %y, %o0

40000e90 <mul_shortway>:
40000e90:	99 23 00 09 	mulscc  %o4, %o1, %o4
40000e94:	99 23 00 09 	mulscc  %o4, %o1, %o4
40000e98:	99 23 00 09 	mulscc  %o4, %o1, %o4
40000e9c:	99 23 00 09 	mulscc  %o4, %o1, %o4
40000ea0:	99 23 00 09 	mulscc  %o4, %o1, %o4
40000ea4:	99 23 00 09 	mulscc  %o4, %o1, %o4
40000ea8:	99 23 00 09 	mulscc  %o4, %o1, %o4
40000eac:	99 23 00 09 	mulscc  %o4, %o1, %o4
40000eb0:	99 23 00 09 	mulscc  %o4, %o1, %o4
40000eb4:	99 23 00 09 	mulscc  %o4, %o1, %o4
40000eb8:	99 23 00 09 	mulscc  %o4, %o1, %o4
40000ebc:	99 23 00 09 	mulscc  %o4, %o1, %o4
40000ec0:	99 23 00 00 	mulscc  %o4, %g0, %o4
40000ec4:	9b 40 00 00 	rd  %y, %o5
40000ec8:	99 2b 20 0c 	sll  %o4, 0xc, %o4
40000ecc:	9b 33 60 14 	srl  %o5, 0x14, %o5
40000ed0:	81 c3 e0 08 	retl 
40000ed4:	90 13 40 0c 	or  %o5, %o4, %o0

40000ed8 <bdinit1>:
40000ed8:	81 c3 e0 08 	retl 
40000edc:	01 00 00 00 	nop 

40000ee0 <bdinit2>:
40000ee0:	81 c3 e0 08 	retl 
40000ee4:	01 00 00 00 	nop 

40000ee8 <prelibchook>:
40000ee8:	81 c3 e0 08 	retl 
40000eec:	01 00 00 00 	nop 

40000ef0 <_exit>:
40000ef0:	82 10 20 01 	mov  1, %g1	! 1 <_trap_table-0x3fffffff>
40000ef4:	91 d0 20 00 	ta  0
40000ef8:	81 c3 e0 08 	retl 
40000efc:	01 00 00 00 	nop 

40000f00 <_start_svt_real>:
40000f00:	01 00 00 00 	nop 

40000f04 <_start_svt_weak>:
40000f04:	a7 58 00 00 	rd  %tbr, %l3
40000f08:	a1 48 00 00 	rd  %psr, %l0
40000f0c:	a6 0c ef f0 	and  %l3, 0xff0, %l3
40000f10:	a7 34 e0 04 	srl  %l3, 4, %l3
40000f14:	2b 10 00 07 	sethi  %hi(0x40001c00), %l5
40000f18:	aa 15 62 f0 	or  %l5, 0x2f0, %l5	! 40001ef0 <trap_table>
40000f1c:	ac 10 00 13 	mov  %l3, %l6
40000f20:	e8 05 40 00 	ld  [ %l5 ], %l4
40000f24:	80 a5 00 16 	cmp  %l4, %l6
40000f28:	34 80 00 07 	bg,a   40000f44 <_start_svt_weak+0x40>
40000f2c:	aa 05 60 0c 	add  %l5, 0xc, %l5
40000f30:	e6 05 60 04 	ld  [ %l5 + 4 ], %l3
40000f34:	80 a4 c0 16 	cmp  %l3, %l6
40000f38:	36 80 00 13 	bge,a   40000f84 <_start_svt_weak+0x80>
40000f3c:	e6 05 60 08 	ld  [ %l5 + 8 ], %l3
40000f40:	aa 05 60 0c 	add  %l5, 0xc, %l5
40000f44:	e6 05 40 00 	ld  [ %l5 ], %l3
40000f48:	a8 94 e0 00 	orcc  %l3, 0, %l4
40000f4c:	12 bf ff f7 	bne  40000f28 <_start_svt_weak+0x24>
40000f50:	80 a5 00 16 	cmp  %l4, %l6
40000f54:	e6 05 60 04 	ld  [ %l5 + 4 ], %l3
40000f58:	80 a4 e0 00 	cmp  %l3, 0
40000f5c:	12 bf ff f3 	bne  40000f28 <_start_svt_weak+0x24>
40000f60:	80 a5 00 16 	cmp  %l4, %l6
40000f64:	e6 05 60 08 	ld  [ %l5 + 8 ], %l3
40000f68:	80 a4 e0 00 	cmp  %l3, 0
40000f6c:	12 bf ff ef 	bne  40000f28 <_start_svt_weak+0x24>
40000f70:	80 a5 00 16 	cmp  %l4, %l6
40000f74:	91 d0 20 00 	ta  0
40000f78:	01 00 00 00 	nop 
40000f7c:	01 00 00 00 	nop 
40000f80:	01 00 00 00 	nop 
40000f84:	81 c4 c0 00 	jmp  %l3
40000f88:	01 00 00 00 	nop 

40000f8c <_hardreset_svt_real>:
40000f8c:	01 00 00 00 	nop 

40000f90 <_hardreset_svt>:
40000f90:	a7 48 00 00 	rd  %psr, %l3
40000f94:	8b 34 e0 18 	srl  %l3, 0x18, %g5
40000f98:	8a 09 60 03 	and  %g5, 3, %g5
40000f9c:	80 a1 60 03 	cmp  %g5, 3
40000fa0:	12 80 00 11 	bne  40000fe4 <_hardreset_svt+0x54>
40000fa4:	01 00 00 00 	nop 
40000fa8:	8b 44 40 00 	rd  %asr17, %g5
40000fac:	03 00 00 08 	sethi  %hi(0x2000), %g1
40000fb0:	8a 11 40 01 	or  %g5, %g1, %g5
40000fb4:	a3 81 40 00 	mov  %g5, %asr17
40000fb8:	01 00 00 00 	nop 
40000fbc:	01 00 00 00 	nop 
40000fc0:	01 00 00 00 	nop 
40000fc4:	8b 44 40 00 	rd  %asr17, %g5
40000fc8:	80 89 40 01 	btst  %g5, %g1
40000fcc:	02 80 00 06 	be  40000fe4 <_hardreset_svt+0x54>
40000fd0:	01 00 00 00 	nop 
40000fd4:	27 10 00 05 	sethi  %hi(0x40001400), %l3
40000fd8:	a6 14 e3 00 	or  %l3, 0x300, %l3	! 40001700 <_hardreset>
40000fdc:	81 c4 c0 00 	jmp  %l3
40000fe0:	01 00 00 00 	nop 
40000fe4:	91 d0 20 00 	ta  0
40000fe8:	01 00 00 00 	nop 

40000fec <_call_initcalls>:
40000fec:	9d e3 bf a0 	save  %sp, -96, %sp
40000ff0:	21 10 00 07 	sethi  %hi(0x40001c00), %l0
40000ff4:	23 10 00 07 	sethi  %hi(0x40001c00), %l1
40000ff8:	a0 14 21 e0 	or  %l0, 0x1e0, %l0
40000ffc:	a2 14 61 e0 	or  %l1, 0x1e0, %l1
40001000:	80 a4 00 11 	cmp  %l0, %l1
40001004:	1a 80 00 0b 	bcc  40001030 <_call_initcalls+0x44>
40001008:	01 00 00 00 	nop 
4000100c:	d0 04 00 00 	ld  [ %l0 ], %o0
40001010:	80 a2 20 00 	cmp  %o0, 0
40001014:	02 80 00 04 	be  40001024 <_call_initcalls+0x38>
40001018:	a0 04 20 04 	add  %l0, 4, %l0
4000101c:	9f c2 00 00 	call  %o0
40001020:	01 00 00 00 	nop 
40001024:	80 a4 00 11 	cmp  %l0, %l1
40001028:	2a bf ff fa 	bcs,a   40001010 <_call_initcalls+0x24>
4000102c:	d0 04 00 00 	ld  [ %l0 ], %o0
40001030:	81 c7 e0 08 	ret 
40001034:	81 e8 00 00 	restore 

40001038 <__window_overflow_rettseq>:
40001038:	a7 50 00 00 	rd  %wim, %l3
4000103c:	ae 10 00 01 	mov  %g1, %l7
40001040:	83 34 e0 01 	srl  %l3, 1, %g1

40001044 <__window_overflow_rettseq_ret>:
40001044:	29 10 00 09 	sethi  %hi(0x40002400), %l4
40001048:	e8 05 22 14 	ld  [ %l4 + 0x214 ], %l4	! 40002614 <_nwindows_min1>
4000104c:	a9 2c c0 14 	sll  %l3, %l4, %l4
40001050:	82 15 00 01 	or  %l4, %g1, %g1
40001054:	81 e0 00 00 	save 
40001058:	81 90 40 00 	mov  %g1, %wim
4000105c:	01 00 00 00 	nop 
40001060:	01 00 00 00 	nop 
40001064:	01 00 00 00 	nop 
40001068:	e0 3b a0 00 	std  %l0, [ %sp ]
4000106c:	e4 3b a0 08 	std  %l2, [ %sp + 8 ]
40001070:	e8 3b a0 10 	std  %l4, [ %sp + 0x10 ]
40001074:	ec 3b a0 18 	std  %l6, [ %sp + 0x18 ]
40001078:	f0 3b a0 20 	std  %i0, [ %sp + 0x20 ]
4000107c:	f4 3b a0 28 	std  %i2, [ %sp + 0x28 ]
40001080:	f8 3b a0 30 	std  %i4, [ %sp + 0x30 ]
40001084:	fc 3b a0 38 	std  %fp, [ %sp + 0x38 ]
40001088:	81 e8 00 00 	restore 
4000108c:	82 10 00 17 	mov  %l7, %g1
40001090:	81 c4 40 00 	jmp  %l1
40001094:	81 cc 80 00 	rett  %l2
40001098:	01 00 00 00 	nop 

4000109c <__window_overflow_slow1>:
4000109c:	01 00 00 00 	nop 
400010a0:	01 00 00 00 	nop 

400010a4 <_window_underflow>:
400010a4:	a7 50 00 00 	rd  %wim, %l3
400010a8:	a9 2c e0 01 	sll  %l3, 1, %l4
400010ac:	2b 10 00 09 	sethi  %hi(0x40002400), %l5
400010b0:	ea 05 62 14 	ld  [ %l5 + 0x214 ], %l5	! 40002614 <_nwindows_min1>
400010b4:	ab 34 c0 15 	srl  %l3, %l5, %l5
400010b8:	aa 15 40 14 	or  %l5, %l4, %l5
400010bc:	81 95 40 00 	mov  %l5, %wim
400010c0:	01 00 00 00 	nop 
400010c4:	01 00 00 00 	nop 
400010c8:	01 00 00 00 	nop 
400010cc:	81 e8 00 00 	restore 
400010d0:	81 e8 00 00 	restore 
400010d4:	e0 1b a0 00 	ldd  [ %sp ], %l0
400010d8:	e4 1b a0 08 	ldd  [ %sp + 8 ], %l2
400010dc:	e8 1b a0 10 	ldd  [ %sp + 0x10 ], %l4
400010e0:	ec 1b a0 18 	ldd  [ %sp + 0x18 ], %l6
400010e4:	f0 1b a0 20 	ldd  [ %sp + 0x20 ], %i0
400010e8:	f4 1b a0 28 	ldd  [ %sp + 0x28 ], %i2
400010ec:	f8 1b a0 30 	ldd  [ %sp + 0x30 ], %i4
400010f0:	fc 1b a0 38 	ldd  [ %sp + 0x38 ], %fp
400010f4:	81 e0 00 00 	save 
400010f8:	81 e0 00 00 	save 
400010fc:	81 c4 40 00 	jmp  %l1
40001100:	81 cc 80 00 	rett  %l2

40001104 <_flush_windows_svt>:
40001104:	a7 50 00 00 	rd  %wim, %l3

40001108 <_flush_windows>:
40001108:	29 10 00 06 	sethi  %hi(0x40001800), %l4
4000110c:	ad c5 20 3c 	jmpl  %l4 + 0x3c, %l6	! 4000183c <leonbare_trapsetup>
40001110:	01 00 00 00 	nop 
40001114:	27 10 00 09 	sethi  %hi(0x40002400), %l3
40001118:	a6 14 e1 f4 	or  %l3, 0x1f4, %l3	! 400025f4 <_lb_issideflush>
4000111c:	e0 24 c0 00 	st  %l0, [ %l3 ]
40001120:	81 8c 20 20 	wr  %l0, 0x20, %psr
40001124:	01 00 00 00 	nop 
40001128:	01 00 00 00 	nop 
4000112c:	01 00 00 00 	nop 
40001130:	9d e3 bf a0 	save  %sp, -96, %sp
40001134:	9d e3 bf a0 	save  %sp, -96, %sp
40001138:	9d e3 bf a0 	save  %sp, -96, %sp
4000113c:	9d e3 bf a0 	save  %sp, -96, %sp
40001140:	9d e3 bf a0 	save  %sp, -96, %sp
40001144:	9d e3 bf a0 	save  %sp, -96, %sp
40001148:	9d e3 bf a0 	save  %sp, -96, %sp
4000114c:	81 e8 00 00 	restore 
40001150:	81 e8 00 00 	restore 
40001154:	81 e8 00 00 	restore 
40001158:	81 e8 00 00 	restore 
4000115c:	81 e8 00 00 	restore 
40001160:	81 e8 00 00 	restore 
40001164:	81 e8 00 00 	restore 
40001168:	27 10 00 09 	sethi  %hi(0x40002400), %l3
4000116c:	a6 14 e1 f4 	or  %l3, 0x1f4, %l3	! 400025f4 <_lb_issideflush>
40001170:	c0 24 c0 00 	clr  [ %l3 ]
40001174:	e2 03 a0 68 	ld  [ %sp + 0x68 ], %l1
40001178:	a4 04 60 04 	add  %l1, 4, %l2
4000117c:	e2 23 a0 64 	st  %l1, [ %sp + 0x64 ]
40001180:	e4 23 a0 68 	st  %l2, [ %sp + 0x68 ]
40001184:	10 80 01 d4 	b  400018d4 <leonbare_trapreturn>
40001188:	ac 10 00 00 	mov  %g0, %l6

4000118c <_irqcall_flush_windows>:
4000118c:	29 10 00 09 	sethi  %hi(0x40002400), %l4
40001190:	a8 15 21 d8 	or  %l4, 0x1d8, %l4	! 400025d8 <_lb_spillglobals>
40001194:	c2 25 20 00 	st  %g1, [ %l4 ]
40001198:	c8 25 20 04 	st  %g4, [ %l4 + 4 ]
4000119c:	e0 25 20 10 	st  %l0, [ %l4 + 0x10 ]
400011a0:	e2 25 20 14 	st  %l1, [ %l4 + 0x14 ]
400011a4:	e4 25 20 18 	st  %l2, [ %l4 + 0x18 ]
400011a8:	e8 25 20 1c 	st  %l4, [ %l4 + 0x1c ]
400011ac:	81 e8 00 00 	restore 
400011b0:	83 48 00 00 	rd  %psr, %g1
400011b4:	82 10 6f 00 	or  %g1, 0xf00, %g1
400011b8:	81 88 60 20 	wr  %g1, 0x20, %psr
400011bc:	01 00 00 00 	nop 
400011c0:	01 00 00 00 	nop 
400011c4:	01 00 00 00 	nop 
400011c8:	09 10 00 09 	sethi  %hi(0x40002400), %g4
400011cc:	c8 01 22 14 	ld  [ %g4 + 0x214 ], %g4	! 40002614 <_nwindows_min1>
400011d0:	81 e0 00 00 	save 
400011d4:	88 21 20 01 	dec  %g4
400011d8:	80 a9 20 ff 	andncc  %g4, 0xff, %g0
400011dc:	02 80 00 03 	be  400011e8 <.lab1>
400011e0:	01 00 00 00 	nop 
400011e4:	01 00 00 00 	nop 

400011e8 <.lab1>:
400011e8:	80 a1 00 00 	cmp  %g4, %g0
400011ec:	12 bf ff f9 	bne  400011d0 <_irqcall_flush_windows+0x44>
400011f0:	01 00 00 00 	nop 
400011f4:	09 10 00 09 	sethi  %hi(0x40002400), %g4
400011f8:	c8 01 22 14 	ld  [ %g4 + 0x214 ], %g4	! 40002614 <_nwindows_min1>
400011fc:	81 e8 00 00 	restore 
40001200:	80 a9 20 ff 	andncc  %g4, 0xff, %g0
40001204:	02 80 00 03 	be  40001210 <.lab2>
40001208:	01 00 00 00 	nop 
4000120c:	01 00 00 00 	nop 

40001210 <.lab2>:
40001210:	88 21 20 01 	dec  %g4
40001214:	80 a1 00 00 	cmp  %g4, %g0
40001218:	12 bf ff f9 	bne  400011fc <.lab1+0x14>
4000121c:	01 00 00 00 	nop 
40001220:	81 e0 00 00 	save 
40001224:	29 10 00 09 	sethi  %hi(0x40002400), %l4
40001228:	a8 15 21 d8 	or  %l4, 0x1d8, %l4	! 400025d8 <_lb_spillglobals>
4000122c:	c8 05 20 04 	ld  [ %l4 + 4 ], %g4
40001230:	c2 05 20 00 	ld  [ %l4 ], %g1
40001234:	e0 05 20 10 	ld  [ %l4 + 0x10 ], %l0
40001238:	e2 05 20 14 	ld  [ %l4 + 0x14 ], %l1
4000123c:	e4 05 20 18 	ld  [ %l4 + 0x18 ], %l2
40001240:	c0 25 20 1c 	clr  [ %l4 + 0x1c ]
40001244:	81 8c 20 00 	mov  %l0, %psr
40001248:	01 00 00 00 	nop 
4000124c:	01 00 00 00 	nop 
40001250:	01 00 00 00 	nop 
40001254:	81 c4 80 00 	jmp  %l2
40001258:	81 cc a0 04 	rett  %l2 + 4

4000125c <_irqcall_disableirq>:
4000125c:	a0 14 2f 00 	or  %l0, 0xf00, %l0
40001260:	81 8c 00 00 	mov  %l0, %psr
40001264:	01 00 00 00 	nop 
40001268:	01 00 00 00 	nop 
4000126c:	01 00 00 00 	nop 
40001270:	81 c4 80 00 	jmp  %l2
40001274:	81 cc a0 04 	rett  %l2 + 4

40001278 <_irqcall>:
40001278:	80 a6 60 02 	cmp  %i1, 2
4000127c:	12 80 00 05 	bne  40001290 <_irqcall+0x18>
40001280:	a8 14 2f 00 	or  %l0, 0xf00, %l4
40001284:	81 8d 00 00 	mov  %l4, %psr
40001288:	b0 14 20 20 	or  %l0, 0x20, %i0
4000128c:	30 80 00 1f 	b,a   40001308 <_irqcall+0x90>
40001290:	80 a6 60 03 	cmp  %i1, 3
40001294:	12 80 00 06 	bne  400012ac <_irqcall+0x34>
40001298:	a8 0e 2f 00 	and  %i0, 0xf00, %l4
4000129c:	aa 2c 2f 00 	andn  %l0, 0xf00, %l5
400012a0:	a8 15 40 14 	or  %l5, %l4, %l4
400012a4:	81 8d 00 00 	mov  %l4, %psr
400012a8:	30 80 00 18 	b,a   40001308 <_irqcall+0x90>
400012ac:	80 a6 60 04 	cmp  %i1, 4
400012b0:	12 80 00 08 	bne  400012d0 <_irqcall+0x58>
400012b4:	a9 48 00 00 	rd  %psr, %l4
400012b8:	a8 15 20 40 	or  %l4, 0x40, %l4
400012bc:	81 8d 00 00 	mov  %l4, %psr
400012c0:	01 00 00 00 	nop 
400012c4:	01 00 00 00 	nop 
400012c8:	01 00 00 00 	nop 
400012cc:	30 80 00 0f 	b,a   40001308 <_irqcall+0x90>
400012d0:	80 a6 60 05 	cmp  %i1, 5
400012d4:	12 80 00 08 	bne  400012f4 <_irqcall+0x7c>
400012d8:	a9 48 00 00 	rd  %psr, %l4
400012dc:	a8 2d 20 40 	andn  %l4, 0x40, %l4
400012e0:	81 8d 00 00 	mov  %l4, %psr
400012e4:	01 00 00 00 	nop 
400012e8:	01 00 00 00 	nop 
400012ec:	01 00 00 00 	nop 
400012f0:	30 80 00 06 	b,a   40001308 <_irqcall+0x90>
400012f4:	80 a6 60 06 	cmp  %i1, 6
400012f8:	12 80 00 03 	bne  40001304 <_irqcall+0x8c>
400012fc:	01 00 00 00 	nop 
40001300:	30 bf ff a3 	b,a   4000118c <_irqcall_flush_windows>
40001304:	91 d0 20 00 	ta  0
40001308:	81 c4 80 00 	jmp  %l2
4000130c:	81 cc a0 04 	rett  %l2 + 4

40001310 <leonbare_enable_traps>:
40001310:	92 10 20 03 	mov  3, %o1
40001314:	81 c3 e0 08 	retl 
40001318:	91 d0 20 02 	ta  2

4000131c <leonbare_disable_traps>:
4000131c:	92 10 20 02 	mov  2, %o1
40001320:	81 c3 e0 08 	retl 
40001324:	91 d0 20 02 	ta  2

40001328 <leonbare_flush_windows>:
40001328:	92 10 20 06 	mov  6, %o1
4000132c:	81 c3 e0 08 	retl 
40001330:	91 d0 20 02 	ta  2

40001334 <_leonbare_irq_entry_svt>:
40001334:	ae 25 a0 10 	sub  %l6, 0x10, %l7
40001338:	a7 50 00 00 	rd  %wim, %l3

4000133c <leonbare_irq_entry>:
4000133c:	2d 10 00 04 	sethi  %hi(0x40001000), %l6
40001340:	ac 15 a3 48 	or  %l6, 0x348, %l6	! 40001348 <leonbare_irq_entry+0xc>
40001344:	29 10 00 06 	sethi  %hi(0x40001800), %l4
40001348:	81 c5 21 e4 	jmp  %l4 + 0x1e4	! 400019e4 <leonbare_trapsetup_fast>
4000134c:	01 00 00 00 	nop 
40001350:	11 10 00 09 	sethi  %hi(0x40002400), %o0
40001354:	90 12 22 00 	or  %o0, 0x200, %o0	! 40002600 <nestcount>
40001358:	d2 02 00 00 	ld  [ %o0 ], %o1
4000135c:	92 02 60 01 	inc  %o1
40001360:	d2 22 00 00 	st  %o1, [ %o0 ]
40001364:	93 2d e0 08 	sll  %l7, 8, %o1
40001368:	90 2c 2f 00 	andn  %l0, 0xf00, %o0
4000136c:	92 12 00 09 	or  %o0, %o1, %o1
40001370:	11 10 00 09 	sethi  %hi(0x40002400), %o0
40001374:	90 12 21 f8 	or  %o0, 0x1f8, %o0	! 400025f8 <nestedirq>
40001378:	d0 02 00 00 	ld  [ %o0 ], %o0
4000137c:	80 a0 00 08 	cmp  %g0, %o0
40001380:	22 80 00 02 	be,a   40001388 <leonbare_irq_entry+0x4c>
40001384:	92 12 6f 00 	or  %o1, 0xf00, %o1
40001388:	81 8a 60 20 	wr  %o1, 0x20, %psr
4000138c:	01 00 00 00 	nop 
40001390:	01 00 00 00 	nop 
40001394:	01 00 00 00 	nop 
40001398:	90 10 00 17 	mov  %l7, %o0
4000139c:	40 00 00 37 	call  40001478 <handler_irq>
400013a0:	92 03 a0 60 	add  %sp, 0x60, %o1
400013a4:	92 14 2f 00 	or  %l0, 0xf00, %o1
400013a8:	81 8a 60 20 	wr  %o1, 0x20, %psr
400013ac:	01 00 00 00 	nop 
400013b0:	01 00 00 00 	nop 
400013b4:	01 00 00 00 	nop 
400013b8:	11 10 00 09 	sethi  %hi(0x40002400), %o0
400013bc:	90 12 22 00 	or  %o0, 0x200, %o0	! 40002600 <nestcount>
400013c0:	d2 02 00 00 	ld  [ %o0 ], %o1
400013c4:	92 22 60 01 	dec  %o1
400013c8:	d2 22 00 00 	st  %o1, [ %o0 ]
400013cc:	10 80 01 a5 	b  40001a60 <leonbare_trapreturn_fast>
400013d0:	ac 10 00 00 	mov  %g0, %l6

400013d4 <catch_interrupt>:
400013d4:	9d e3 bf a0 	save  %sp, -96, %sp
400013d8:	1b 10 00 09 	sethi  %hi(0x40002400), %o5
400013dc:	89 2e 60 02 	sll  %i1, 2, %g4
400013e0:	9a 13 62 50 	or  %o5, 0x250, %o5
400013e4:	80 a6 60 1f 	cmp  %i1, 0x1f
400013e8:	82 10 20 00 	clr  %g1
400013ec:	14 80 00 17 	bg  40001448 <catch_interrupt+0x74>
400013f0:	c6 03 40 04 	ld  [ %o5 + %g4 ], %g3
400013f4:	b3 2e 60 04 	sll  %i1, 4, %i1
400013f8:	19 10 00 09 	sethi  %hi(0x40002400), %o4
400013fc:	80 a0 e0 00 	cmp  %g3, 0
40001400:	98 13 22 d0 	or  %o4, 0x2d0, %o4
40001404:	02 80 00 0d 	be  40001438 <catch_interrupt+0x64>
40001408:	84 06 40 0c 	add  %i1, %o4, %g2
4000140c:	80 a0 c0 02 	cmp  %g3, %g2
40001410:	12 80 00 06 	bne  40001428 <catch_interrupt+0x54>
40001414:	82 10 00 03 	mov  %g3, %g1
40001418:	10 80 00 0e 	b  40001450 <catch_interrupt+0x7c>
4000141c:	c2 06 40 0c 	ld  [ %i1 + %o4 ], %g1
40001420:	22 80 00 0c 	be,a   40001450 <catch_interrupt+0x7c>
40001424:	c2 06 40 0c 	ld  [ %i1 + %o4 ], %g1
40001428:	c2 00 60 0c 	ld  [ %g1 + 0xc ], %g1
4000142c:	80 a0 60 00 	cmp  %g1, 0
40001430:	12 bf ff fc 	bne  40001420 <catch_interrupt+0x4c>
40001434:	80 a0 80 01 	cmp  %g2, %g1
40001438:	c4 23 40 04 	st  %g2, [ %o5 + %g4 ]
4000143c:	f0 26 40 0c 	st  %i0, [ %i1 + %o4 ]
40001440:	c6 20 a0 0c 	st  %g3, [ %g2 + 0xc ]
40001444:	82 10 20 00 	clr  %g1
40001448:	81 c7 e0 08 	ret 
4000144c:	91 e8 00 01 	restore  %g0, %g1, %o0
40001450:	f0 26 40 0c 	st  %i0, [ %i1 + %o4 ]
40001454:	81 c7 e0 08 	ret 
40001458:	91 e8 00 01 	restore  %g0, %g1, %o0

4000145c <chained_catch_interrupt>:
4000145c:	91 2a 20 02 	sll  %o0, 2, %o0
40001460:	03 10 00 09 	sethi  %hi(0x40002400), %g1
40001464:	82 10 62 50 	or  %g1, 0x250, %g1	! 40002650 <_irqtbl>
40001468:	c4 00 40 08 	ld  [ %g1 + %o0 ], %g2
4000146c:	c4 22 60 0c 	st  %g2, [ %o1 + 0xc ]
40001470:	81 c3 e0 08 	retl 
40001474:	d2 20 40 08 	st  %o1, [ %g1 + %o0 ]

40001478 <handler_irq>:
40001478:	9d e3 bf a0 	save  %sp, -96, %sp
4000147c:	05 10 00 09 	sethi  %hi(0x40002400), %g2
40001480:	82 10 a2 04 	or  %g2, 0x204, %g1	! 40002604 <LEON3_IrqCtrl_Regs>
40001484:	c2 00 60 04 	ld  [ %g1 + 4 ], %g1
40001488:	80 a0 40 18 	cmp  %g1, %i0
4000148c:	22 80 00 40 	be,a   4000158c <handler_irq+0x114>
40001490:	c4 00 a2 04 	ld  [ %g2 + 0x204 ], %g2
40001494:	80 a6 20 00 	cmp  %i0, 0
40001498:	22 80 00 02 	be,a   400014a0 <handler_irq+0x28>
4000149c:	b0 10 00 01 	mov  %g1, %i0
400014a0:	a3 2e 20 02 	sll  %i0, 2, %l1
400014a4:	03 10 00 09 	sethi  %hi(0x40002400), %g1
400014a8:	82 10 62 50 	or  %g1, 0x250, %g1	! 40002650 <_irqtbl>
400014ac:	e0 00 40 11 	ld  [ %g1 + %l1 ], %l0
400014b0:	80 a4 20 00 	cmp  %l0, 0
400014b4:	02 80 00 34 	be  40001584 <handler_irq+0x10c>
400014b8:	29 10 00 0a 	sethi  %hi(0x40002800), %l4
400014bc:	2d 10 00 0a 	sethi  %hi(0x40002800), %l6
400014c0:	2b 10 00 0a 	sethi  %hi(0x40002800), %l5
400014c4:	27 10 00 0a 	sethi  %hi(0x40002800), %l3
400014c8:	a8 15 20 d0 	or  %l4, 0xd0, %l4
400014cc:	ac 15 a1 54 	or  %l6, 0x154, %l6
400014d0:	aa 15 61 58 	or  %l5, 0x158, %l5
400014d4:	10 80 00 1d 	b  40001548 <handler_irq+0xd0>
400014d8:	a6 14 e0 d4 	or  %l3, 0xd4, %l3
400014dc:	a4 10 00 13 	mov  %l3, %l2
400014e0:	84 00 a0 01 	inc  %g2
400014e4:	c4 24 80 11 	st  %g2, [ %l2 + %l1 ]
400014e8:	c4 05 80 00 	ld  [ %l6 ], %g2
400014ec:	80 a0 a0 00 	cmp  %g2, 0
400014f0:	22 80 00 06 	be,a   40001508 <handler_irq+0x90>
400014f4:	d2 04 20 08 	ld  [ %l0 + 8 ], %o1
400014f8:	9f c0 80 00 	call  %g2
400014fc:	01 00 00 00 	nop 
40001500:	c2 04 00 00 	ld  [ %l0 ], %g1
40001504:	d2 04 20 08 	ld  [ %l0 + 8 ], %o1
40001508:	90 10 00 18 	mov  %i0, %o0
4000150c:	9f c0 40 00 	call  %g1
40001510:	94 10 00 19 	mov  %i1, %o2
40001514:	c2 05 40 00 	ld  [ %l5 ], %g1
40001518:	80 a0 60 00 	cmp  %g1, 0
4000151c:	22 80 00 05 	be,a   40001530 <handler_irq+0xb8>
40001520:	c2 04 80 11 	ld  [ %l2 + %l1 ], %g1
40001524:	9f c0 40 00 	call  %g1
40001528:	01 00 00 00 	nop 
4000152c:	c2 04 80 11 	ld  [ %l2 + %l1 ], %g1
40001530:	82 00 7f ff 	add  %g1, -1, %g1
40001534:	c2 24 80 11 	st  %g1, [ %l2 + %l1 ]
40001538:	e0 04 20 0c 	ld  [ %l0 + 0xc ], %l0
4000153c:	80 a4 20 00 	cmp  %l0, 0
40001540:	02 80 00 11 	be  40001584 <handler_irq+0x10c>
40001544:	01 00 00 00 	nop 
40001548:	c2 04 00 00 	ld  [ %l0 ], %g1
4000154c:	80 a0 60 00 	cmp  %g1, 0
40001550:	22 bf ff fb 	be,a   4000153c <handler_irq+0xc4>
40001554:	e0 04 20 0c 	ld  [ %l0 + 0xc ], %l0
40001558:	c4 05 00 00 	ld  [ %l4 ], %g2
4000155c:	80 a0 a0 00 	cmp  %g2, 0
40001560:	12 bf ff df 	bne  400014dc <handler_irq+0x64>
40001564:	c4 04 c0 11 	ld  [ %l3 + %l1 ], %g2
40001568:	80 a0 a0 00 	cmp  %g2, 0
4000156c:	02 bf ff dd 	be  400014e0 <handler_irq+0x68>
40001570:	a4 10 00 13 	mov  %l3, %l2
40001574:	e0 04 20 0c 	ld  [ %l0 + 0xc ], %l0
40001578:	80 a4 20 00 	cmp  %l0, 0
4000157c:	32 bf ff f4 	bne,a   4000154c <handler_irq+0xd4>
40001580:	c2 04 00 00 	ld  [ %l0 ], %g1
40001584:	81 c7 e0 08 	ret 
40001588:	81 e8 00 00 	restore 
4000158c:	f0 00 a0 c0 	ld  [ %g2 + 0xc0 ], %i0
40001590:	10 bf ff c1 	b  40001494 <handler_irq+0x1c>
40001594:	b0 0e 20 1f 	and  %i0, 0x1f, %i0

40001598 <traptable_genjmp>:
40001598:	83 2a 60 04 	sll  %o1, 4, %g1
4000159c:	86 00 60 04 	add  %g1, 4, %g3
400015a0:	92 00 60 08 	add  %g1, 8, %o1
400015a4:	84 02 00 01 	add  %o0, %g1, %g2
400015a8:	09 2b 84 08 	sethi  %hi(0xae102000), %g4
400015ac:	88 12 80 04 	or  %o2, %g4, %g4
400015b0:	c8 22 00 01 	st  %g4, [ %o0 + %g1 ]
400015b4:	89 32 e0 0a 	srl  %o3, 0xa, %g4
400015b8:	03 09 c0 00 	sethi  %hi(0x27000000), %g1
400015bc:	82 11 00 01 	or  %g4, %g1, %g1
400015c0:	c2 22 00 03 	st  %g1, [ %o0 + %g3 ]
400015c4:	96 0a e3 ff 	and  %o3, 0x3ff, %o3
400015c8:	03 20 71 38 	sethi  %hi(0x81c4e000), %g1
400015cc:	96 12 c0 01 	or  %o3, %g1, %o3
400015d0:	d6 22 00 09 	st  %o3, [ %o0 + %o1 ]
400015d4:	03 28 52 00 	sethi  %hi(0xa1480000), %g1
400015d8:	81 c3 e0 08 	retl 
400015dc:	c2 20 a0 0c 	st  %g1, [ %g2 + 0xc ]

400015e0 <sparc_leon23_get_tbr_base>:
400015e0:	91 58 00 00 	rd  %tbr, %o0
400015e4:	81 c3 e0 08 	retl 
400015e8:	90 0a 30 00 	and  %o0, -4096, %o0

400015ec <cpuinit>:
400015ec:	8c 10 00 0f 	mov  %o7, %g6
400015f0:	a7 48 00 00 	rd  %psr, %l3
400015f4:	8b 34 e0 18 	srl  %l3, 0x18, %g5
400015f8:	8a 09 60 0f 	and  %g5, 0xf, %g5
400015fc:	80 a1 60 03 	cmp  %g5, 3
40001600:	02 80 00 02 	be  40001608 <cpuinit+0x1c>
40001604:	10 80 00 39 	b  400016e8 <cpuinit+0xfc>
40001608:	90 10 20 01 	mov  1, %o0
4000160c:	92 10 20 06 	mov  6, %o1
40001610:	40 00 01 4a 	call  40001b38 <ahbslv_scan>
40001614:	01 00 00 00 	nop 
40001618:	80 a0 00 08 	cmp  %g0, %o0
4000161c:	02 80 00 33 	be  400016e8 <cpuinit+0xfc>
40001620:	01 00 00 00 	nop 
40001624:	c2 02 20 10 	ld  [ %o0 + 0x10 ], %g1
40001628:	11 3f fc 00 	sethi  %hi(0xfff00000), %o0
4000162c:	82 08 40 08 	and  %g1, %o0, %g1
40001630:	11 00 03 fc 	sethi  %hi(0xff000), %o0
40001634:	84 10 40 08 	or  %g1, %o0, %g2
40001638:	90 10 00 02 	mov  %g2, %o0
4000163c:	92 10 20 01 	mov  1, %o1
40001640:	94 10 20 0c 	mov  0xc, %o2
40001644:	40 00 01 53 	call  40001b90 <apbslv_scan>
40001648:	01 00 00 00 	nop 
4000164c:	80 a0 00 08 	cmp  %g0, %o0
40001650:	02 80 00 26 	be  400016e8 <cpuinit+0xfc>
40001654:	01 00 00 00 	nop 
40001658:	40 00 01 63 	call  40001be4 <iobar_getbase>
4000165c:	92 10 00 01 	mov  %g1, %o1
40001660:	0b 10 00 09 	sethi  %hi(0x40002400), %g5
40001664:	8a 11 62 0c 	or  %g5, 0x20c, %g5	! 4000260c <console>
40001668:	d2 21 40 00 	st  %o1, [ %g5 ]
4000166c:	90 10 00 02 	mov  %g2, %o0
40001670:	92 10 20 01 	mov  1, %o1
40001674:	94 10 20 11 	mov  0x11, %o2
40001678:	40 00 01 46 	call  40001b90 <apbslv_scan>
4000167c:	01 00 00 00 	nop 
40001680:	80 a0 00 08 	cmp  %g0, %o0
40001684:	02 80 00 19 	be  400016e8 <cpuinit+0xfc>
40001688:	01 00 00 00 	nop 
4000168c:	40 00 01 56 	call  40001be4 <iobar_getbase>
40001690:	92 10 00 01 	mov  %g1, %o1
40001694:	92 02 60 10 	add  %o1, 0x10, %o1
40001698:	0b 10 00 09 	sethi  %hi(0x40002400), %g5
4000169c:	8a 11 62 28 	or  %g5, 0x228, %g5	! 40002628 <rtc>
400016a0:	d2 21 40 00 	st  %o1, [ %g5 ]
400016a4:	90 10 00 02 	mov  %g2, %o0
400016a8:	92 10 20 01 	mov  1, %o1
400016ac:	94 10 20 0d 	mov  0xd, %o2
400016b0:	40 00 01 38 	call  40001b90 <apbslv_scan>
400016b4:	01 00 00 00 	nop 
400016b8:	80 a0 00 08 	cmp  %g0, %o0
400016bc:	02 80 00 0b 	be  400016e8 <cpuinit+0xfc>
400016c0:	01 00 00 00 	nop 
400016c4:	40 00 01 48 	call  40001be4 <iobar_getbase>
400016c8:	92 10 00 01 	mov  %g1, %o1
400016cc:	0b 10 00 09 	sethi  %hi(0x40002400), %g5
400016d0:	8a 11 62 04 	or  %g5, 0x204, %g5	! 40002604 <LEON3_IrqCtrl_Regs>
400016d4:	d2 21 40 00 	st  %o1, [ %g5 ]
400016d8:	d4 02 60 10 	ld  [ %o1 + 0x10 ], %o2
400016dc:	95 32 a0 10 	srl  %o2, 0x10, %o2
400016e0:	94 0a a0 0f 	and  %o2, 0xf, %o2
400016e4:	d4 21 60 04 	st  %o2, [ %g5 + 4 ]
400016e8:	9e 10 00 06 	mov  %g6, %o7
400016ec:	81 c3 e0 08 	retl 
400016f0:	01 00 00 00 	nop 
400016f4:	03 10 00 09 	sethi  %hi(0x40002400), %g1
400016f8:	82 10 62 20 	or  %g1, 0x220, %g1	! 40002620 <jiffies_64>

400016fc <_hardreset_real>:
400016fc:	01 00 00 00 	nop 

40001700 <_hardreset>:
40001700:	03 10 00 05 	sethi  %hi(0x40001400), %g1
40001704:	82 10 63 b4 	or  %g1, 0x3b4, %g1	! 400017b4 <_hardreset_custom_weak>
40001708:	9f c0 40 00 	call  %g1
4000170c:	01 00 00 00 	nop 
40001710:	03 10 00 00 	sethi  %hi(0x40000000), %g1
40001714:	82 10 60 00 	mov  %g1, %g1	! 40000000 <_trap_table>
40001718:	81 98 40 00 	mov  %g1, %tbr
4000171c:	03 10 00 06 	sethi  %hi(0x40001800), %g1
40001720:	82 10 60 1c 	or  %g1, 0x1c, %g1	! 4000181c <_hardreset_custom_svt_weak>
40001724:	9f c0 40 00 	call  %g1
40001728:	01 00 00 00 	nop 
4000172c:	03 10 00 05 	sethi  %hi(0x40001400), %g1
40001730:	82 10 63 a4 	or  %g1, 0x3a4, %g1	! 400017a4 <_cleanregs_libgloss>
40001734:	9f c0 40 00 	call  %g1
40001738:	01 00 00 00 	nop 
4000173c:	8b 44 40 00 	rd  %asr17, %g5
40001740:	8b 31 60 1c 	srl  %g5, 0x1c, %g5
40001744:	80 a1 40 00 	cmp  %g5, %g0
40001748:	12 80 00 06 	bne  40001760 <slavego>
4000174c:	01 00 00 00 	nop 

40001750 <callcpuinit>:
40001750:	7f ff ff a7 	call  400015ec <cpuinit>
40001754:	01 00 00 00 	nop 
40001758:	7f ff fa 93 	call  400001a4 <pnpinit>
4000175c:	01 00 00 00 	nop 

40001760 <slavego>:
40001760:	9c 23 a0 40 	sub  %sp, 0x40, %sp
40001764:	7f ff fa 2a 	call  4000000c <_start>
40001768:	01 00 00 00 	nop 
4000176c:	82 10 20 01 	mov  1, %g1	! 1 <_trap_table-0x3fffffff>
40001770:	91 d0 20 00 	ta  0
40001774:	01 00 00 00 	nop 

40001778 <_fpdis>:
40001778:	29 00 00 04 	sethi  %hi(0x1000), %l4
4000177c:	a6 8c 00 14 	andcc  %l0, %l4, %l3
40001780:	32 80 00 03 	bne,a   4000178c <_fpdis+0x14>
40001784:	a0 2c 00 14 	andn  %l0, %l4, %l0
40001788:	91 d0 20 00 	ta  0
4000178c:	81 8c 00 00 	mov  %l0, %psr
40001790:	01 00 00 00 	nop 
40001794:	01 00 00 00 	nop 
40001798:	01 00 00 00 	nop 
4000179c:	81 c4 80 00 	jmp  %l2
400017a0:	81 cc a0 04 	rett  %l2 + 4

400017a4 <_cleanregs_libgloss>:
400017a4:	81 c3 e0 08 	retl 
400017a8:	01 00 00 00 	nop 
400017ac:	81 c1 e0 08 	jmp  %g7 + 8
400017b0:	01 00 00 00 	nop 

400017b4 <_hardreset_custom_weak>:
400017b4:	a7 48 00 00 	rd  %psr, %l3
400017b8:	8b 34 e0 18 	srl  %l3, 0x18, %g5
400017bc:	8a 09 60 03 	and  %g5, 3, %g5
400017c0:	80 a1 60 03 	cmp  %g5, 3
400017c4:	12 80 00 08 	bne  400017e4 <_hardreset_custom_weak+0x30>
400017c8:	01 00 00 00 	nop 
400017cc:	21 10 00 09 	sethi  %hi(0x40002400), %l0
400017d0:	a0 14 22 1c 	or  %l0, 0x21c, %l0	! 4000261c <_leon_version>
400017d4:	a2 10 20 03 	mov  3, %l1
400017d8:	e2 24 00 00 	st  %l1, [ %l0 ]
400017dc:	8b 44 40 00 	rd  %asr17, %g5
400017e0:	10 80 00 01 	b  400017e4 <_hardreset_custom_weak+0x30>
400017e4:	8a 09 60 1f 	and  %g5, 0x1f, %g5
400017e8:	27 10 00 09 	sethi  %hi(0x40002400), %l3
400017ec:	a6 14 e2 14 	or  %l3, 0x214, %l3	! 40002614 <_nwindows_min1>
400017f0:	ca 24 c0 00 	st  %g5, [ %l3 ]
400017f4:	8a 01 60 01 	inc  %g5
400017f8:	27 10 00 09 	sethi  %hi(0x40002400), %l3
400017fc:	a6 14 e2 10 	or  %l3, 0x210, %l3	! 40002610 <_nwindows>
40001800:	ca 24 c0 00 	st  %g5, [ %l3 ]
40001804:	27 10 00 09 	sethi  %hi(0x40002400), %l3
40001808:	a6 14 e2 18 	or  %l3, 0x218, %l3	! 40002618 <_nwindows_min2>
4000180c:	8a 21 60 02 	sub  %g5, 2, %g5
40001810:	ca 24 c0 00 	st  %g5, [ %l3 ]
40001814:	81 c3 e0 08 	retl 
40001818:	01 00 00 00 	nop 

4000181c <_hardreset_custom_svt_weak>:
4000181c:	81 c3 e0 08 	retl 
40001820:	01 00 00 00 	nop 

40001824 <_srmmu_fault>:
40001824:	91 d0 20 00 	ta  0
40001828:	01 00 00 00 	nop 
4000182c:	01 00 00 00 	nop 
40001830:	01 00 00 00 	nop 
40001834:	81 c4 40 00 	jmp  %l1
40001838:	81 cc 80 00 	rett  %l2

4000183c <leonbare_trapsetup>:
4000183c:	aa 27 a0 b0 	sub  %fp, 0xb0, %l5
40001840:	e0 25 60 60 	st  %l0, [ %l5 + 0x60 ]
40001844:	e2 25 60 64 	st  %l1, [ %l5 + 0x64 ]
40001848:	e4 25 60 68 	st  %l2, [ %l5 + 0x68 ]
4000184c:	c2 25 60 74 	st  %g1, [ %l5 + 0x74 ]
40001850:	c4 3d 60 78 	std  %g2, [ %l5 + 0x78 ]
40001854:	c8 3d 60 80 	std  %g4, [ %l5 + 0x80 ]
40001858:	cc 3d 60 88 	std  %g6, [ %l5 + 0x88 ]
4000185c:	85 40 00 00 	rd  %y, %g2
40001860:	c4 25 60 6c 	st  %g2, [ %l5 + 0x6c ]
40001864:	f0 3d 60 90 	std  %i0, [ %l5 + 0x90 ]
40001868:	f4 3d 60 98 	std  %i2, [ %l5 + 0x98 ]
4000186c:	f8 3d 60 a0 	std  %i4, [ %l5 + 0xa0 ]
40001870:	fc 3d 60 a8 	std  %fp, [ %l5 + 0xa8 ]
40001874:	a8 10 20 01 	mov  1, %l4
40001878:	a9 2d 00 10 	sll  %l4, %l0, %l4
4000187c:	80 8d 00 13 	btst  %l4, %l3
40001880:	02 80 00 13 	be  400018cc <leonbare_trapsetup+0x90>
40001884:	01 00 00 00 	nop 
40001888:	85 34 e0 01 	srl  %l3, 1, %g2
4000188c:	07 10 00 09 	sethi  %hi(0x40002400), %g3
40001890:	c6 00 e2 14 	ld  [ %g3 + 0x214 ], %g3	! 40002614 <_nwindows_min1>
40001894:	a7 2c c0 03 	sll  %l3, %g3, %l3
40001898:	84 14 c0 02 	or  %l3, %g2, %g2
4000189c:	84 08 a0 ff 	and  %g2, 0xff, %g2
400018a0:	81 e0 00 00 	save 
400018a4:	81 90 a0 00 	mov  %g2, %wim
400018a8:	e0 3b a0 00 	std  %l0, [ %sp ]
400018ac:	e4 3b a0 08 	std  %l2, [ %sp + 8 ]
400018b0:	e8 3b a0 10 	std  %l4, [ %sp + 0x10 ]
400018b4:	ec 3b a0 18 	std  %l6, [ %sp + 0x18 ]
400018b8:	f0 3b a0 20 	std  %i0, [ %sp + 0x20 ]
400018bc:	f4 3b a0 28 	std  %i2, [ %sp + 0x28 ]
400018c0:	f8 3b a0 30 	std  %i4, [ %sp + 0x30 ]
400018c4:	fc 3b a0 38 	std  %fp, [ %sp + 0x38 ]
400018c8:	81 e8 00 00 	restore 
400018cc:	81 c5 a0 08 	jmp  %l6 + 8
400018d0:	9c 10 00 15 	mov  %l5, %sp

400018d4 <leonbare_trapreturn>:
400018d4:	05 10 00 0a 	sethi  %hi(0x40002800), %g2
400018d8:	84 10 a1 5c 	or  %g2, 0x15c, %g2	! 4000295c <schedule_callback>
400018dc:	c4 00 80 00 	ld  [ %g2 ], %g2
400018e0:	80 a0 80 00 	cmp  %g2, %g0
400018e4:	02 80 00 04 	be  400018f4 <leonbare_trapreturn+0x20>
400018e8:	01 00 00 00 	nop 
400018ec:	9f c0 80 00 	call  %g2
400018f0:	92 03 a0 60 	add  %sp, 0x60, %o1
400018f4:	81 8c 20 00 	mov  %l0, %psr
400018f8:	82 10 20 02 	mov  2, %g1
400018fc:	83 28 40 10 	sll  %g1, %l0, %g1
40001900:	05 10 00 09 	sethi  %hi(0x40002400), %g2
40001904:	c4 00 a2 10 	ld  [ %g2 + 0x210 ], %g2	! 40002610 <_nwindows>
40001908:	85 30 40 02 	srl  %g1, %g2, %g2
4000190c:	82 10 40 02 	or  %g1, %g2, %g1
40001910:	85 50 00 00 	rd  %wim, %g2
40001914:	80 88 80 01 	btst  %g2, %g1
40001918:	02 80 00 20 	be  40001998 <leonbare_trapreturn+0xc4>
4000191c:	83 28 a0 01 	sll  %g2, 1, %g1
40001920:	07 10 00 09 	sethi  %hi(0x40002400), %g3
40001924:	c6 00 e2 14 	ld  [ %g3 + 0x214 ], %g3	! 40002614 <_nwindows_min1>
40001928:	85 30 80 03 	srl  %g2, %g3, %g2
4000192c:	82 10 40 02 	or  %g1, %g2, %g1
40001930:	82 08 60 ff 	and  %g1, 0xff, %g1
40001934:	81 90 60 00 	mov  %g1, %wim
40001938:	c2 03 a0 6c 	ld  [ %sp + 0x6c ], %g1
4000193c:	81 80 60 00 	mov  %g1, %y
40001940:	f0 1b a0 90 	ldd  [ %sp + 0x90 ], %i0
40001944:	f4 1b a0 98 	ldd  [ %sp + 0x98 ], %i2
40001948:	f8 1b a0 a0 	ldd  [ %sp + 0xa0 ], %i4
4000194c:	fc 1b a0 a8 	ldd  [ %sp + 0xa8 ], %fp
40001950:	c2 03 a0 74 	ld  [ %sp + 0x74 ], %g1
40001954:	c4 1b a0 78 	ldd  [ %sp + 0x78 ], %g2
40001958:	c8 1b a0 80 	ldd  [ %sp + 0x80 ], %g4
4000195c:	cc 1b a0 88 	ldd  [ %sp + 0x88 ], %g6
40001960:	e0 03 a0 60 	ld  [ %sp + 0x60 ], %l0
40001964:	e2 03 a0 64 	ld  [ %sp + 0x64 ], %l1
40001968:	e4 03 a0 68 	ld  [ %sp + 0x68 ], %l2
4000196c:	81 e8 00 00 	restore 
40001970:	e0 1b a0 00 	ldd  [ %sp ], %l0
40001974:	e4 1b a0 08 	ldd  [ %sp + 8 ], %l2
40001978:	e8 1b a0 10 	ldd  [ %sp + 0x10 ], %l4
4000197c:	ec 1b a0 18 	ldd  [ %sp + 0x18 ], %l6
40001980:	f0 1b a0 20 	ldd  [ %sp + 0x20 ], %i0
40001984:	f4 1b a0 28 	ldd  [ %sp + 0x28 ], %i2
40001988:	f8 1b a0 30 	ldd  [ %sp + 0x30 ], %i4
4000198c:	fc 1b a0 38 	ldd  [ %sp + 0x38 ], %fp
40001990:	10 80 00 0f 	b  400019cc <leonbare_trapreturn+0xf8>
40001994:	81 e0 00 00 	save 
40001998:	c2 03 a0 6c 	ld  [ %sp + 0x6c ], %g1
4000199c:	81 80 60 00 	mov  %g1, %y
400019a0:	f0 1b a0 90 	ldd  [ %sp + 0x90 ], %i0
400019a4:	f4 1b a0 98 	ldd  [ %sp + 0x98 ], %i2
400019a8:	f8 1b a0 a0 	ldd  [ %sp + 0xa0 ], %i4
400019ac:	fc 1b a0 a8 	ldd  [ %sp + 0xa8 ], %fp
400019b0:	c2 03 a0 74 	ld  [ %sp + 0x74 ], %g1
400019b4:	c4 1b a0 78 	ldd  [ %sp + 0x78 ], %g2
400019b8:	c8 1b a0 80 	ldd  [ %sp + 0x80 ], %g4
400019bc:	cc 1b a0 88 	ldd  [ %sp + 0x88 ], %g6
400019c0:	e0 03 a0 60 	ld  [ %sp + 0x60 ], %l0
400019c4:	e2 03 a0 64 	ld  [ %sp + 0x64 ], %l1
400019c8:	e4 03 a0 68 	ld  [ %sp + 0x68 ], %l2
400019cc:	81 8c 20 00 	mov  %l0, %psr
400019d0:	01 00 00 00 	nop 
400019d4:	01 00 00 00 	nop 
400019d8:	01 00 00 00 	nop 
400019dc:	81 c4 40 00 	jmp  %l1
400019e0:	81 cc 80 00 	rett  %l2

400019e4 <leonbare_trapsetup_fast>:
400019e4:	aa 27 a0 b0 	sub  %fp, 0xb0, %l5
400019e8:	c2 25 60 74 	st  %g1, [ %l5 + 0x74 ]
400019ec:	c4 3d 60 78 	std  %g2, [ %l5 + 0x78 ]
400019f0:	c8 3d 60 80 	std  %g4, [ %l5 + 0x80 ]
400019f4:	cc 3d 60 88 	std  %g6, [ %l5 + 0x88 ]
400019f8:	85 40 00 00 	rd  %y, %g2
400019fc:	c4 25 60 6c 	st  %g2, [ %l5 + 0x6c ]
40001a00:	a8 10 20 01 	mov  1, %l4
40001a04:	a9 2d 00 10 	sll  %l4, %l0, %l4
40001a08:	80 8d 00 13 	btst  %l4, %l3
40001a0c:	02 80 00 13 	be  40001a58 <leonbare_trapsetup_fast+0x74>
40001a10:	01 00 00 00 	nop 
40001a14:	85 34 e0 01 	srl  %l3, 1, %g2
40001a18:	07 10 00 09 	sethi  %hi(0x40002400), %g3
40001a1c:	c6 00 e2 14 	ld  [ %g3 + 0x214 ], %g3	! 40002614 <_nwindows_min1>
40001a20:	a7 2c c0 03 	sll  %l3, %g3, %l3
40001a24:	84 14 c0 02 	or  %l3, %g2, %g2
40001a28:	84 08 a0 ff 	and  %g2, 0xff, %g2
40001a2c:	81 e0 00 00 	save 
40001a30:	81 90 a0 00 	mov  %g2, %wim
40001a34:	e0 3b a0 00 	std  %l0, [ %sp ]
40001a38:	e4 3b a0 08 	std  %l2, [ %sp + 8 ]
40001a3c:	e8 3b a0 10 	std  %l4, [ %sp + 0x10 ]
40001a40:	ec 3b a0 18 	std  %l6, [ %sp + 0x18 ]
40001a44:	f0 3b a0 20 	std  %i0, [ %sp + 0x20 ]
40001a48:	f4 3b a0 28 	std  %i2, [ %sp + 0x28 ]
40001a4c:	f8 3b a0 30 	std  %i4, [ %sp + 0x30 ]
40001a50:	fc 3b a0 38 	std  %fp, [ %sp + 0x38 ]
40001a54:	81 e8 00 00 	restore 
40001a58:	81 c5 a0 08 	jmp  %l6 + 8
40001a5c:	9c 10 00 15 	mov  %l5, %sp

40001a60 <leonbare_trapreturn_fast>:
40001a60:	05 10 00 0a 	sethi  %hi(0x40002800), %g2
40001a64:	84 10 a1 5c 	or  %g2, 0x15c, %g2	! 4000295c <schedule_callback>
40001a68:	c4 00 80 00 	ld  [ %g2 ], %g2
40001a6c:	80 a0 80 00 	cmp  %g2, %g0
40001a70:	02 80 00 04 	be  40001a80 <leonbare_trapreturn_fast+0x20>
40001a74:	01 00 00 00 	nop 
40001a78:	9f c0 80 00 	call  %g2
40001a7c:	92 03 a0 60 	add  %sp, 0x60, %o1
40001a80:	81 8c 20 00 	mov  %l0, %psr
40001a84:	82 10 20 02 	mov  2, %g1
40001a88:	83 28 40 10 	sll  %g1, %l0, %g1
40001a8c:	05 10 00 09 	sethi  %hi(0x40002400), %g2
40001a90:	c4 00 a2 10 	ld  [ %g2 + 0x210 ], %g2	! 40002610 <_nwindows>
40001a94:	85 30 40 02 	srl  %g1, %g2, %g2
40001a98:	82 10 40 02 	or  %g1, %g2, %g1
40001a9c:	85 50 00 00 	rd  %wim, %g2
40001aa0:	80 88 80 01 	btst  %g2, %g1
40001aa4:	02 80 00 19 	be  40001b08 <leonbare_trapreturn_fast+0xa8>
40001aa8:	83 28 a0 01 	sll  %g2, 1, %g1
40001aac:	07 10 00 09 	sethi  %hi(0x40002400), %g3
40001ab0:	c6 00 e2 14 	ld  [ %g3 + 0x214 ], %g3	! 40002614 <_nwindows_min1>
40001ab4:	85 30 80 03 	srl  %g2, %g3, %g2
40001ab8:	82 10 40 02 	or  %g1, %g2, %g1
40001abc:	82 08 60 ff 	and  %g1, 0xff, %g1
40001ac0:	81 90 60 00 	mov  %g1, %wim
40001ac4:	c2 03 a0 6c 	ld  [ %sp + 0x6c ], %g1
40001ac8:	81 80 60 00 	mov  %g1, %y
40001acc:	c2 03 a0 74 	ld  [ %sp + 0x74 ], %g1
40001ad0:	c4 1b a0 78 	ldd  [ %sp + 0x78 ], %g2
40001ad4:	c8 1b a0 80 	ldd  [ %sp + 0x80 ], %g4
40001ad8:	cc 1b a0 88 	ldd  [ %sp + 0x88 ], %g6
40001adc:	81 e8 00 00 	restore 
40001ae0:	e0 1b a0 00 	ldd  [ %sp ], %l0
40001ae4:	e4 1b a0 08 	ldd  [ %sp + 8 ], %l2
40001ae8:	e8 1b a0 10 	ldd  [ %sp + 0x10 ], %l4
40001aec:	ec 1b a0 18 	ldd  [ %sp + 0x18 ], %l6
40001af0:	f0 1b a0 20 	ldd  [ %sp + 0x20 ], %i0
40001af4:	f4 1b a0 28 	ldd  [ %sp + 0x28 ], %i2
40001af8:	f8 1b a0 30 	ldd  [ %sp + 0x30 ], %i4
40001afc:	fc 1b a0 38 	ldd  [ %sp + 0x38 ], %fp
40001b00:	10 80 00 08 	b  40001b20 <leonbare_trapreturn_fast+0xc0>
40001b04:	81 e0 00 00 	save 
40001b08:	c2 03 a0 6c 	ld  [ %sp + 0x6c ], %g1
40001b0c:	81 80 60 00 	mov  %g1, %y
40001b10:	c2 03 a0 74 	ld  [ %sp + 0x74 ], %g1
40001b14:	c4 1b a0 78 	ldd  [ %sp + 0x78 ], %g2
40001b18:	c8 1b a0 80 	ldd  [ %sp + 0x80 ], %g4
40001b1c:	cc 1b a0 88 	ldd  [ %sp + 0x88 ], %g6
40001b20:	81 8c 20 00 	mov  %l0, %psr
40001b24:	01 00 00 00 	nop 
40001b28:	01 00 00 00 	nop 
40001b2c:	01 00 00 00 	nop 
40001b30:	81 c4 40 00 	jmp  %l1
40001b34:	81 cc 80 00 	rett  %l2

40001b38 <ahbslv_scan>:
40001b38:	82 10 00 08 	mov  %o0, %g1
40001b3c:	9a 10 38 00 	mov  -2048, %o5
40001b40:	96 10 20 00 	clr  %o3
40001b44:	91 2a e0 05 	sll  %o3, 5, %o0
40001b48:	98 03 40 08 	add  %o5, %o0, %o4
40001b4c:	d4 03 40 08 	ld  [ %o5 + %o0 ], %o2
40001b50:	91 32 a0 18 	srl  %o2, 0x18, %o0
40001b54:	80 a2 00 01 	cmp  %o0, %g1
40001b58:	32 80 00 08 	bne,a   40001b78 <ahbslv_scan+0x40>
40001b5c:	96 02 e0 01 	inc  %o3
40001b60:	91 32 a0 0c 	srl  %o2, 0xc, %o0
40001b64:	90 0a 2f ff 	and  %o0, 0xfff, %o0
40001b68:	80 a2 00 09 	cmp  %o0, %o1
40001b6c:	02 80 00 07 	be  40001b88 <ahbslv_scan+0x50>
40001b70:	94 10 00 0c 	mov  %o4, %o2
40001b74:	96 02 e0 01 	inc  %o3
40001b78:	80 a2 e0 07 	cmp  %o3, 7
40001b7c:	28 bf ff f3 	bleu,a   40001b48 <ahbslv_scan+0x10>
40001b80:	91 2a e0 05 	sll  %o3, 5, %o0
40001b84:	94 10 20 00 	clr  %o2
40001b88:	81 c3 e0 08 	retl 
40001b8c:	90 10 00 0a 	mov  %o2, %o0

40001b90 <apbslv_scan>:
40001b90:	82 10 00 08 	mov  %o0, %g1
40001b94:	98 10 20 00 	clr  %o4
40001b98:	91 2b 20 03 	sll  %o4, 3, %o0
40001b9c:	9a 00 40 08 	add  %g1, %o0, %o5
40001ba0:	d6 00 40 08 	ld  [ %g1 + %o0 ], %o3
40001ba4:	91 32 e0 18 	srl  %o3, 0x18, %o0
40001ba8:	80 a2 00 09 	cmp  %o0, %o1
40001bac:	32 80 00 08 	bne,a   40001bcc <apbslv_scan+0x3c>
40001bb0:	98 03 20 01 	inc  %o4
40001bb4:	91 32 e0 0c 	srl  %o3, 0xc, %o0
40001bb8:	90 0a 2f ff 	and  %o0, 0xfff, %o0
40001bbc:	80 a2 00 0a 	cmp  %o0, %o2
40001bc0:	02 80 00 07 	be  40001bdc <apbslv_scan+0x4c>
40001bc4:	96 10 00 0d 	mov  %o5, %o3
40001bc8:	98 03 20 01 	inc  %o4
40001bcc:	80 a3 20 0f 	cmp  %o4, 0xf
40001bd0:	28 bf ff f3 	bleu,a   40001b9c <apbslv_scan+0xc>
40001bd4:	91 2b 20 03 	sll  %o4, 3, %o0
40001bd8:	96 10 20 00 	clr  %o3
40001bdc:	81 c3 e0 08 	retl 
40001be0:	90 10 00 0b 	mov  %o3, %o0

40001be4 <iobar_getbase>:
40001be4:	d4 02 20 04 	ld  [ %o0 + 4 ], %o2
40001be8:	17 3f fc 00 	sethi  %hi(0xfff00000), %o3
40001bec:	92 0a 40 0b 	and  %o1, %o3, %o1
40001bf0:	90 0a 80 0b 	and  %o2, %o3, %o0
40001bf4:	91 32 20 0c 	srl  %o0, 0xc, %o0
40001bf8:	92 12 40 08 	or  %o1, %o0, %o1
40001bfc:	11 00 00 3f 	sethi  %hi(0xfc00), %o0
40001c00:	90 12 23 f0 	or  %o0, 0x3f0, %o0	! fff0 <_trap_table-0x3fff0010>
40001c04:	94 0a 80 08 	and  %o2, %o0, %o2
40001c08:	95 2a a0 04 	sll  %o2, 4, %o2
40001c0c:	94 12 80 0b 	or  %o2, %o3, %o2
40001c10:	92 0a 40 0a 	and  %o1, %o2, %o1
40001c14:	81 c3 e0 08 	retl 
40001c18:	90 10 00 09 	mov  %o1, %o0

40001c1c <__do_global_ctors_aux>:
40001c1c:	9d e3 bf a0 	save  %sp, -96, %sp
40001c20:	21 10 00 07 	sethi  %hi(0x40001c00), %l0
40001c24:	a0 14 21 c8 	or  %l0, 0x1c8, %l0	! 40001dc8 <__CTOR_END__>
40001c28:	c2 04 3f fc 	ld  [ %l0 + -4 ], %g1
40001c2c:	80 a0 7f ff 	cmp  %g1, -1
40001c30:	02 80 00 08 	be  40001c50 <__do_global_ctors_aux+0x34>
40001c34:	a0 04 3f fc 	add  %l0, -4, %l0
40001c38:	9f c0 40 00 	call  %g1
40001c3c:	a0 04 3f fc 	add  %l0, -4, %l0
40001c40:	c2 04 00 00 	ld  [ %l0 ], %g1
40001c44:	80 a0 7f ff 	cmp  %g1, -1
40001c48:	12 bf ff fc 	bne  40001c38 <__do_global_ctors_aux+0x1c>
40001c4c:	01 00 00 00 	nop 
40001c50:	81 c7 e0 08 	ret 
40001c54:	81 e8 00 00 	restore 

40001c58 <call___do_global_ctors_aux>:
40001c58:	9d e3 bf a0 	save  %sp, -96, %sp
40001c5c:	81 c7 e0 08 	ret 
40001c60:	81 e8 00 00 	restore 
	...

40001c70 <__EH_FRAME_BEGIN__>:
40001c70:	00 00 00 10 	unimp  0x10
40001c74:	00 00 00 00 	unimp  0
40001c78:	01 7a 52 00 	unknown
40001c7c:	04 7c 0f 01 	unknown
40001c80:	1b 0c 0e 00 	sethi  %hi(0x30380000), %o5
40001c84:	00 00 00 10 	unimp  0x10
40001c88:	00 00 00 18 	unimp  0x18
40001c8c:	ff ff e5 18 	unknown
40001c90:	00 00 00 08 	unimp  0x8
40001c94:	00 00 00 00 	unimp  0
40001c98:	00 00 00 10 	unimp  0x10
40001c9c:	00 00 00 2c 	unimp  0x2c
40001ca0:	ff ff e5 0c 	unknown
40001ca4:	00 00 00 50 	unimp  0x50
40001ca8:	00 00 00 00 	unimp  0
40001cac:	00 00 00 18 	unimp  0x18
40001cb0:	00 00 00 40 	unimp  0x40
40001cb4:	ff ff ea 28 	unknown
40001cb8:	00 00 03 44 	unimp  0x344
40001cbc:	00 41 0d 1e 	unknown
40001cc0:	2d 49 09 0f 	unknown
40001cc4:	1f 00 00 00 	sethi  %hi(0), %o7
40001cc8:	00 00 00 10 	unimp  0x10
40001ccc:	00 00 00 5c 	unimp  0x5c
40001cd0:	ff ff f0 00 	unknown
40001cd4:	00 00 00 14 	unimp  0x14
40001cd8:	00 00 00 00 	unimp  0
40001cdc:	00 00 00 18 	unimp  0x18
40001ce0:	00 00 00 70 	unimp  0x70
40001ce4:	ff ff f0 00 	unknown
40001ce8:	00 00 00 40 	unimp  0x40
40001cec:	00 41 0d 1e 	unknown
40001cf0:	2d 46 09 0f 	unknown
40001cf4:	1f 00 00 00 	sethi  %hi(0), %o7
40001cf8:	00 00 00 18 	unimp  0x18
40001cfc:	00 00 00 8c 	unimp  0x8c
40001d00:	ff ff f0 24 	unknown
40001d04:	00 00 00 cc 	unimp  0xcc
40001d08:	00 41 0d 1e 	unknown
40001d0c:	2d 69 09 0f 	unknown
40001d10:	1f 00 00 00 	sethi  %hi(0), %o7
40001d14:	00 00 00 10 	unimp  0x10
40001d18:	00 00 00 a8 	unimp  0xa8
40001d1c:	ff ff f1 d4 	unknown
40001d20:	00 00 00 10 	unimp  0x10
40001d24:	00 00 00 00 	unimp  0
40001d28:	00 00 00 18 	unimp  0x18
40001d2c:	00 00 00 bc 	unimp  0xbc
40001d30:	ff ff f2 bc 	unknown
40001d34:	00 00 00 4c 	unimp  0x4c
40001d38:	00 41 0d 1e 	unknown
40001d3c:	2d 47 09 0f 	unknown
40001d40:	1f 00 00 00 	sethi  %hi(0), %o7
40001d44:	00 00 00 18 	unimp  0x18
40001d48:	00 00 00 d8 	unimp  0xd8
40001d4c:	ff ff f6 88 	unknown
40001d50:	00 00 00 88 	unimp  0x88
40001d54:	00 41 0d 1e 	unknown
40001d58:	2d 52 09 0f 	unknown
40001d5c:	1f 00 00 00 	sethi  %hi(0), %o7
40001d60:	00 00 00 10 	unimp  0x10
40001d64:	00 00 00 f4 	unimp  0xf4
40001d68:	ff ff f6 f4 	unknown
40001d6c:	00 00 00 1c 	unimp  0x1c
40001d70:	00 00 00 00 	unimp  0
40001d74:	00 00 00 18 	unimp  0x18
40001d78:	00 00 01 08 	unimp  0x108
40001d7c:	ff ff f6 fc 	unknown
40001d80:	00 00 01 20 	unimp  0x120
40001d84:	00 41 0d 1e 	unknown
40001d88:	2d 58 09 0f 	unknown
40001d8c:	1f 00 00 00 	sethi  %hi(0), %o7
40001d90:	00 00 00 10 	unimp  0x10
40001d94:	00 00 01 24 	unimp  0x124
40001d98:	ff ff f8 00 	unknown
40001d9c:	00 00 00 48 	unimp  0x48
40001da0:	00 00 00 00 	unimp  0
40001da4:	00 00 00 10 	unimp  0x10
40001da8:	00 00 01 38 	unimp  0x138
40001dac:	ff ff f8 34 	unknown
40001db0:	00 00 00 0c 	unimp  0xc
40001db4:	00 00 00 00 	unimp  0

40001db8 <__FRAME_END__>:
	...

40001dc0 <___CTOR_LIST__>:
40001dc0:	00 00 00 02 	unimp  0x2

40001dc4 <__CTOR_LIST__>:
40001dc4:	ff ff ff ff 	unknown

40001dc8 <__CTOR_END__>:
	...

40001dd0 <___CTOR_END__>:
40001dd0:	00 00 00 02 	unimp  0x2

40001dd4 <__DTOR_LIST__>:
40001dd4:	ff ff ff ff 	unknown

40001dd8 <__DTOR_END__>:
	...

40001de0 <___DTOR_END__>:
40001de0:	00 01 02 02 	unimp  0x10202
40001de4:	03 03 03 03 	sethi  %hi(0xc0c0c00), %g1
40001de8:	04 04 04 04 	unknown
40001dec:	04 04 04 04 	unknown
40001df0:	05 05 05 05 	sethi  %hi(0x14141400), %g2
40001df4:	05 05 05 05 	sethi  %hi(0x14141400), %g2
40001df8:	05 05 05 05 	sethi  %hi(0x14141400), %g2
40001dfc:	05 05 05 05 	sethi  %hi(0x14141400), %g2
40001e00:	06 06 06 06 	unknown
40001e04:	06 06 06 06 	unknown
40001e08:	06 06 06 06 	unknown
40001e0c:	06 06 06 06 	unknown
40001e10:	06 06 06 06 	unknown
40001e14:	06 06 06 06 	unknown
40001e18:	06 06 06 06 	unknown
40001e1c:	06 06 06 06 	unknown
40001e20:	07 07 07 07 	sethi  %hi(0x1c1c1c00), %g3
40001e24:	07 07 07 07 	sethi  %hi(0x1c1c1c00), %g3
40001e28:	07 07 07 07 	sethi  %hi(0x1c1c1c00), %g3
40001e2c:	07 07 07 07 	sethi  %hi(0x1c1c1c00), %g3
40001e30:	07 07 07 07 	sethi  %hi(0x1c1c1c00), %g3
40001e34:	07 07 07 07 	sethi  %hi(0x1c1c1c00), %g3
40001e38:	07 07 07 07 	sethi  %hi(0x1c1c1c00), %g3
40001e3c:	07 07 07 07 	sethi  %hi(0x1c1c1c00), %g3
40001e40:	07 07 07 07 	sethi  %hi(0x1c1c1c00), %g3
40001e44:	07 07 07 07 	sethi  %hi(0x1c1c1c00), %g3
40001e48:	07 07 07 07 	sethi  %hi(0x1c1c1c00), %g3
40001e4c:	07 07 07 07 	sethi  %hi(0x1c1c1c00), %g3
40001e50:	07 07 07 07 	sethi  %hi(0x1c1c1c00), %g3
40001e54:	07 07 07 07 	sethi  %hi(0x1c1c1c00), %g3
40001e58:	07 07 07 07 	sethi  %hi(0x1c1c1c00), %g3
40001e5c:	07 07 07 07 	sethi  %hi(0x1c1c1c00), %g3
40001e60:	08 08 08 08 	unknown
40001e64:	08 08 08 08 	unknown
40001e68:	08 08 08 08 	unknown
40001e6c:	08 08 08 08 	unknown
40001e70:	08 08 08 08 	unknown
40001e74:	08 08 08 08 	unknown
40001e78:	08 08 08 08 	unknown
40001e7c:	08 08 08 08 	unknown
40001e80:	08 08 08 08 	unknown
40001e84:	08 08 08 08 	unknown
40001e88:	08 08 08 08 	unknown
40001e8c:	08 08 08 08 	unknown
40001e90:	08 08 08 08 	unknown
40001e94:	08 08 08 08 	unknown
40001e98:	08 08 08 08 	unknown
40001e9c:	08 08 08 08 	unknown
40001ea0:	08 08 08 08 	unknown
40001ea4:	08 08 08 08 	unknown
40001ea8:	08 08 08 08 	unknown
40001eac:	08 08 08 08 	unknown
40001eb0:	08 08 08 08 	unknown
40001eb4:	08 08 08 08 	unknown
40001eb8:	08 08 08 08 	unknown
40001ebc:	08 08 08 08 	unknown
40001ec0:	08 08 08 08 	unknown
40001ec4:	08 08 08 08 	unknown
40001ec8:	08 08 08 08 	unknown
40001ecc:	08 08 08 08 	unknown
40001ed0:	08 08 08 08 	unknown
40001ed4:	08 08 08 08 	unknown
40001ed8:	08 08 08 08 	unknown
40001edc:	08 08 08 08 	unknown

40001ee0 <_global_impure_ptr>:
40001ee0:	40 00 20 88 	call  4000a100 <__end+0x7768>
40001ee4:	00 00 00 00 	unimp  0
40001ee8:	43 00 00 00 	call  4c001ee8 <__end+0xbfff550>
40001eec:	00 00 00 00 	unimp  0

40001ef0 <trap_table>:
	...
40001ef8:	40 00 0f 90 	call  40005d38 <__end+0x33a0>
40001efc:	00 00 00 01 	unimp  0x1
40001f00:	00 00 00 01 	unimp  0x1
40001f04:	40 00 18 24 	call  40007f94 <__end+0x55fc>
40001f08:	00 00 00 04 	unimp  0x4
40001f0c:	00 00 00 04 	unimp  0x4
40001f10:	40 00 17 78 	call  40007cf0 <__end+0x5358>
40001f14:	00 00 00 05 	unimp  0x5
40001f18:	00 00 00 05 	unimp  0x5
40001f1c:	40 00 10 38 	call  40005ffc <__end+0x3664>
40001f20:	00 00 00 06 	unimp  0x6
40001f24:	00 00 00 06 	unimp  0x6
40001f28:	40 00 10 a4 	call  400061b8 <__end+0x3820>
40001f2c:	00 00 00 09 	unimp  0x9
40001f30:	00 00 00 09 	unimp  0x9
40001f34:	40 00 18 24 	call  40007fc4 <__end+0x562c>
40001f38:	00 00 00 11 	unimp  0x11
40001f3c:	00 00 00 1f 	unimp  0x1f
40001f40:	40 00 13 34 	call  40006c10 <__end+0x4278>
40001f44:	00 00 00 82 	unimp  0x82
40001f48:	00 00 00 82 	unimp  0x82
40001f4c:	40 00 12 78 	call  4000692c <__end+0x3f94>
40001f50:	00 00 00 83 	unimp  0x83
40001f54:	00 00 00 83 	unimp  0x83
40001f58:	40 00 11 04 	call  40006368 <__end+0x39d0>
40001f5c:	00 00 00 85 	unimp  0x85
40001f60:	00 00 00 85 	unimp  0x85
40001f64:	40 00 12 5c 	call  400068d4 <__end+0x3f3c>

40001f68 <svt_trap_table_ext>:
	...

40002034 <svt_trap_table_ext_end>:
	...

40002040 <_init>:
40002040:	9d e3 bf a0 	save  %sp, -96, %sp
40002044:	7f ff f8 3c 	call  40000134 <frame_dummy>
40002048:	01 00 00 00 	nop 
4000204c:	7f ff fe f4 	call  40001c1c <__do_global_ctors_aux>
40002050:	01 00 00 00 	nop 
40002054:	81 c7 e0 08 	ret 
40002058:	81 e8 00 00 	restore 

4000205c <_fini>:
4000205c:	9d e3 bf a0 	save  %sp, -96, %sp
40002060:	7f ff f8 0a 	call  40000088 <__do_global_dtors_aux>
40002064:	01 00 00 00 	nop 
40002068:	81 c7 e0 08 	ret 
4000206c:	81 e8 00 00 	restore 

Disassembly of section .data:

40002070 <_environ>:
40002070:	00 00 00 01 	unimp  0x1
40002074:	00 00 00 00 	unimp  0

40002078 <__dso_handle>:
40002078:	00 00 00 00 	unimp  0

4000207c <Seed>:
4000207c:	12 34 56 78 	unknown

40002080 <_impure_ptr>:
40002080:	40 00 20 88 	call  4000a2a0 <__end+0x7908>
40002084:	00 00 00 00 	unimp  0

40002088 <impure_data>:
40002088:	00 00 00 00 	unimp  0
4000208c:	40 00 23 74 	call  4000ae5c <__end+0x84c4>
40002090:	40 00 24 40 	call  4000b190 <__end+0x87f8>
40002094:	40 00 25 0c 	call  4000b4c4 <__end+0x8b2c>
40002098:	00 00 00 00 	unimp  0
	...
400020bc:	40 00 1e e8 	call  40009c5c <__end+0x72c4>
400020c0:	00 00 00 00 	unimp  0
	...
40002134:	00 00 00 01 	unimp  0x1
40002138:	33 0e ab cd 	sethi  %hi(0x3aaf3400), %i1
4000213c:	12 34 e6 6d 	unknown
40002140:	de ec 00 05 	ldstuba  [ %l0 + %g5 ] (0), %o7
40002144:	00 0b 00 00 	unimp  0xb0000
	...

400025d8 <_lb_spillglobals>:
	...

400025f4 <_lb_issideflush>:
400025f4:	00 00 00 00 	unimp  0

400025f8 <nestedirq>:
400025f8:	00 00 00 00 	unimp  0

400025fc <fastirq>:
400025fc:	00 00 00 00 	unimp  0

40002600 <nestcount>:
40002600:	00 00 00 00 	unimp  0

40002604 <LEON3_IrqCtrl_Regs>:
	...

4000260c <console>:
4000260c:	80 00 01 00 	unknown

40002610 <_nwindows>:
40002610:	00 00 00 08 	unimp  0x8

40002614 <_nwindows_min1>:
40002614:	00 00 00 07 	unimp  0x7

40002618 <_nwindows_min2>:
40002618:	00 00 00 06 	unimp  0x6

4000261c <_leon_version>:
4000261c:	00 00 00 03 	unimp  0x3

40002620 <jiffies_64>:
40002620:	00 00 00 00 	unimp  0
40002624:	ff ff 8a d0 	unknown

40002628 <rtc>:
40002628:	80 00 03 10 	unknown

Disassembly of section .bss:

40002630 <__bss_start>:
40002630:	00 00 00 00 	unimp  0

40002634 <dtor_idx.4017>:
40002634:	00 00 00 00 	unimp  0

40002638 <object.4044>:
	...

40002650 <_irqtbl>:
	...

400026d0 <_oirqtbl>:
	...

400028d0 <no_inirq_check>:
400028d0:	00 00 00 00 	unimp  0

400028d4 <inirq>:
	...

40002954 <handler_irq_pre>:
40002954:	00 00 00 00 	unimp  0

40002958 <handler_irq_post>:
40002958:	00 00 00 00 	unimp  0

4000295c <schedule_callback>:
4000295c:	00 00 00 00 	unimp  0

40002960 <TData>:
	...

40002970 <DataToSort>:
	...

40002990 <xtime>:
	...

Disassembly of section .jcr:

40002998 <__JCR_END__>:
40002998:	00 00 00 00 	unimp  0

Disassembly of section .comment:

00000000 <.comment>:
   0:	00 47 43 43 	unknown
   4:	3a 20 28 42 	unknown
   8:	43 43 20 34 	call  d0c80d8 <_trap_table-0x32f37f28>
   c:	2e 34 2e 32 	unknown
  10:	20 72 65 6c 	unknown
  14:	65 61 73 65 	call  9585cda8 <__end+0x5585a410>
  18:	20 31 2e 30 	unknown
  1c:	2e 34 35 29 	unknown
  20:	20 34 2e 34 	unknown
  24:	2e 32 00 00 	unknown
  28:	47 43 43 3a 	call  1d0d0d10 <_trap_table-0x22f2f2f0>
  2c:	20 28 42 43 	unknown
  30:	43 20 34 2e 	call  c80d0e8 <_trap_table-0x337f2f18>
  34:	34 2e 32 20 	unknown
  38:	72 65 6c 65 	call  c995b1cc <__end+0x89958834>
  3c:	61 73 65 20 	call  85cd94bc <__end+0x45cd6b24>
  40:	31 2e 30 2e 	sethi  %hi(0xb8c0b800), %i0
  44:	34 35 29 20 	unknown
  48:	34 2e 34 2e 	unknown
  4c:	32 00 00 47 	unknown
  50:	43 43 3a 20 	call  d0ce8d0 <_trap_table-0x32f31730>
  54:	28 42 43 43 	unknown
  58:	20 34 2e 34 	unknown
  5c:	2e 32 20 72 	unknown
  60:	65 6c 65 61 	call  95b195e4 <__end+0x55b16c4c>
  64:	73 65 20 31 	call  cd948128 <__end+0x8d945790>
  68:	2e 30 2e 34 	unknown
  6c:	35 29 20 34 	sethi  %hi(0xa480d000), %i2
  70:	2e 34 2e 32 	unknown
  74:	00 00 47 43 	unimp  0x4743
  78:	43 3a 20 28 	call  ce88118 <_trap_table-0x33177ee8>
  7c:	42 43 43 20 	call  90d0cfc <_trap_table-0x36f2f304>
  80:	34 2e 34 2e 	unknown
  84:	32 20 72 65 	unknown
  88:	6c 65 61 73 	call  b1958654 <__end+0x71955cbc>
  8c:	65 20 31 2e 	call  9480c544 <__end+0x54809bac>
  90:	30 2e 34 35 	unknown
  94:	29 20 34 2e 	sethi  %hi(0x80d0b800), %l4
  98:	34 2e 32 00 	unknown
  9c:	00 47 43 43 	unknown
  a0:	3a 20 28 42 	unknown
  a4:	43 43 20 34 	call  d0c8174 <_trap_table-0x32f37e8c>
  a8:	2e 34 2e 32 	unknown
  ac:	20 72 65 6c 	unknown
  b0:	65 61 73 65 	call  9585ce44 <__end+0x5585a4ac>
  b4:	20 31 2e 30 	unknown
  b8:	2e 34 35 29 	unknown
  bc:	20 34 2e 34 	unknown
  c0:	2e 32 00 00 	unknown
  c4:	47 43 43 3a 	call  1d0d0dac <_trap_table-0x22f2f254>
  c8:	20 28 42 43 	unknown
  cc:	43 20 34 2e 	call  c80d184 <_trap_table-0x337f2e7c>
  d0:	34 2e 32 20 	unknown
  d4:	72 65 6c 65 	call  c995b268 <__end+0x899588d0>
  d8:	61 73 65 20 	call  85cd9558 <__end+0x45cd6bc0>
  dc:	31 2e 30 2e 	sethi  %hi(0xb8c0b800), %i0
  e0:	34 35 29 20 	unknown
  e4:	34 2e 34 2e 	unknown
  e8:	32 00 00 47 	unknown
  ec:	43 43 3a 20 	call  d0ce96c <_trap_table-0x32f31694>
  f0:	28 42 43 43 	unknown
  f4:	20 34 2e 34 	unknown
  f8:	2e 32 20 72 	unknown
  fc:	65 6c 65 61 	call  95b19680 <__end+0x55b16ce8>
 100:	73 65 20 31 	call  cd9481c4 <__end+0x8d94582c>
 104:	2e 30 2e 34 	unknown
 108:	35 29 20 34 	sethi  %hi(0xa480d000), %i2
 10c:	2e 34 2e 32 	unknown
 110:	00 00 47 43 	unimp  0x4743
 114:	43 3a 20 28 	call  ce881b4 <_trap_table-0x33177e4c>
 118:	42 43 43 20 	call  90d0d98 <_trap_table-0x36f2f268>
 11c:	34 2e 34 2e 	unknown
 120:	32 20 72 65 	unknown
 124:	6c 65 61 73 	call  b19586f0 <__end+0x71955d58>
 128:	65 20 31 2e 	call  9480c5e0 <__end+0x54809c48>
 12c:	30 2e 34 35 	unknown
 130:	29 20 34 2e 	sethi  %hi(0x80d0b800), %l4
 134:	34 2e 32 00 	unknown
 138:	00 47 43 43 	unknown
 13c:	3a 20 28 42 	unknown
 140:	43 43 20 34 	call  d0c8210 <_trap_table-0x32f37df0>
 144:	2e 34 2e 32 	unknown
 148:	20 72 65 6c 	unknown
 14c:	65 61 73 65 	call  9585cee0 <__end+0x5585a548>
 150:	20 31 2e 30 	unknown
 154:	2e 34 35 29 	unknown
 158:	20 34 2e 34 	unknown
 15c:	2e 32 00 00 	unknown
 160:	47 43 43 3a 	call  1d0d0e48 <_trap_table-0x22f2f1b8>
 164:	20 28 42 43 	unknown
 168:	43 20 34 2e 	call  c80d220 <_trap_table-0x337f2de0>
 16c:	34 2e 32 20 	unknown
 170:	72 65 6c 65 	call  c995b304 <__end+0x8995896c>
 174:	61 73 65 20 	call  85cd95f4 <__end+0x45cd6c5c>
 178:	31 2e 30 2e 	sethi  %hi(0xb8c0b800), %i0
 17c:	34 35 29 20 	unknown
 180:	34 2e 34 2e 	unknown
 184:	32 00 00 47 	unknown
 188:	43 43 3a 20 	call  d0cea08 <_trap_table-0x32f315f8>
 18c:	28 42 43 43 	unknown
 190:	20 34 2e 34 	unknown
 194:	2e 32 20 72 	unknown
 198:	65 6c 65 61 	call  95b1971c <__end+0x55b16d84>
 19c:	73 65 20 31 	call  cd948260 <__end+0x8d9458c8>
 1a0:	2e 30 2e 34 	unknown
 1a4:	35 29 20 34 	sethi  %hi(0xa480d000), %i2
 1a8:	2e 34 2e 32 	unknown
 1ac:	00 00 47 43 	unimp  0x4743
 1b0:	43 3a 20 28 	call  ce88250 <_trap_table-0x33177db0>
 1b4:	42 43 43 20 	call  90d0e34 <_trap_table-0x36f2f1cc>
 1b8:	34 2e 34 2e 	unknown
 1bc:	32 20 72 65 	unknown
 1c0:	6c 65 61 73 	call  b195878c <__end+0x71955df4>
 1c4:	65 20 31 2e 	call  9480c67c <__end+0x54809ce4>
 1c8:	30 2e 34 35 	unknown
 1cc:	29 20 34 2e 	sethi  %hi(0x80d0b800), %l4
 1d0:	34 2e 32 00 	unknown
 1d4:	00 47 43 43 	unknown
 1d8:	3a 20 28 42 	unknown
 1dc:	43 43 20 34 	call  d0c82ac <_trap_table-0x32f37d54>
 1e0:	2e 34 2e 32 	unknown
 1e4:	20 72 65 6c 	unknown
 1e8:	65 61 73 65 	call  9585cf7c <__end+0x5585a5e4>
 1ec:	20 31 2e 30 	unknown
 1f0:	2e 34 35 29 	unknown
 1f4:	20 34 2e 34 	unknown
 1f8:	2e 32 00 00 	unknown
 1fc:	47 43 43 3a 	call  1d0d0ee4 <_trap_table-0x22f2f11c>
 200:	20 28 42 43 	unknown
 204:	43 20 34 2e 	call  c80d2bc <_trap_table-0x337f2d44>
 208:	34 2e 32 20 	unknown
 20c:	72 65 6c 65 	call  c995b3a0 <__end+0x89958a08>
 210:	61 73 65 20 	call  85cd9690 <__end+0x45cd6cf8>
 214:	31 2e 30 2e 	sethi  %hi(0xb8c0b800), %i0
 218:	34 35 29 20 	unknown
 21c:	34 2e 34 2e 	unknown
 220:	32 00 00 47 	unknown
 224:	43 43 3a 20 	call  d0ceaa4 <_trap_table-0x32f3155c>
 228:	28 42 43 43 	unknown
 22c:	20 34 2e 34 	unknown
 230:	2e 32 20 72 	unknown
 234:	65 6c 65 61 	call  95b197b8 <__end+0x55b16e20>
 238:	73 65 20 31 	call  cd9482fc <__end+0x8d945964>
 23c:	2e 30 2e 34 	unknown
 240:	35 29 20 34 	sethi  %hi(0xa480d000), %i2
 244:	2e 34 2e 32 	unknown
 248:	00 00 47 43 	unimp  0x4743
 24c:	43 3a 20 28 	call  ce882ec <_trap_table-0x33177d14>
 250:	42 43 43 20 	call  90d0ed0 <_trap_table-0x36f2f130>
 254:	34 2e 34 2e 	unknown
 258:	32 20 72 65 	unknown
 25c:	6c 65 61 73 	call  b1958828 <__end+0x71955e90>
 260:	65 20 31 2e 	call  9480c718 <__end+0x54809d80>
 264:	30 2e 34 35 	unknown
 268:	29 20 34 2e 	sethi  %hi(0x80d0b800), %l4
 26c:	34 2e 32 00 	unknown
 270:	00 47 43 43 	unknown
 274:	3a 20 28 42 	unknown
 278:	43 43 20 34 	call  d0c8348 <_trap_table-0x32f37cb8>
 27c:	2e 34 2e 32 	unknown
 280:	20 72 65 6c 	unknown
 284:	65 61 73 65 	call  9585d018 <__end+0x5585a680>
 288:	20 31 2e 30 	unknown
 28c:	2e 34 35 29 	unknown
 290:	20 34 2e 34 	unknown
 294:	2e 32 00 00 	unknown
 298:	47 43 43 3a 	call  1d0d0f80 <_trap_table-0x22f2f080>
 29c:	20 28 42 43 	unknown
 2a0:	43 20 34 2e 	call  c80d358 <_trap_table-0x337f2ca8>
 2a4:	34 2e 32 20 	unknown
 2a8:	72 65 6c 65 	call  c995b43c <__end+0x89958aa4>
 2ac:	61 73 65 20 	call  85cd972c <__end+0x45cd6d94>
 2b0:	31 2e 30 2e 	sethi  %hi(0xb8c0b800), %i0
 2b4:	34 35 29 20 	unknown
 2b8:	34 2e 34 2e 	unknown
 2bc:	Address 0x000002bc is out of bounds.


Disassembly of section .debug_aranges:

00000000 <.debug_aranges>:
   0:	00 00 00 1c 	unimp  0x1c
   4:	00 02 00 00 	unimp  0x20000
   8:	00 00 04 00 	unimp  0x400
   c:	00 00 00 00 	unimp  0
  10:	40 00 00 00 	call  10 <_trap_table-0x3ffffff0>
  14:	00 00 00 0c 	unimp  0xc
	...
  20:	00 00 00 1c 	unimp  0x1c
  24:	00 02 00 00 	unimp  0x20000
  28:	00 c1 04 00 	unknown
  2c:	00 00 00 00 	unimp  0
  30:	40 00 00 0c 	call  60 <_trap_table-0x3fffffa0>
  34:	00 00 00 7c 	unimp  0x7c
	...
  40:	00 00 00 24 	unimp  0x24
  44:	00 02 00 00 	unimp  0x20000
  48:	01 7c 04 00 	unknown
  4c:	00 00 00 00 	unimp  0
  50:	40 00 20 40 	call  8150 <_trap_table-0x3fff7eb0>
  54:	00 00 00 04 	unimp  0x4
  58:	40 00 20 5c 	call  81c8 <_trap_table-0x3fff7e38>
  5c:	00 00 00 04 	unimp  0x4
	...
  68:	00 00 00 1c 	unimp  0x1c
  6c:	00 02 00 00 	unimp  0x20000
  70:	02 08 04 00 	unknown
  74:	00 00 00 00 	unimp  0
  78:	40 00 01 a4 	call  708 <_trap_table-0x3ffff8f8>
  7c:	00 00 00 08 	unimp  0x8
	...
  88:	00 00 00 1c 	unimp  0x1c
  8c:	00 02 00 00 	unimp  0x20000
  90:	02 8a 04 00 	be  281090 <_trap_table-0x3fd7ef70>
  94:	00 00 00 00 	unimp  0
  98:	40 00 06 dc 	call  1c08 <_trap_table-0x3fffe3f8>
  9c:	00 00 03 44 	unimp  0x344
	...
  a8:	00 00 00 1c 	unimp  0x1c
  ac:	00 02 00 00 	unimp  0x20000
  b0:	05 c2 04 00 	cb12  810b0 <_trap_table-0x3ff7ef50>
  b4:	00 00 00 00 	unimp  0
  b8:	40 00 0a 20 	call  2938 <_trap_table-0x3fffd6c8>
  bc:	00 00 02 b0 	unimp  0x2b0
	...
  c8:	00 00 00 1c 	unimp  0x1c
  cc:	00 02 00 00 	unimp  0x20000
  d0:	07 35 04 00 	sethi  %hi(0xd4100000), %g3
  d4:	00 00 00 00 	unimp  0
  d8:	40 00 0d 24 	call  3568 <_trap_table-0x3fffca98>
  dc:	00 00 00 cc 	unimp  0xcc
	...
  e8:	00 00 00 1c 	unimp  0x1c
  ec:	00 02 00 00 	unimp  0x20000
  f0:	08 b4 04 00 	bleu  ffd010f0 <__end+0xbfcfe758>
  f4:	00 00 00 00 	unimp  0
  f8:	40 00 0d f0 	call  38b8 <_trap_table-0x3fffc748>
  fc:	00 00 00 e8 	unimp  0xe8
	...
 108:	00 00 00 24 	unimp  0x24
 10c:	00 02 00 00 	unimp  0x20000
 110:	09 62 04 00 	unknown
 114:	00 00 00 00 	unimp  0
 118:	40 00 20 54 	call  8268 <_trap_table-0x3fff7d98>
 11c:	00 00 00 08 	unimp  0x8
 120:	40 00 20 68 	call  82c0 <_trap_table-0x3fff7d40>
 124:	00 00 00 08 	unimp  0x8
	...

Disassembly of section .debug_pubnames:

00000000 <.debug_pubnames>:
   0:	00 00 00 1a 	unimp  0x1a
   4:	00 02 00 00 	unimp  0x20000
   8:	02 08 00 00 	unknown
   c:	00 82 00 00 	bn  8000c <_trap_table-0x3ff7fff4>
  10:	00 6e 70 6e 	unknown
  14:	70 69 6e 69 	call  c1a5b9b8 <__end+0x81a59020>
  18:	74 00 00 00 	call  d0000018 <__end+0x8fffd680>
  1c:	00 00 00 00 	unimp  0
  20:	00 1c 00 02 	unimp  0x1c0002
  24:	00 00 02 8a 	unimp  0x28a
  28:	00 00 03 38 	unimp  0x338
  2c:	00 00 02 20 	unimp  0x220
  30:	5f 5f 75 64 	call  7d7dd5c0 <__end+0x3d7dac28>
  34:	69 76 64 69 	call  a5d991d8 <__end+0x65d96840>
  38:	33 00 00 00 	sethi  %hi(0), %i1
  3c:	00 00 00 00 	unimp  0
  40:	00 1c 00 02 	unimp  0x1c0002
  44:	00 00 06 70 	unimp  0x670
  48:	00 00 00 c5 	unimp  0xc5
  4c:	00 00 00 ac 	unimp  0xac
  50:	5f 5f 63 6c 	call  7d7d8e00 <__end+0x3d7d6468>
  54:	7a 5f 74 61 	call  e97dd1d8 <__end+0xa97da840>
  58:	62 00 00 00 	call  88000058 <__end+0x47ffd6c0>
  5c:	00 00 00 00 	unimp  0
  60:	00 1b 00 02 	unimp  0x1b0002
  64:	00 00 07 35 	unimp  0x735
  68:	00 00 01 7f 	unimp  0x17f
  6c:	00 00 00 fe 	unimp  0xfe
  70:	5f 5f 6d 75 	call  7d7db644 <__end+0x3d7d8cac>
  74:	6c 64 69 33 	call  b191a540 <__end+0x71917ba8>
  78:	00 00 00 00 	unimp  0
	...

Disassembly of section .debug_info:

00000000 <.debug_info>:
   0:	00 00 00 bd 	unimp  0xbd
   4:	00 02 00 00 	unimp  0x20000
   8:	00 00 04 01 	unimp  0x401
   c:	00 00 00 00 	unimp  0
  10:	40 00 00 00 	call  10 <_trap_table-0x3ffffff0>
  14:	40 00 00 0c 	call  44 <_trap_table-0x3fffffbc>
  18:	2e 2e 2f 2e 	unknown
  1c:	2e 2f 2e 2e 	unknown
  20:	2f 2e 2e 2f 	sethi  %hi(0xb8b8bc00), %l7
  24:	2e 2e 2f 6e 	unknown
  28:	65 77 6c 69 	call  95ddb1cc <__end+0x55dd8834>
  2c:	62 2d 31 2e 	call  88b4c4e4 <__end+0x48b49b4c>
  30:	31 33 2e 30 	sethi  %hi(0xccb8c000), %i0
  34:	2f 6c 69 62 	unknown
  38:	67 6c 6f 73 	call  9db1be04 <__end+0x5db1946c>
  3c:	73 2f 73 70 	call  ccbdcdfc <__end+0x8cbda464>
  40:	61 72 63 5f 	call  85c98dbc <__end+0x45c96424>
  44:	6c 65 6f 6e 	call  b195bdfc <__end+0x71959464>
  48:	2f 6c 6f 63 	unknown
  4c:	6f 72 65 5f 	call  bdc995c8 <__end+0x7dc96c30>
  50:	73 76 74 2e 	call  cdd9d108 <__end+0x8dd9a770>
  54:	53 00 2f 6f 	call  4c00be10 <__end+0xc009478>
  58:	70 74 2f 62 	call  c1d0bde0 <__end+0x81d09448>
  5c:	75 69 6c 64 	call  d5a5b1ec <__end+0x95a58854>
  60:	2d 62 63 63 	unknown
  64:	2f 62 63 63 	unknown
  68:	2f 67 63 63 	unknown
  6c:	2d 34 2e 34 	sethi  %hi(0xd0b8d000), %l6
  70:	2e 32 2d 31 	unknown
  74:	2e 30 2e 34 	unknown
  78:	35 6e 65 77 	unknown
  7c:	6c 69 62 2d 	call  b1a58930 <__end+0x71a55f98>
  80:	31 2e 31 33 	sethi  %hi(0xb8c4cc00), %i0
  84:	2e 30 2d 62 	unknown
  88:	75 69 6c 64 	call  d5a5b218 <__end+0x95a58880>
  8c:	2f 73 70 61 	unknown
  90:	72 63 2d 65 	call  c98cb624 <__end+0x898c8c8c>
  94:	6c 66 2f 73 	call  b198be60 <__end+0x719894c8>
  98:	6f 66 74 2f 	call  bd99d154 <__end+0x7d99a7bc>
  9c:	6c 69 62 67 	call  b1a58a38 <__end+0x71a560a0>
  a0:	6c 6f 73 73 	call  b1bdce6c <__end+0x71bda4d4>
  a4:	2f 73 70 61 	unknown
  a8:	72 63 5f 6c 	call  c98d7e58 <__end+0x898d54c0>
  ac:	65 6f 6e 00 	call  95bdb8ac <__end+0x55bd8f14>
  b0:	47 4e 55 20 	call  1d395530 <_trap_table-0x22c6aad0>
  b4:	41 53 20 32 	call  54c817c <_trap_table-0x3ab37e84>
  b8:	2e 31 39 2e 	unknown
  bc:	35 31 00 80 	sethi  %hi(0xc4020000), %i2
  c0:	01 00 00 00 	nop 
  c4:	b7 00 02 00 	unknown
  c8:	00 00 14 04 	unimp  0x1404
  cc:	01 00 00 00 	nop 
  d0:	6f 40 00 00 	call  bd0000d0 <__end+0x7cffd738>
  d4:	0c 40 00 00 	unknown
  d8:	88 2e 2e 2f 	andn  %i0, 0xe2f, %g4
  dc:	2e 2e 2f 2e 	unknown
  e0:	2e 2f 2e 2e 	unknown
  e4:	2f 2e 2e 2f 	sethi  %hi(0xb8b8bc00), %l7
  e8:	6e 65 77 6c 	call  b995de98 <__end+0x7995b500>
  ec:	69 62 2d 31 	call  a588b5b0 <__end+0x65888c18>
  f0:	2e 31 33 2e 	unknown
  f4:	30 2f 6c 69 	unknown
  f8:	62 67 6c 6f 	call  899db2b4 <__end+0x499d891c>
  fc:	73 73 2f 73 	call  cdccbec8 <__end+0x8dcc9530>
 100:	70 61 72 63 	call  c185ca8c <__end+0x8185a0f4>
 104:	5f 6c 65 6f 	call  7db196c0 <__end+0x3db16d28>
 108:	6e 2f 63 72 	call  b8bd8ed0 <__end+0x78bd6538>
 10c:	74 30 2e 53 	call  d0c0ba58 <__end+0x90c090c0>
 110:	00 2f 6f 70 	unimp  0xffef6f70
 114:	74 2f 62 75 	call  d0bd8ae8 <__end+0x90bd6150>
 118:	69 6c 64 2d 	call  a5b191cc <__end+0x65b16834>
 11c:	62 63 63 2f 	call  898d8dd8 <__end+0x498d6440>
 120:	62 63 63 2f 	call  898d8ddc <__end+0x498d6444>
 124:	67 63 63 2d 	call  9d8d8dd8 <__end+0x5d8d6440>
 128:	34 2e 34 2e 	unknown
 12c:	32 2d 31 2e 	unknown
 130:	30 2e 34 35 	unknown
 134:	6e 65 77 6c 	call  b995dee4 <__end+0x7995b54c>
 138:	69 62 2d 31 	call  a588b5fc <__end+0x65888c64>
 13c:	2e 31 33 2e 	unknown
 140:	30 2d 62 75 	unknown
 144:	69 6c 64 2f 	call  a5b19200 <__end+0x65b16868>
 148:	73 70 61 72 	call  cdc18710 <__end+0x8dc15d78>
 14c:	63 2d 65 6c 	call  8cb596fc <__end+0x4cb56d64>
 150:	66 2f 73 6f 	call  98bdcf0c <__end+0x58bda574>
 154:	66 74 2f 6c 	call  99d0bf04 <__end+0x59d0956c>
 158:	69 62 67 6c 	call  a5899f08 <__end+0x65897570>
 15c:	6f 73 73 2f 	call  bdcdce18 <__end+0x7dcda480>
 160:	73 70 61 72 	call  cdc18728 <__end+0x8dc15d90>
 164:	63 5f 6c 65 	call  8d7db2f8 <__end+0x4d7d8960>
 168:	6f 6e 00 47 	call  bdb80284 <__end+0x7db7d8ec>
 16c:	4e 55 20 41 	call  39548270 <_trap_table-0x6ab7d90>
 170:	53 20 32 2e 	call  4c80ca28 <__end+0xc80a090>
 174:	31 39 2e 35 	sethi  %hi(0xe4b8d400), %i0
 178:	31 00 80 01 	sethi  %hi(0x2000400), %i0
 17c:	00 00 00 88 	unimp  0x88
 180:	00 02 00 00 	unimp  0x20000
 184:	00 28 04 01 	unimp  0xffe80401
 188:	00 00 00 f2 	unimp  0xf2
 18c:	00 00 00 00 	unimp  0
 190:	2e 2e 2f 2e 	unknown
 194:	2e 2f 67 63 	unknown
 198:	63 2d 34 2e 	call  8cb4d250 <__end+0x4cb4a8b8>
 19c:	34 2e 32 2f 	unknown
 1a0:	67 63 63 2f 	call  9d8d8e5c <__end+0x5d8d64c4>
 1a4:	63 6f 6e 66 	call  8dbdbb3c <__end+0x4dbd91a4>
 1a8:	69 67 2f 73 	call  a59cbf74 <__end+0x659c95dc>
 1ac:	70 61 72 63 	call  c185cb38 <__end+0x8185a1a0>
 1b0:	2f 73 70 61 	unknown
 1b4:	72 63 6c 65 	call  c98db348 <__end+0x898d89b0>
 1b8:	6f 6e 2d 63 	call  bdb8b744 <__end+0x7db88dac>
 1bc:	69 2e 53 00 	call  a4b94dbc <__end+0x64b92424>
 1c0:	2f 6f 70 74 	unknown
 1c4:	2f 62 75 69 	unknown
 1c8:	6c 64 2d 62 	call  b190b750 <__end+0x71908db8>
 1cc:	63 63 2f 62 	call  8d8cbf54 <__end+0x4d8c95bc>
 1d0:	63 63 2f 67 	call  8d8cbf6c <__end+0x4d8c95d4>
 1d4:	63 63 2d 34 	call  8d8cb6a4 <__end+0x4d8c8d0c>
 1d8:	2e 34 2e 32 	unknown
 1dc:	2d 31 2e 30 	sethi  %hi(0xc4b8c000), %l6
 1e0:	2e 34 35 67 	unknown
 1e4:	63 63 2d 34 	call  8d8cb6b4 <__end+0x4d8c8d1c>
 1e8:	2e 34 2e 32 	unknown
 1ec:	2d 62 75 69 	unknown
 1f0:	6c 64 2f 67 	call  b190bf8c <__end+0x719095f4>
 1f4:	63 63 00 47 	call  8d8c0310 <__end+0x4d8bd978>
 1f8:	4e 55 20 41 	call  395482fc <_trap_table-0x6ab7d04>
 1fc:	53 20 32 2e 	call  4c80cab4 <__end+0xc80a11c>
 200:	31 39 2e 35 	sethi  %hi(0xe4b8d400), %i0
 204:	31 00 80 01 	sethi  %hi(0x2000400), %i0
 208:	00 00 00 7e 	unimp  0x7e
 20c:	00 02 00 00 	unimp  0x20000
 210:	00 3a 04 01 	unimp  0xfffa0401
 214:	00 00 00 e6 	unimp  0xe6
 218:	01 00 00 00 	nop 
 21c:	1b 00 00 00 	sethi  %hi(0), %o5
 220:	7e 40 00 01 	call  f9000224 <__end+0xb8ffd88c>
 224:	a4 40 00 01 	addx  %g0, %g1, %l2
 228:	ac 00 00 01 	add  %g0, %g1, %l6
 22c:	60 02 04 07 	call  80081248 <__end+0x4007e8b0>
 230:	00 00 00 71 	unimp  0x71
 234:	03 04 07 04 	sethi  %hi(0x101c1000), %g1
 238:	04 05 69 6e 	unknown
 23c:	74 00 02 01 	call  d0000a40 <__end+0x8fffe0a8>
 240:	08 00 00 00 	unknown
 244:	d8 02 02 07 	ld  [ %o0 + %g7 ], %o4
 248:	00 00 00 08 	unimp  0x8
 24c:	02 01 06 00 	unknown
 250:	00 00 e1 02 	unimp  0xe102
 254:	04 05 00 00 	unknown
 258:	00 f7 02 08 	unknown
 25c:	05 00 00 00 	sethi  %hi(0), %g2
 260:	f2 02 04 07 	ld  [ %o0 + %g7 ], %i1
 264:	00 00 00 6c 	unimp  0x6c
 268:	02 02 05 00 	unknown
 26c:	00 00 5d 02 	unimp  0x5d02
 270:	08 07 00 00 	unknown
 274:	00 67 05 01 	unknown
 278:	00 00 00 00 	unimp  0
 27c:	01 06 01 40 	sethi  %hi(0x18050000), %g0
 280:	00 01 a4 40 	unimp  0x1a440
 284:	00 01 ac 01 	unimp  0x1ac01
 288:	5e 00 00 00 	call  78000288 <__end+0x37ffd8f0>
 28c:	03 34 00 02 	sethi  %hi(0xd0000800), %g1
 290:	00 00 00 82 	unimp  0x82
 294:	04 01 00 00 	unknown
 298:	00 e6 01 00 	unknown
 29c:	00 01 28 00 	unimp  0x12800
 2a0:	00 01 5e 40 	unimp  0x15e40
 2a4:	00 06 dc 40 	unimp  0x6dc40
 2a8:	00 0a 20 00 	unimp  0xa2000
 2ac:	00 01 d0 02 	unimp  0x1d002
 2b0:	04 05 69 6e 	unknown
 2b4:	74 00 03 04 	call  d0000ec4 <__end+0x8fffe52c>
 2b8:	07 00 00 00 	sethi  %hi(0), %g3
 2bc:	71 03 04 05 	call  c40c12d0 <__end+0x840be938>
 2c0:	00 00 00 f7 	unimp  0xf7
 2c4:	03 01 06 00 	sethi  %hi(0x4180000), %g1
 2c8:	00 00 e1 04 	unimp  0xe104
 2cc:	04 07 03 08 	unknown
 2d0:	05 00 00 00 	sethi  %hi(0), %g2
 2d4:	f2 03 01 08 	ld  [ %o4 + %o0 ], %i1
 2d8:	00 00 00 d8 	unimp  0xd8
 2dc:	03 04 07 00 	sethi  %hi(0x101c0000), %g1
 2e0:	00 00 6c 03 	unimp  0x6c03
 2e4:	02 05 00 00 	unknown
 2e8:	00 5d 03 02 	unknown
 2ec:	07 00 00 00 	sethi  %hi(0), %g3
 2f0:	08 03 08 07 	unknown
 2f4:	00 00 00 67 	unimp  0x67
 2f8:	03 01 06 00 	sethi  %hi(0x4180000), %g1
 2fc:	00 00 da 05 	unimp  0xda05
 300:	00 00 01 a7 	unimp  0x1a7
 304:	02 88 00 00 	be  200304 <_trap_table-0x3fdffcfc>
 308:	00 4b 05 00 	unknown
 30c:	00 01 21 02 	unimp  0x12102
 310:	8d 00 00 00 	taddcc  %g0, %g0, %g6
 314:	25 05 00 00 	sethi  %hi(0x14000000), %l2
 318:	01 20 02 8e 	sethi  %hi(0x800a3800), %g0
 31c:	00 00 00 2c 	unimp  0x2c
 320:	05 00 00 01 	sethi  %hi(0x400), %g2
 324:	ba 02 91 00 	unknown
 328:	00 00 44 05 	unimp  0x4405
 32c:	00 00 01 b9 	unimp  0x1b9
 330:	02 92 00 00 	be  480330 <_trap_table-0x3fb7fcd0>
 334:	00 67 03 04 	unknown
 338:	04 00 00 01 	unknown
 33c:	1a 03 08 03 	unknown
 340:	00 00 01 12 	unimp  0x112
 344:	03 08 04 00 	sethi  %hi(0x20100000), %g1
 348:	00 01 d8 03 	unimp  0x1d803
 34c:	10 03 00 00 	unknown
 350:	01 d0 06 00 	cbn  401b50 <_trap_table-0x3fbfe4b0>
 354:	00 01 df 08 	unimp  0x1df08
 358:	02 01 a0 00 	unknown
 35c:	00 00 f4 07 	unimp  0xf407
 360:	00 00 01 00 	unimp  0x100
 364:	02 01 a0 00 	unknown
 368:	00 00 80 02 	unimp  0x8002
 36c:	23 00 08 6c 	sethi  %hi(0x21b000), %l1
 370:	6f 77 00 02 	call  bddc0378 <__end+0x7ddbd9e0>
 374:	01 a0 00 00 	fbn  ff800374 <__end+0xbf7fd9dc>
 378:	00 80 02 23 	bn  c04 <_trap_table-0x3ffff3fc>
 37c:	04 00 09 08 	unknown
 380:	02 01 aa 00 	unknown
 384:	00 01 13 0a 	unimp  0x1130a
 388:	73 00 02 01 	call  cc000b8c <__end+0x8bffe1f4>
 38c:	ab 00 00 00 	taddcc  %g0, %g0, %l5
 390:	c8 0a 6c 6c 	ldub  [ %o1 + 0xc6c ], %g4
 394:	00 02 01 ac 	unimp  0x201ac
 398:	00 00 00 96 	unimp  0x96
 39c:	00 0b 00 00 	unimp  0xb0000
 3a0:	01 56 02 01 	unknown
 3a4:	ad 00 00 00 	taddcc  %g0, %g0, %l6
 3a8:	f4 0c 00 00 	ldub  [ %l0 ], %i2
 3ac:	01 05 01 03 	sethi  %hi(0x14040c00), %g0
 3b0:	60 01 00 00 	call  800403b0 <__end+0x4003da18>
 3b4:	00 a1 03 00 	bn  ff840fb4 <__end+0xbf83e61c>
 3b8:	00 02 15 0d 	unimp  0x2150d
 3bc:	6e 00 01 03 	call  b80007c8 <__end+0x77ffde30>
 3c0:	60 00 00 00 	call  800003c0 <__end+0x3fffda28>
 3c4:	a1 0d 64 00 	tsubcc  %l5, 0x400, %l0
 3c8:	01 03 60 00 	sethi  %hi(0xd800000), %g0
 3cc:	00 00 a1 0d 	unimp  0xa10d
 3d0:	72 70 00 01 	call  c9c003d4 <__end+0x89bfda3c>
 3d4:	03 60 00 00 	unknown
 3d8:	02 15 0e 6e 	unknown
 3dc:	6e 00 01 03 	call  b80007e8 <__end+0x77ffde50>
 3e0:	62 00 00 02 	call  880003e8 <__end+0x47ffda50>
 3e4:	1b 0e 64 64 	sethi  %hi(0x39919000), %o5
 3e8:	00 01 03 63 	unimp  0x10363
 3ec:	00 00 02 1b 	unimp  0x21b
 3f0:	0e 72 72 00 	unknown
 3f4:	01 03 64 00 	sethi  %hi(0xd900000), %g0
 3f8:	00 01 13 0e 	unimp  0x1130e
 3fc:	64 30 00 01 	call  90c00400 <__end+0x50bfda68>
 400:	03 65 00 00 	unknown
 404:	00 8b 0e 64 	bn  2c3d94 <_trap_table-0x3fd3c26c>
 408:	31 00 01 03 	sethi  %hi(0x40c00), %i0
 40c:	65 00 00 00 	call  9400040c <__end+0x53ffda74>
 410:	8b 0e 6e 30 	tsubcc  %i1, 0xe30, %g5
 414:	00 01 03 65 	unimp  0x10365
 418:	00 00 00 8b 	unimp  0x8b
 41c:	0e 6e 31 00 	unknown
 420:	01 03 65 00 	sethi  %hi(0xd940000), %g0
 424:	00 00 8b 0e 	unimp  0x8b0e
 428:	6e 32 00 01 	call  b8c8042c <__end+0x78c7da94>
 42c:	03 65 00 00 	unknown
 430:	00 8b 0e 71 	bn  2c3df4 <_trap_table-0x3fd3c20c>
 434:	30 00 01 03 	unknown
 438:	66 00 00 00 	call  98000438 <__end+0x57ffdaa0>
 43c:	8b 0e 71 31 	tsubcc  %i1, -3791, %g5
 440:	00 01 03 66 	unimp  0x10366
 444:	00 00 00 8b 	unimp  0x8b
 448:	0e 62 00 01 	unknown
 44c:	03 67 00 00 	unknown
 450:	00 8b 0e 62 	bn  2c3dd8 <_trap_table-0x3fd3c228>
 454:	6d 00 01 03 	call  b4000860 <__end+0x73ffdec8>
 458:	67 00 00 00 	call  9c000458 <__end+0x5bffdac0>
 45c:	8b 0e 77 77 	tsubcc  %i1, -2185, %g5
 460:	00 01 04 30 	unimp  0x10430
 464:	00 00 02 1b 	unimp  0x21b
 468:	0f 00 00 01 	sethi  %hi(0x400), %g7
 46c:	fc 10 00 00 	lduh  [ %g0 ], %fp
 470:	01 cb 01 03 	cbn  2c087c <_trap_table-0x3fd3f784>
 474:	f0 00 00 00 	ld  [ %g0 ], %i0
 478:	8b 0e 5f 5f 	unknown
 47c:	61 00 01 03 	call  84000888 <__end+0x43ffdef0>
 480:	f0 00 00 00 	ld  [ %g0 ], %i0
 484:	8b 00 11 0e 	unknown
 488:	6d 31 00 01 	call  b4c4048c <__end+0x74c3daf4>
 48c:	04 0e 00 00 	unknown
 490:	00 8b 0e 6d 	bn  2c3e44 <_trap_table-0x3fd3c1bc>
 494:	30 00 01 04 	unknown
 498:	0e 00 00 00 	unknown
 49c:	8b 00 00 12 	taddcc  %g0, %l2, %g5
 4a0:	04 00 00 00 	unknown
 4a4:	a1 13 00 00 	taddcctv  %o4, %g0, %l0
 4a8:	01 13 14 01 	sethi  %hi(0x4c500400), %g0
 4ac:	00 00 01 c1 	unimp  0x1c1
 4b0:	01 04 72 01 	sethi  %hi(0x11c80400), %g0
 4b4:	00 00 00 a1 	unimp  0xa1
 4b8:	40 00 06 dc 	call  2028 <_trap_table-0x3fffdfd8>
 4bc:	40 00 0a 20 	call  2d3c <_trap_table-0x3fffd2c4>
 4c0:	00 00 00 00 	unimp  0
 4c4:	00 00 03 15 	unimp  0x315
 4c8:	15 6e 00 01 	unknown
 4cc:	04 72 00 00 	unknown
 4d0:	00 a1 00 00 	bn  ff8404d0 <__end+0xbf83db38>
 4d4:	00 1e 15 64 	unimp  0x1e1564
 4d8:	00 01 04 72 	unimp  0x10472
 4dc:	00 00 00 a1 	unimp  0xa1
 4e0:	00 00 00 76 	unimp  0x76
 4e4:	16 00 00 01 	unknown
 4e8:	1f 40 00 06 	unknown
 4ec:	e0 00 00 00 	ld  [ %g0 ], %l0
 4f0:	20 01 04 74 	unknown
 4f4:	17 00 00 01 	sethi  %hi(0x400), %o3
 4f8:	45 17 00 00 	call  145c04f8 <_trap_table-0x2ba3fb08>
 4fc:	01 3b 17 00 	sethi  %hi(0xec5c0000), %g0
 500:	00 01 31 18 	unimp  0x13118
 504:	00 00 00 58 	unimp  0x58
 508:	19 00 00 01 	sethi  %hi(0x400), %o4
 50c:	50 19 00 00 	call  4064050c <__end+0x63db74>
 510:	01 5b 19 00 	unknown
 514:	00 01 66 1a 	unimp  0x1661a
 518:	00 00 01 71 	unimp  0x171
 51c:	00 00 00 8e 	unimp  0x8e
 520:	1a 00 00 01 	unknown
 524:	7c 00 00 00 	call  f0000524 <__end+0xafffdb8c>
 528:	c2 1a 00 00 	ldd  [ %o0 ], %g1
 52c:	01 87 00 00 	fbn  1c052c <_trap_table-0x3fe3fad4>
 530:	00 e0 1a 00 	unknown
 534:	00 01 92 00 	unimp  0x19200
 538:	00 00 fe 1a 	unimp  0xfe1a
 53c:	00 00 01 9d 	unimp  0x19d
 540:	00 00 01 69 	unimp  0x169
 544:	1a 00 00 01 	unknown
 548:	a8 00 00 01 	add  %g0, %g1, %l4
 54c:	7c 1a 00 00 	call  f068054c <__end+0xb067dbb4>
 550:	01 b3 00 00 	fbn  ffcc0550 <__end+0xbfcbdbb8>
 554:	01 9a 19 00 	fbn  686954 <_trap_table-0x3f9796ac>
 558:	00 01 be 1a 	unimp  0x1be1a
 55c:	00 00 01 c8 	unimp  0x1c8
 560:	00 00 01 ad 	unimp  0x1ad
 564:	1b 00 00 01 	sethi  %hi(0x400), %o5
 568:	d3 06 52 93 	ld  [ %i1 + %l3 ], %f9
 56c:	04 53 93 04 	unknown
 570:	1c 00 00 00 	unknown
 574:	90 00 00 02 	add  %g0, %g2, %o0
 578:	fe 1a 00 00 	ldd  [ %o0 ], %i7
 57c:	01 ef 00 00 	cbn  ffbc057c <__end+0xbfbbdbe4>
 580:	01 cb 19 00 	cbn  2c6980 <_trap_table-0x3fd39680>
 584:	00 01 e3 00 	unimp  0x1e300
 588:	18 00 00 00 	unknown
 58c:	a8 1b 00 00 	xor  %o4, %g0, %l4
 590:	01 fd 01 54 	cbn  fff40ae0 <__end+0xbff3e148>
 594:	1b 00 00 02 	sethi  %hi(0x800), %o5
 598:	08 01 5c 00 	unknown
 59c:	00 00 00 1d 	unimp  0x1d
 5a0:	00 00 00 75 	unimp  0x75
 5a4:	00 00 03 25 	unimp  0x325
 5a8:	1e 00 00 00 	unknown
 5ac:	41 ff 00 1f 	call  7fc0628 <_trap_table-0x3803f9d8>
 5b0:	00 00 01 af 	unimp  0x1af
 5b4:	03 3f 00 00 	sethi  %hi(0xfc000000), %g1
 5b8:	03 32 01 01 	sethi  %hi(0xc8040400), %g1
 5bc:	13 00 00 03 	sethi  %hi(0xc00), %o1
 5c0:	15 00 00 00 	sethi  %hi(0), %o2
 5c4:	00 aa 00 02 	bn  ffa805cc <__end+0xbfa7dc34>
 5c8:	00 00 01 f6 	unimp  0x1f6
 5cc:	04 01 00 00 	unknown
 5d0:	02 9d 40 00 	be  7505d0 <_trap_table-0x3f8afa30>
 5d4:	0a 20 40 00 	unknown
 5d8:	0c d0 2e 2e 	unknown
 5dc:	2f 2e 2e 2f 	sethi  %hi(0xb8b8bc00), %l7
 5e0:	2e 2e 2f 2e 	unknown
 5e4:	2e 2f 67 63 	unknown
 5e8:	63 2d 34 2e 	call  8cb4d6a0 <__end+0x4cb4ad08>
 5ec:	34 2e 32 2f 	unknown
 5f0:	6c 69 62 67 	call  b1a58f8c <__end+0x71a565f4>
 5f4:	63 63 2f 2e 	call  8d8cc2ac <__end+0x4d8c9914>
 5f8:	2e 2f 67 63 	unknown
 5fc:	63 2f 63 6f 	call  8cbd93b8 <__end+0x4cbd6a20>
 600:	6e 66 69 67 	call  b999ab9c <__end+0x79998204>
 604:	2f 73 70 61 	unknown
 608:	72 63 2f 6c 	call  c98cc3b8 <__end+0x898c9a20>
 60c:	62 31 73 70 	call  88c5d3cc <__end+0x48c5aa34>
 610:	63 2e 61 73 	call  8cb98bdc <__end+0x4cb96244>
 614:	6d 00 2f 6f 	call  b400c3d0 <__end+0x74009a38>
 618:	70 74 2f 62 	call  c1d0c3a0 <__end+0x81d09a08>
 61c:	75 69 6c 64 	call  d5a5b7ac <__end+0x95a58e14>
 620:	2d 62 63 63 	unknown
 624:	2f 62 63 63 	unknown
 628:	2f 67 63 63 	unknown
 62c:	2d 34 2e 34 	sethi  %hi(0xd0b8d000), %l6
 630:	2e 32 2d 31 	unknown
 634:	2e 30 2e 34 	unknown
 638:	35 67 63 63 	unknown
 63c:	2d 34 2e 34 	sethi  %hi(0xd0b8d000), %l6
 640:	2e 32 2d 62 	unknown
 644:	75 69 6c 64 	call  d5a5b7d4 <__end+0x95a58e3c>
 648:	2f 73 70 61 	unknown
 64c:	72 63 2d 65 	call  c98cbbe0 <__end+0x898c9248>
 650:	6c 66 2f 73 	call  b198c41c <__end+0x71989a84>
 654:	6f 66 74 2f 	call  bd99d710 <__end+0x7d99ad78>
 658:	6c 69 62 67 	call  b1a58ff4 <__end+0x71a5665c>
 65c:	63 63 00 47 	call  8d8c0778 <__end+0x4d8bdde0>
 660:	4e 55 20 41 	call  39548764 <_trap_table-0x6ab789c>
 664:	53 20 32 2e 	call  4c80cf1c <__end+0xc80a584>
 668:	31 39 2e 35 	sethi  %hi(0xe4b8d400), %i0
 66c:	31 00 80 01 	sethi  %hi(0x2000400), %i0
 670:	00 00 00 c1 	unimp  0xc1
 674:	00 02 00 00 	unimp  0x20000
 678:	02 0a 04 01 	unknown
 67c:	00 00 00 e6 	unimp  0xe6
 680:	01 00 00 01 	sethi  %hi(0x400), %g0
 684:	28 00 00 01 	unknown
 688:	5e 40 00 0c 	call  790006b8 <__end+0x38ffdd20>
 68c:	d0 40 00 0c 	unknown
 690:	d0 00 00 03 	ld  [ %g0 + %g3 ], %o0
 694:	b6 02 04 05 	unknown
 698:	69 6e 74 00 	call  a5b9d698 <__end+0x65b9ad00>
 69c:	03 04 07 00 	sethi  %hi(0x101c0000), %g1
 6a0:	00 00 71 03 	unimp  0x7103
 6a4:	04 05 00 00 	unknown
 6a8:	00 f7 03 01 	unknown
 6ac:	06 00 00 00 	unknown
 6b0:	e1 04 04 07 	ld  [ %l0 + %g7 ], %f16
 6b4:	03 08 05 00 	sethi  %hi(0x20140000), %g1
 6b8:	00 00 f2 03 	unimp  0xf203
 6bc:	01 08 00 00 	sethi  %hi(0x20000000), %g0
 6c0:	00 d8 03 04 	unknown
 6c4:	07 00 00 00 	sethi  %hi(0), %g3
 6c8:	6c 03 02 05 	call  b00c0edc <__end+0x700be544>
 6cc:	00 00 00 5d 	unimp  0x5d
 6d0:	03 02 07 00 	sethi  %hi(0x81c0000), %g1
 6d4:	00 00 08 03 	unimp  0x803
 6d8:	08 07 00 00 	unknown
 6dc:	00 67 03 01 	unknown
 6e0:	06 00 00 00 	unknown
 6e4:	da 05 00 00 	ld  [ %l4 ], %o5
 6e8:	01 a7 01 88 	fbn  ff9c0d08 <__end+0xbf9be370>
 6ec:	00 00 00 4b 	unimp  0x4b
 6f0:	03 04 04 00 	sethi  %hi(0x10100000), %g1
 6f4:	00 01 1a 03 	unimp  0x11a03
 6f8:	08 03 00 00 	unknown
 6fc:	01 12 03 08 	sethi  %hi(0x480c2000), %g0
 700:	04 00 00 01 	unknown
 704:	d8 03 10 03 	ld  [ %o4 + %g3 ], %o4
 708:	00 00 01 d0 	unimp  0x1d0
 70c:	06 00 00 00 	unknown
 710:	75 00 00 00 	call  d4000710 <__end+0x93ffdd78>
 714:	ac 07 00 00 	add  %i4, %g0, %l6
 718:	00 41 ff 00 	unknown
 71c:	08 00 00 01 	unknown
 720:	af 02 02 b5 	unknown
 724:	00 00 00 bf 	unimp  0xbf
 728:	01 05 03 40 	sethi  %hi(0x140d0000), %g0
 72c:	00 1d e0 09 	unimp  0x1de009
 730:	00 00 00 9c 	unimp  0x9c
 734:	00 00 00 01 	unimp  0x1
 738:	7b 00 02 00 	call  ec000f38 <__end+0xabffe5a0>
 73c:	00 02 74 04 	unimp  0x27404
 740:	01 00 00 00 	nop 
 744:	e6 01 00 00 	ld  [ %g4 ], %l3
 748:	01 28 00 00 	sethi  %hi(0xa0000000), %g0
 74c:	01 5e 40 00 	unknown
 750:	0d 24 40 00 	sethi  %hi(0x91000000), %g6
 754:	0d f0 00 00 	cb2  ffc00754 <__end+0xbfbfddbc>
 758:	04 11 02 04 	unknown
 75c:	05 69 6e 74 	unknown
 760:	00 03 04 07 	unimp  0x30407
 764:	00 00 00 71 	unimp  0x71
 768:	03 04 05 00 	sethi  %hi(0x10140000), %g1
 76c:	00 00 f7 03 	unimp  0xf703
 770:	01 06 00 00 	sethi  %hi(0x18000000), %g0
 774:	00 e1 04 04 	unknown
 778:	07 03 08 05 	sethi  %hi(0xc201400), %g3
 77c:	00 00 00 f2 	unimp  0xf2
 780:	03 01 08 00 	sethi  %hi(0x4200000), %g1
 784:	00 00 d8 03 	unimp  0xd803
 788:	04 07 00 00 	unknown
 78c:	00 6c 03 02 	unknown
 790:	05 00 00 00 	sethi  %hi(0), %g2
 794:	5d 03 02 07 	call  740c0fb0 <__end+0x340be618>
 798:	00 00 00 08 	unimp  0x8
 79c:	03 08 07 00 	sethi  %hi(0x201c0000), %g1
 7a0:	00 00 67 03 	unimp  0x6703
 7a4:	01 06 00 00 	sethi  %hi(0x18000000), %g0
 7a8:	00 da 05 00 	unknown
 7ac:	00 01 21 02 	unimp  0x12102
 7b0:	8d 00 00 00 	taddcc  %g0, %g0, %g6
 7b4:	25 05 00 00 	sethi  %hi(0x14000000), %l2
 7b8:	01 ba 02 91 	fbn  ffe811fc <__end+0xbfe7e864>
 7bc:	00 00 00 44 	unimp  0x44
 7c0:	03 04 04 00 	sethi  %hi(0x10100000), %g1
 7c4:	00 01 1a 03 	unimp  0x11a03
 7c8:	08 03 00 00 	unknown
 7cc:	01 12 03 08 	sethi  %hi(0x480c2000), %g0
 7d0:	04 00 00 01 	unknown
 7d4:	d8 03 10 03 	ld  [ %o4 + %g3 ], %o4
 7d8:	00 00 01 d0 	unimp  0x1d0
 7dc:	06 00 00 01 	unknown
 7e0:	df 08 02 01 	unknown
 7e4:	a0 00 00 00 	add  %g0, %g0, %l0
 7e8:	d3 07 00 00 	ld  [ %i4 ], %f9
 7ec:	01 00 02 01 	sethi  %hi(0x80400), %g0
 7f0:	a0 00 00 00 	add  %g0, %g0, %l0
 7f4:	75 02 23 00 	call  d40893f4 <__end+0x94086a5c>
 7f8:	08 6c 6f 77 	unknown
 7fc:	00 02 01 a0 	unimp  0x201a0
 800:	00 00 00 75 	unimp  0x75
 804:	02 23 04 00 	unknown
 808:	09 08 02 01 	sethi  %hi(0x20080400), %g4
 80c:	aa 00 00 00 	add  %g0, %g0, %l5
 810:	f2 0a 73 00 	ldub  [ %o1 + -3328 ], %i1
 814:	02 01 ab 00 	unknown
 818:	00 00 a7 0a 	unimp  0xa70a
 81c:	6c 6c 00 02 	call  b1b00824 <__end+0x71afde8c>
 820:	01 ac 00 00 	fbn  ffb00820 <__end+0xbfafde88>
 824:	00 80 00 0b 	bn  850 <_trap_table-0x3ffff7b0>
 828:	00 00 01 56 	unimp  0x156
 82c:	02 01 ad 00 	unknown
 830:	00 00 d3 0c 	unimp  0xd30c
 834:	01 00 00 01 	sethi  %hi(0x400), %g0
 838:	e8 01 02 28 	ld  [ %g4 + %o0 ], %l4
 83c:	01 00 00 00 	nop 
 840:	80 40 00 0d 	addx  %g0, %o5, %g0
 844:	24 40 00 0d 	unknown
 848:	f0 00 00 01 	ld  [ %g0 + %g1 ], %i0
 84c:	e9 00 00 01 	ld  [ %g0 + %g1 ], %f20
 850:	79 0d 75 00 	call  e435dc50 <__end+0xa435b2b8>
 854:	01 02 28 00 	sethi  %hi(0x8a00000), %g0
 858:	00 00 80 00 	unimp  0x8000
 85c:	00 02 07 0e 	unimp  0x2070e
 860:	76 00 01 02 	call  d8000c68 <__end+0x97ffe2d0>
 864:	28 00 00 00 	unknown
 868:	80 06 6a 93 	add  %i1, 0xa93, %g0
 86c:	04 6b 93 04 	unknown
 870:	0f 75 75 00 	unknown
 874:	01 02 2a 00 	sethi  %hi(0x8a80000), %g0
 878:	00 01 79 0f 	unimp  0x1790f
 87c:	76 76 00 01 	call  d9d80880 <__end+0x99d7dee8>
 880:	02 2b 00 00 	unknown
 884:	01 79 10 77 	unknown
 888:	00 01 02 2c 	unimp  0x1022c
 88c:	00 00 00 f2 	unimp  0xf2
 890:	06 60 93 04 	unknown
 894:	69 93 04 11 	call  a64c18d8 <__end+0x664bef40>
 898:	40 00 0d 28 	call  3d38 <_trap_table-0x3fffc2c8>
 89c:	40 00 0d c4 	call  3fac <_trap_table-0x3fffc054>
 8a0:	0f 5f 5f 77 	unknown
 8a4:	00 01 02 2c 	unimp  0x1022c
 8a8:	00 00 00 f2 	unimp  0xf2
 8ac:	00 00 12 00 	unimp  0x1200
 8b0:	00 00 f2 00 	unimp  0xf200
 8b4:	00 00 00 aa 	unimp  0xaa
 8b8:	00 02 00 00 	unimp  0x20000
 8bc:	03 6b 04 01 	unknown
 8c0:	00 00 04 82 	unimp  0x482
 8c4:	40 00 0d f0 	call  4084 <_trap_table-0x3fffbf7c>
 8c8:	40 00 0e d8 	call  4428 <_trap_table-0x3fffbbd8>
 8cc:	2e 2e 2f 2e 	unknown
 8d0:	2e 2f 2e 2e 	unknown
 8d4:	2f 2e 2e 2f 	sethi  %hi(0xb8b8bc00), %l7
 8d8:	67 63 63 2d 	call  9d8d958c <__end+0x5d8d6bf4>
 8dc:	34 2e 34 2e 	unknown
 8e0:	32 2f 6c 69 	unknown
 8e4:	62 67 63 63 	call  899d9670 <__end+0x499d6cd8>
 8e8:	2f 2e 2e 2f 	sethi  %hi(0xb8b8bc00), %l7
 8ec:	67 63 63 2f 	call  9d8d95a8 <__end+0x5d8d6c10>
 8f0:	63 6f 6e 66 	call  8dbdc288 <__end+0x4dbd98f0>
 8f4:	69 67 2f 73 	call  a59cc6c0 <__end+0x659c9d28>
 8f8:	70 61 72 63 	call  c185d284 <__end+0x8185a8ec>
 8fc:	2f 6c 62 31 	unknown
 900:	73 70 63 2e 	call  cdc195b8 <__end+0x8dc16c20>
 904:	61 73 6d 00 	call  85cdbd04 <__end+0x45cd936c>
 908:	2f 6f 70 74 	unknown
 90c:	2f 62 75 69 	unknown
 910:	6c 64 2d 62 	call  b190be98 <__end+0x71909500>
 914:	63 63 2f 62 	call  8d8cc69c <__end+0x4d8c9d04>
 918:	63 63 2f 67 	call  8d8cc6b4 <__end+0x4d8c9d1c>
 91c:	63 63 2d 34 	call  8d8cbdec <__end+0x4d8c9454>
 920:	2e 34 2e 32 	unknown
 924:	2d 31 2e 30 	sethi  %hi(0xc4b8c000), %l6
 928:	2e 34 35 67 	unknown
 92c:	63 63 2d 34 	call  8d8cbdfc <__end+0x4d8c9464>
 930:	2e 34 2e 32 	unknown
 934:	2d 62 75 69 	unknown
 938:	6c 64 2f 73 	call  b190c704 <__end+0x71909d6c>
 93c:	70 61 72 63 	call  c185d2c8 <__end+0x8185a930>
 940:	2d 65 6c 66 	unknown
 944:	2f 73 6f 66 	unknown
 948:	74 2f 6c 69 	call  d0bdbaec <__end+0x90bd9154>
 94c:	62 67 63 63 	call  899d96d8 <__end+0x499d6d40>
 950:	00 47 4e 55 	unknown
 954:	20 41 53 20 	unknown
 958:	32 2e 31 39 	unknown
 95c:	2e 35 31 00 	unknown
 960:	80 01 00 00 	add  %g4, %g0, %g0
 964:	00 5f 00 02 	unknown
 968:	00 00 03 7f 	unimp  0x37f
 96c:	04 01 00 00 	unknown
 970:	05 26 00 00 	sethi  %hi(0x98000000), %g2
 974:	00 c8 63 72 	unknown
 978:	74 6e 2e 73 	call  d1b8c344 <__end+0x91b899ac>
 97c:	00 2f 6f 70 	unimp  0xffef6f70
 980:	74 2f 62 75 	call  d0bd9354 <__end+0x90bd69bc>
 984:	69 6c 64 2d 	call  a5b19a38 <__end+0x65b170a0>
 988:	62 63 63 2f 	call  898d9644 <__end+0x498d6cac>
 98c:	62 63 63 2f 	call  898d9648 <__end+0x498d6cb0>
 990:	67 63 63 2d 	call  9d8d9644 <__end+0x5d8d6cac>
 994:	34 2e 34 2e 	unknown
 998:	32 2d 31 2e 	unknown
 99c:	30 2e 34 35 	unknown
 9a0:	67 63 63 2d 	call  9d8d9654 <__end+0x5d8d6cbc>
 9a4:	34 2e 34 2e 	unknown
 9a8:	32 2d 62 75 	unknown
 9ac:	69 6c 64 2f 	call  a5b19a68 <__end+0x65b170d0>
 9b0:	67 63 63 00 	call  9d8d95b0 <__end+0x5d8d6c18>
 9b4:	47 4e 55 20 	call  1d395e34 <_trap_table-0x22c6a1cc>
 9b8:	41 53 20 32 	call  54c8a80 <_trap_table-0x3ab37580>
 9bc:	2e 31 39 2e 	unknown
 9c0:	35 31 00 80 	sethi  %hi(0xc4020000), %i2
 9c4:	Address 0x000009c4 is out of bounds.


Disassembly of section .debug_abbrev:

00000000 <.debug_abbrev>:
   0:	01 11 00 10 	sethi  %hi(0x44004000), %g0
   4:	06 11 01 12 	unknown
   8:	01 03 08 1b 	sethi  %hi(0xc206c00), %g0
   c:	08 25 08 13 	unknown
  10:	05 00 00 00 	sethi  %hi(0), %g2
  14:	01 11 00 10 	sethi  %hi(0x44004000), %g0
  18:	06 11 01 12 	unknown
  1c:	01 03 08 1b 	sethi  %hi(0xc206c00), %g0
  20:	08 25 08 13 	unknown
  24:	05 00 00 00 	sethi  %hi(0), %g2
  28:	01 11 00 10 	sethi  %hi(0x44004000), %g0
  2c:	06 55 06 03 	unknown
  30:	08 1b 08 25 	unknown
  34:	08 13 05 00 	unknown
  38:	00 00 01 11 	unimp  0x111
  3c:	01 25 0e 13 	sethi  %hi(0x94384c00), %g0
  40:	0b 03 0e 1b 	sethi  %hi(0xc386c00), %g5
  44:	0e 11 01 12 	unknown
  48:	01 10 06 00 	sethi  %hi(0x40180000), %g0
  4c:	00 02 24 00 	unimp  0x22400
  50:	0b 0b 3e 0b 	sethi  %hi(0x2cf82c00), %g5
  54:	03 0e 00 00 	sethi  %hi(0x38000000), %g1
  58:	03 24 00 0b 	sethi  %hi(0x90002c00), %g1
  5c:	0b 3e 0b 00 	sethi  %hi(0xf82c0000), %g5
  60:	00 04 24 00 	unimp  0x42400
  64:	0b 0b 3e 0b 	sethi  %hi(0x2cf82c00), %g5
  68:	03 08 00 00 	sethi  %hi(0x20000000), %g1
  6c:	05 2e 00 3f 	sethi  %hi(0xb800fc00), %g2
  70:	0c 03 0e 3a 	unknown
  74:	0b 3b 0b 27 	sethi  %hi(0xec2c9c00), %g5
  78:	0c 11 01 12 	unknown
  7c:	01 40 0a 00 	unknown
  80:	00 00 01 11 	unimp  0x111
  84:	01 25 0e 13 	sethi  %hi(0x94384c00), %g0
  88:	0b 03 0e 1b 	sethi  %hi(0xc386c00), %g5
  8c:	0e 11 01 12 	unknown
  90:	01 10 06 00 	sethi  %hi(0x40180000), %g0
  94:	00 02 24 00 	unimp  0x22400
  98:	0b 0b 3e 0b 	sethi  %hi(0x2cf82c00), %g5
  9c:	03 08 00 00 	sethi  %hi(0x20000000), %g1
  a0:	03 24 00 0b 	sethi  %hi(0x90002c00), %g1
  a4:	0b 3e 0b 03 	sethi  %hi(0xf82c0c00), %g5
  a8:	0e 00 00 04 	unknown
  ac:	24 00 0b 0b 	unknown
  b0:	3e 0b 00 00 	unknown
  b4:	05 16 00 03 	sethi  %hi(0x58000c00), %g2
  b8:	0e 3a 0b 3b 	unknown
  bc:	0b 49 13 00 	unknown
  c0:	00 06 13 01 	unimp  0x61301
  c4:	03 0e 0b 0b 	sethi  %hi(0x382c2c00), %g1
  c8:	3a 0b 3b 05 	unknown
  cc:	01 13 00 00 	sethi  %hi(0x4c000000), %g0
  d0:	07 0d 00 03 	sethi  %hi(0x34000c00), %g3
  d4:	0e 3a 0b 3b 	unknown
  d8:	05 49 13 38 	unknown
  dc:	0a 00 00 08 	unknown
  e0:	0d 00 03 08 	sethi  %hi(0xc2000), %g6
  e4:	3a 0b 3b 05 	unknown
  e8:	49 13 38 0a 	call  244ce110 <_trap_table-0x1bb31ef0>
  ec:	00 00 09 17 	unimp  0x917
  f0:	01 0b 0b 3a 	sethi  %hi(0x2c2ce800), %g0
  f4:	0b 3b 05 01 	sethi  %hi(0xec140400), %g5
  f8:	13 00 00 0a 	sethi  %hi(0x2800), %o1
  fc:	0d 00 03 08 	sethi  %hi(0xc2000), %g6
 100:	3a 0b 3b 05 	unknown
 104:	49 13 00 00 	call  244c0104 <_trap_table-0x1bb3fefc>
 108:	0b 16 00 03 	sethi  %hi(0x58000c00), %g5
 10c:	0e 3a 0b 3b 	unknown
 110:	05 49 13 00 	unknown
 114:	00 0c 2e 01 	unimp  0xc2e01
 118:	03 0e 3a 0b 	sethi  %hi(0x38e82c00), %g1
 11c:	3b 05 27 0c 	sethi  %hi(0x149c3000), %i5
 120:	49 13 20 0b 	call  244c814c <_trap_table-0x1bb37eb4>
 124:	01 13 00 00 	sethi  %hi(0x4c000000), %g0
 128:	0d 05 00 03 	sethi  %hi(0x14000c00), %g6
 12c:	08 3a 0b 3b 	unknown
 130:	05 49 13 00 	unknown
 134:	00 0e 34 00 	unimp  0xe3400
 138:	03 08 3a 0b 	sethi  %hi(0x20e82c00), %g1
 13c:	3b 05 49 13 	sethi  %hi(0x15244c00), %i5
 140:	00 00 0f 0b 	unimp  0xf0b
 144:	01 01 13 00 	sethi  %hi(0x44c0000), %g0
 148:	00 10 34 00 	unimp  0x103400
 14c:	03 0e 3a 0b 	sethi  %hi(0x38e82c00), %g1
 150:	3b 05 49 13 	sethi  %hi(0x15244c00), %i5
 154:	00 00 11 0b 	unimp  0x110b
 158:	01 00 00 12 	sethi  %hi(0x4800), %g0
 15c:	0f 00 0b 0b 	sethi  %hi(0x2c2c00), %g7
 160:	49 13 00 00 	call  244c0160 <_trap_table-0x1bb3fea0>
 164:	13 26 00 49 	sethi  %hi(0x98012400), %o1
 168:	13 00 00 14 	sethi  %hi(0x5000), %o1
 16c:	2e 01 3f 0c 	unknown
 170:	03 0e 3a 0b 	sethi  %hi(0x38e82c00), %g1
 174:	3b 05 27 0c 	sethi  %hi(0x149c3000), %i5
 178:	49 13 11 01 	call  244c457c <_trap_table-0x1bb3ba84>
 17c:	12 01 40 06 	unknown
 180:	01 13 00 00 	sethi  %hi(0x4c000000), %g0
 184:	15 05 00 03 	sethi  %hi(0x14000c00), %o2
 188:	08 3a 0b 3b 	unknown
 18c:	05 49 13 02 	unknown
 190:	06 00 00 16 	unknown
 194:	1d 01 31 13 	sethi  %hi(0x4c44c00), %sp
 198:	52 01 55 06 	call  480555b0 <__end+0x8052c18>
 19c:	58 0b 59 05 	call  602d65b0 <__end+0x202d3c18>
 1a0:	00 00 17 05 	unimp  0x1705
 1a4:	00 31 13 00 	unimp  0xfff11300
 1a8:	00 18 0b 01 	unimp  0x180b01
 1ac:	55 06 00 00 	call  541801ac <__end+0x1417d814>
 1b0:	19 34 00 31 	sethi  %hi(0xd000c400), %o4
 1b4:	13 00 00 1a 	sethi  %hi(0x6800), %o1
 1b8:	34 00 31 13 	unknown
 1bc:	02 06 00 00 	unknown
 1c0:	1b 34 00 31 	sethi  %hi(0xd000c400), %o5
 1c4:	13 02 0a 00 	sethi  %hi(0x8280000), %o1
 1c8:	00 1c 0b 01 	unimp  0x1c0b01
 1cc:	55 06 01 13 	call  54180618 <__end+0x1417dc80>
 1d0:	00 00 1d 01 	unimp  0x1d01
 1d4:	01 49 13 01 	unknown
 1d8:	13 00 00 1e 	sethi  %hi(0x7800), %o1
 1dc:	21 00 49 13 	sethi  %hi(0x1244c00), %l0
 1e0:	2f 0b 00 00 	sethi  %hi(0x2c000000), %l7
 1e4:	1f 34 00 03 	sethi  %hi(0xd0000c00), %o7
 1e8:	0e 3a 0b 3b 	unknown
 1ec:	0b 49 13 3f 	unknown
 1f0:	0c 3c 0c 00 	unknown
 1f4:	00 00 01 11 	unimp  0x111
 1f8:	00 10 06 11 	unimp  0x100611
 1fc:	01 12 01 03 	sethi  %hi(0x48040c00), %g0
 200:	08 1b 08 25 	unknown
 204:	08 13 05 00 	unknown
 208:	00 00 01 11 	unimp  0x111
 20c:	01 25 0e 13 	sethi  %hi(0x94384c00), %g0
 210:	0b 03 0e 1b 	sethi  %hi(0xc386c00), %g5
 214:	0e 11 01 12 	unknown
 218:	01 10 06 00 	sethi  %hi(0x40180000), %g0
 21c:	00 02 24 00 	unimp  0x22400
 220:	0b 0b 3e 0b 	sethi  %hi(0x2cf82c00), %g5
 224:	03 08 00 00 	sethi  %hi(0x20000000), %g1
 228:	03 24 00 0b 	sethi  %hi(0x90002c00), %g1
 22c:	0b 3e 0b 03 	sethi  %hi(0xf82c0c00), %g5
 230:	0e 00 00 04 	unknown
 234:	24 00 0b 0b 	unknown
 238:	3e 0b 00 00 	unknown
 23c:	05 16 00 03 	sethi  %hi(0x58000c00), %g2
 240:	0e 3a 0b 3b 	unknown
 244:	0b 49 13 00 	unknown
 248:	00 06 01 01 	unimp  0x60101
 24c:	49 13 01 13 	call  244c0698 <_trap_table-0x1bb3f968>
 250:	00 00 07 21 	unimp  0x721
 254:	00 49 13 2f 	unknown
 258:	0b 00 00 08 	sethi  %hi(0x2000), %g5
 25c:	34 00 03 0e 	unknown
 260:	3a 0b 3b 05 	unknown
 264:	49 13 3f 0c 	call  244cfe94 <_trap_table-0x1bb3016c>
 268:	02 0a 00 00 	unknown
 26c:	09 26 00 49 	sethi  %hi(0x98012400), %g4
 270:	13 00 00 00 	sethi  %hi(0), %o1
 274:	01 11 01 25 	sethi  %hi(0x44049400), %g0
 278:	0e 13 0b 03 	unknown
 27c:	0e 1b 0e 11 	unknown
 280:	01 12 01 10 	sethi  %hi(0x48044000), %g0
 284:	06 00 00 02 	unknown
 288:	24 00 0b 0b 	unknown
 28c:	3e 0b 03 08 	unknown
 290:	00 00 03 24 	unimp  0x324
 294:	00 0b 0b 3e 	unimp  0xb0b3e
 298:	0b 03 0e 00 	sethi  %hi(0xc380000), %g5
 29c:	00 04 24 00 	unimp  0x42400
 2a0:	0b 0b 3e 0b 	sethi  %hi(0x2cf82c00), %g5
 2a4:	00 00 05 16 	unimp  0x516
 2a8:	00 03 0e 3a 	unimp  0x30e3a
 2ac:	0b 3b 0b 49 	sethi  %hi(0xec2d2400), %g5
 2b0:	13 00 00 06 	sethi  %hi(0x1800), %o1
 2b4:	13 01 03 0e 	sethi  %hi(0x40c3800), %o1
 2b8:	0b 0b 3a 0b 	sethi  %hi(0x2ce82c00), %g5
 2bc:	3b 05 01 13 	sethi  %hi(0x14044c00), %i5
 2c0:	00 00 07 0d 	unimp  0x70d
 2c4:	00 03 0e 3a 	unimp  0x30e3a
 2c8:	0b 3b 05 49 	sethi  %hi(0xec152400), %g5
 2cc:	13 38 0a 00 	sethi  %hi(0xe0280000), %o1
 2d0:	00 08 0d 00 	unimp  0x80d00
 2d4:	03 08 3a 0b 	sethi  %hi(0x20e82c00), %g1
 2d8:	3b 05 49 13 	sethi  %hi(0x15244c00), %i5
 2dc:	38 0a 00 00 	unknown
 2e0:	09 17 01 0b 	sethi  %hi(0x5c042c00), %g4
 2e4:	0b 3a 0b 3b 	sethi  %hi(0xe82cec00), %g5
 2e8:	05 01 13 00 	sethi  %hi(0x44c0000), %g2
 2ec:	00 0a 0d 00 	unimp  0xa0d00
 2f0:	03 08 3a 0b 	sethi  %hi(0x20e82c00), %g1
 2f4:	3b 05 49 13 	sethi  %hi(0x15244c00), %i5
 2f8:	00 00 0b 16 	unimp  0xb16
 2fc:	00 03 0e 3a 	unimp  0x30e3a
 300:	0b 3b 05 49 	sethi  %hi(0xec152400), %g5
 304:	13 00 00 0c 	sethi  %hi(0x3000), %o1
 308:	2e 01 3f 0c 	unknown
 30c:	03 0e 3a 0b 	sethi  %hi(0x38e82c00), %g1
 310:	3b 05 27 0c 	sethi  %hi(0x149c3000), %i5
 314:	49 13 11 01 	call  244c4718 <_trap_table-0x1bb3b8e8>
 318:	12 01 40 06 	unknown
 31c:	01 13 00 00 	sethi  %hi(0x4c000000), %g0
 320:	0d 05 00 03 	sethi  %hi(0x14000c00), %g6
 324:	08 3a 0b 3b 	unknown
 328:	05 49 13 02 	unknown
 32c:	06 00 00 0e 	unknown
 330:	05 00 03 08 	sethi  %hi(0xc2000), %g2
 334:	3a 0b 3b 05 	unknown
 338:	49 13 02 0a 	call  244c0b60 <_trap_table-0x1bb3f4a0>
 33c:	00 00 0f 34 	unimp  0xf34
 340:	00 03 08 3a 	unimp  0x3083a
 344:	0b 3b 05 49 	sethi  %hi(0xec152400), %g5
 348:	13 00 00 10 	sethi  %hi(0x4000), %o1
 34c:	34 00 03 08 	unknown
 350:	3a 0b 3b 05 	unknown
 354:	49 13 02 0a 	call  244c0b7c <_trap_table-0x1bb3f484>
 358:	00 00 11 0b 	unimp  0x110b
 35c:	01 11 01 12 	sethi  %hi(0x44044800), %g0
 360:	01 00 00 12 	sethi  %hi(0x4800), %g0
 364:	26 00 49 13 	unknown
 368:	00 00 00 01 	unimp  0x1
 36c:	11 00 10 06 	sethi  %hi(0x401800), %o0
 370:	11 01 12 01 	sethi  %hi(0x4480400), %o0
 374:	03 08 1b 08 	sethi  %hi(0x206c2000), %g1
 378:	25 08 13 05 	sethi  %hi(0x204c1400), %l2
 37c:	00 00 00 01 	unimp  0x1
 380:	11 00 10 06 	sethi  %hi(0x401800), %o0
 384:	55 06 03 08 	call  54180fa4 <__end+0x1417e60c>
 388:	1b 08 25 08 	sethi  %hi(0x20942000), %o5
 38c:	13 05 00 00 	sethi  %hi(0x14000000), %o1
	...

Disassembly of section .debug_line:

00000000 <.debug_line>:
   0:	00 00 00 6b 	unimp  0x6b
   4:	00 02 00 00 	unimp  0x20000
   8:	00 54 04 01 	unknown
   c:	fb 0e 0d 00 	unknown
  10:	01 01 01 01 	sethi  %hi(0x4040400), %g0
  14:	00 00 00 01 	unimp  0x1
  18:	00 00 01 2e 	unimp  0x12e
  1c:	2e 2f 2e 2e 	unknown
  20:	2f 2e 2e 2f 	sethi  %hi(0xb8b8bc00), %l7
  24:	2e 2e 2f 2e 	unknown
  28:	2e 2f 6e 65 	unknown
  2c:	77 6c 69 62 	call  ddb1a5b4 <__end+0x9db17c1c>
  30:	2d 31 2e 31 	sethi  %hi(0xc4b8c400), %l6
  34:	33 2e 30 2f 	sethi  %hi(0xb8c0bc00), %i1
  38:	6c 69 62 67 	call  b1a589d4 <__end+0x71a5603c>
  3c:	6c 6f 73 73 	call  b1bdce08 <__end+0x71bda470>
  40:	2f 73 70 61 	unknown
  44:	72 63 5f 6c 	call  c98d7df4 <__end+0x898d545c>
  48:	65 6f 6e 00 	call  95bdb848 <__end+0x55bd8eb0>
  4c:	00 6c 6f 63 	unknown
  50:	6f 72 65 5f 	call  bdc995cc <__end+0x7dc96c34>
  54:	73 76 74 2e 	call  cdd9d10c <__end+0x8dd9a774>
  58:	53 00 01 00 	call  4c000458 <__end+0xbffdac0>
  5c:	00 00 00 05 	unimp  0x5
  60:	02 40 00 00 	unknown
  64:	00 03 28 01 	unimp  0x32801
  68:	21 21 02 01 	sethi  %hi(0x84080400), %l0
  6c:	00 01 01 00 	unimp  0x10100
  70:	00 00 7f 00 	unimp  0x7f00
  74:	02 00 00 00 	unknown
  78:	4e 04 01 fb 	call  38100864 <_trap_table-0x7eff79c>
  7c:	0e 0d 00 01 	unknown
  80:	01 01 01 00 	sethi  %hi(0x4040000), %g0
  84:	00 00 01 00 	unimp  0x100
  88:	00 01 2e 2e 	unimp  0x12e2e
  8c:	2f 2e 2e 2f 	sethi  %hi(0xb8b8bc00), %l7
  90:	2e 2e 2f 2e 	unknown
  94:	2e 2f 2e 2e 	unknown
  98:	2f 6e 65 77 	unknown
  9c:	6c 69 62 2d 	call  b1a58950 <__end+0x71a55fb8>
  a0:	31 2e 31 33 	sethi  %hi(0xb8c4cc00), %i0
  a4:	2e 30 2f 6c 	unknown
  a8:	69 62 67 6c 	call  a5899e58 <__end+0x658974c0>
  ac:	6f 73 73 2f 	call  bdcdcd68 <__end+0x7dcda3d0>
  b0:	73 70 61 72 	call  cdc18678 <__end+0x8dc15ce0>
  b4:	63 5f 6c 65 	call  8d7db248 <__end+0x4d7d88b0>
  b8:	6f 6e 00 00 	call  bdb800b8 <__end+0x7db7d720>
  bc:	63 72 74 30 	call  8dc9d17c <__end+0x4dc9a7e4>
  c0:	2e 53 00 01 	unknown
  c4:	00 00 00 00 	unimp  0
  c8:	05 02 40 00 	sethi  %hi(0x9000000), %g2
  cc:	00 0c 03 1c 	unimp  0xc031c
  d0:	01 27 21 21 	sethi  %hi(0x9c848400), %g0
  d4:	21 21 21 22 	sethi  %hi(0x84848800), %l0
  d8:	21 21 22 2f 	sethi  %hi(0x8488bc00), %l0
  dc:	22 21 22 21 	unknown
  e0:	22 21 22 2f 	unknown
  e4:	21 22 21 22 	sethi  %hi(0x88848800), %l0
  e8:	21 21 21 22 	sethi  %hi(0x84848800), %l0
  ec:	21 02 01 00 	sethi  %hi(0x8040000), %l0
  f0:	01 01 00 00 	sethi  %hi(0x4000000), %g0
  f4:	00 6a 00 02 	unknown
  f8:	00 00 00 46 	unimp  0x46
  fc:	04 01 fb 0e 	unknown
 100:	0d 00 01 01 	sethi  %hi(0x40400), %g6
 104:	01 01 00 00 	sethi  %hi(0x4000000), %g0
 108:	00 01 00 00 	unimp  0x10000
 10c:	01 2e 2e 2f 	sethi  %hi(0xb8b8bc00), %g0
 110:	2e 2e 2f 67 	unknown
 114:	63 63 2d 34 	call  8d8cb5e4 <__end+0x4d8c8c4c>
 118:	2e 34 2e 32 	unknown
 11c:	2f 67 63 63 	unknown
 120:	2f 63 6f 6e 	unknown
 124:	66 69 67 2f 	call  99a59de0 <__end+0x59a57448>
 128:	73 70 61 72 	call  cdc186f0 <__end+0x8dc15d58>
 12c:	63 00 00 73 	call  8c0002f8 <__end+0x4bffd960>
 130:	70 61 72 63 	call  c185cabc <__end+0x8185a124>
 134:	6c 65 6f 6e 	call  b195beec <__end+0x71959554>
 138:	2d 63 69 2e 	unknown
 13c:	53 00 01 00 	call  4c00053c <__end+0xbffdba4>
 140:	00 00 00 05 	unimp  0x5
 144:	02 40 00 20 	unknown
 148:	40 03 30 01 	call  cc14c <_trap_table-0x3ff33eb4>
 14c:	02 01 00 01 	unknown
 150:	01 00 05 02 	sethi  %hi(0x140800), %g0
 154:	40 00 20 5c 	call  82c4 <_trap_table-0x3fff7d3c>
 158:	03 3c 01 02 	sethi  %hi(0xf0040800), %g1
 15c:	01 00 01 01 	sethi  %hi(0x40400), %g0
 160:	00 00 00 6c 	unimp  0x6c
 164:	00 02 00 00 	unimp  0x20000
 168:	00 58 04 01 	unknown
 16c:	fb 0e 0d 00 	unknown
 170:	01 01 01 01 	sethi  %hi(0x4040400), %g0
 174:	00 00 00 01 	unimp  0x1
 178:	00 00 01 2e 	unimp  0x12e
 17c:	2e 2f 2e 2e 	unknown
 180:	2f 2e 2e 2f 	sethi  %hi(0xb8b8bc00), %l7
 184:	2e 2e 2f 2e 	unknown
 188:	2e 2f 6e 65 	unknown
 18c:	77 6c 69 62 	call  ddb1a714 <__end+0x9db17d7c>
 190:	2d 31 2e 31 	sethi  %hi(0xc4b8c400), %l6
 194:	33 2e 30 2f 	sethi  %hi(0xb8c0bc00), %i1
 198:	6c 69 62 67 	call  b1a58b34 <__end+0x71a5619c>
 19c:	6c 6f 73 73 	call  b1bdcf68 <__end+0x71bda5d0>
 1a0:	2f 73 70 61 	unknown
 1a4:	72 63 5f 6c 	call  c98d7f54 <__end+0x898d55bc>
 1a8:	65 6f 6e 00 	call  95bdb9a8 <__end+0x55bd9010>
 1ac:	00 70 6e 70 	unknown
 1b0:	69 6e 69 74 	call  a5b9a780 <__end+0x65b97de8>
 1b4:	5f 73 69 6d 	call  7dcda768 <__end+0x3dcd7dd0>
 1b8:	70 6c 65 2e 	call  c1b19670 <__end+0x81b16cd8>
 1bc:	63 00 01 00 	call  8c0005bc <__end+0x4bffdc24>
 1c0:	00 00 00 05 	unimp  0x5
 1c4:	02 40 00 01 	unknown
 1c8:	a4 17 13 02 	unknown
 1cc:	02 00 01 01 	unknown
 1d0:	00 00 00 c9 	unimp  0xc9
 1d4:	00 02 00 00 	unimp  0x20000
 1d8:	00 5f 04 01 	unknown
 1dc:	fb 0e 0d 00 	unknown
 1e0:	01 01 01 01 	sethi  %hi(0x4040400), %g0
 1e4:	00 00 00 01 	unimp  0x1
 1e8:	00 00 01 2e 	unimp  0x12e
 1ec:	2e 2f 2e 2e 	unknown
 1f0:	2f 2e 2e 2f 	sethi  %hi(0xb8b8bc00), %l7
 1f4:	2e 2e 2f 67 	unknown
 1f8:	63 63 2d 34 	call  8d8cb6c8 <__end+0x4d8c8d30>
 1fc:	2e 34 2e 32 	unknown
 200:	2f 6c 69 62 	unknown
 204:	67 63 63 2f 	call  9d8d8ec0 <__end+0x5d8d6528>
 208:	2e 2e 2f 67 	unknown
 20c:	63 63 00 00 	call  8d8c020c <__end+0x4d8bd874>
 210:	6c 69 62 67 	call  b1a58bac <__end+0x71a56214>
 214:	63 63 32 2e 	call  8d8ccacc <__end+0x4d8ca134>
 218:	63 00 01 00 	call  8c000618 <__end+0x4bffdc80>
 21c:	00 6c 69 62 	unknown
 220:	67 63 63 32 	call  9d8d8ee8 <__end+0x5d8d6550>
 224:	2e 68 00 01 	unknown
 228:	00 00 6c 6f 	unimp  0x6c6f
 22c:	6e 67 6c 6f 	call  b99db3e8 <__end+0x799d8a50>
 230:	6e 67 2e 68 	call  b99cbbd0 <__end+0x799c9238>
 234:	00 01 00 00 	unimp  0x10000
 238:	00 00 05 02 	unimp  0x502
 23c:	40 00 06 dc 	call  1dac <_trap_table-0x3fffe254>
 240:	03 f2 08 01 	cb123  ffc82244 <__end+0xbfc7f8ac>
 244:	03 fc 7d 20 	cb123  fff1f6c4 <__end+0xbff1cd2c>
 248:	3e 03 0d 3c 	unknown
 24c:	2f 3e 08 59 	sethi  %hi(0xf8216400), %l7
 250:	03 f3 01 08 	cb123  ffcc0670 <__end+0xbfcbdcd8>
 254:	4a 03 e8 7e 	call  280fa44c <_trap_table-0x17f05bb4>
 258:	2e 03 13 3c 	unknown
 25c:	08 2f 03 0a 	unknown
 260:	3c 03 24 66 	unknown
 264:	03 d6 00 2e 	cb123  58031c <_trap_table-0x3fa7fce4>
 268:	03 80 7e 2e 	fbne  1fb20 <_trap_table-0x3ffe04e0>
 26c:	03 80 02 08 	fbne  a8c <_trap_table-0x3ffff574>
 270:	58 03 fb 7e 	call  600ff068 <__end+0x200fc6d0>
 274:	2e 03 0e 66 	unknown
 278:	03 f7 00 20 	cb123  ffdc02f8 <__end+0xbfdbd960>
 27c:	03 a1 7f 2e 	fbne  ff85ff34 <__end+0xbf85d59c>
 280:	1e 22 1d 22 	unknown
 284:	1e 34 08 4b 	unknown
 288:	02 27 14 03 	unknown
 28c:	d9 00 90 03 	ld  [ %g2 + %g3 ], %f12
 290:	a7 7f 2e 31 	unknown
 294:	03 d6 00 2e 	cb123  58034c <_trap_table-0x3fa7fcb4>
 298:	02 02 00 01 	unknown
 29c:	01 00 00 01 	sethi  %hi(0x400), %g0
 2a0:	15 00 02 00 	sethi  %hi(0x80000), %o2
 2a4:	00 00 52 04 	unimp  0x5204
 2a8:	01 fb 0e 0d 	cbn  ffec3adc <__end+0xbfec1144>
 2ac:	00 01 01 01 	unimp  0x10101
 2b0:	01 00 00 00 	nop 
 2b4:	01 00 00 01 	sethi  %hi(0x400), %g0
 2b8:	2e 2e 2f 2e 	unknown
 2bc:	2e 2f 2e 2e 	unknown
 2c0:	2f 2e 2e 2f 	sethi  %hi(0xb8b8bc00), %l7
 2c4:	67 63 63 2d 	call  9d8d8f78 <__end+0x5d8d65e0>
 2c8:	34 2e 34 2e 	unknown
 2cc:	32 2f 6c 69 	unknown
 2d0:	62 67 63 63 	call  899d905c <__end+0x499d66c4>
 2d4:	2f 2e 2e 2f 	sethi  %hi(0xb8b8bc00), %l7
 2d8:	67 63 63 2f 	call  9d8d8f94 <__end+0x5d8d65fc>
 2dc:	63 6f 6e 66 	call  8dbdbc74 <__end+0x4dbd92dc>
 2e0:	69 67 2f 73 	call  a59cc0ac <__end+0x659c9714>
 2e4:	70 61 72 63 	call  c185cc70 <__end+0x8185a2d8>
 2e8:	00 00 6c 62 	unimp  0x6c62
 2ec:	31 73 70 63 	unknown
 2f0:	2e 61 73 6d 	unknown
 2f4:	00 01 00 00 	unimp  0x10000
 2f8:	00 00 05 02 	unimp  0x502
 2fc:	40 00 0a 20 	call  2b7c <_trap_table-0x3fffd484>
 300:	03 fa 00 01 	cb123  ffe80304 <__end+0xbfe7d96c>
 304:	21 28 21 21 	sethi  %hi(0xa0848400), %l0
 308:	21 21 21 22 	sethi  %hi(0x84848800), %l0
 30c:	21 22 26 21 	sethi  %hi(0x88988400), %l0
 310:	21 24 21 21 	sethi  %hi(0x90848400), %l0
 314:	23 21 21 21 	sethi  %hi(0x84848400), %l1
 318:	21 21 21 28 	sethi  %hi(0x8484a000), %l0
 31c:	21 21 21 21 	sethi  %hi(0x84848400), %l0
 320:	21 23 21 21 	sethi  %hi(0x8c848400), %l0
 324:	25 21 21 21 	sethi  %hi(0x84848400), %l2
 328:	21 23 21 21 	sethi  %hi(0x8c848400), %l0
 32c:	21 21 03 0f 	sethi  %hi(0x840c3c00), %l0
 330:	20 21 21 21 	unknown
 334:	21 21 21 22 	sethi  %hi(0x84848800), %l0
 338:	21 21 22 21 	sethi  %hi(0x84888400), %l0
 33c:	21 22 21 23 	sethi  %hi(0x88848c00), %l0
 340:	21 21 21 24 	sethi  %hi(0x84849000), %l0
 344:	21 21 21 21 	sethi  %hi(0x84848400), %l0
 348:	21 22 22 22 	sethi  %hi(0x88888800), %l0
 34c:	21 22 22 21 	sethi  %hi(0x88888400), %l0
 350:	22 22 21 22 	unknown
 354:	22 21 22 21 	unknown
 358:	21 24 21 21 	sethi  %hi(0x90848400), %l0
 35c:	25 22 21 22 	sethi  %hi(0x88848800), %l2
 360:	21 21 24 21 	sethi  %hi(0x84908400), %l0
 364:	21 24 22 21 	sethi  %hi(0x90888400), %l0
 368:	22 22 21 22 	unknown
 36c:	21 21 24 21 	sethi  %hi(0x84908400), %l0
 370:	21 24 22 21 	sethi  %hi(0x90888400), %l0
 374:	22 21 21 24 	unknown
 378:	21 21 24 22 	sethi  %hi(0x84908800), %l0
 37c:	21 22 22 21 	sethi  %hi(0x88888400), %l0
 380:	22 22 21 22 	unknown
 384:	21 21 24 21 	sethi  %hi(0x84908400), %l0
 388:	21 24 22 21 	sethi  %hi(0x90888400), %l0
 38c:	22 21 21 24 	unknown
 390:	21 21 24 22 	sethi  %hi(0x84908800), %l0
 394:	21 22 22 21 	sethi  %hi(0x88888400), %l0
 398:	22 21 21 24 	unknown
 39c:	21 21 24 22 	sethi  %hi(0x84908800), %l0
 3a0:	21 22 21 21 	sethi  %hi(0x88848400), %l0
 3a4:	24 21 21 24 	unknown
 3a8:	21 21 21 22 	sethi  %hi(0x84848800), %l0
 3ac:	25 21 21 22 	sethi  %hi(0x84848800), %l2
 3b0:	21 02 01 00 	sethi  %hi(0x8040000), %l0
 3b4:	01 01 00 00 	sethi  %hi(0x4000000), %g0
 3b8:	00 57 00 02 	unknown
 3bc:	00 00 00 51 	unimp  0x51
 3c0:	04 01 fb 0e 	unknown
 3c4:	0d 00 01 01 	sethi  %hi(0x40400), %g6
 3c8:	01 01 00 00 	sethi  %hi(0x4000000), %g0
 3cc:	00 01 00 00 	unimp  0x10000
 3d0:	01 2e 2e 2f 	sethi  %hi(0xb8b8bc00), %g0
 3d4:	2e 2e 2f 2e 	unknown
 3d8:	2e 2f 2e 2e 	unknown
 3dc:	2f 67 63 63 	unknown
 3e0:	2d 34 2e 34 	sethi  %hi(0xd0b8d000), %l6
 3e4:	2e 32 2f 6c 	unknown
 3e8:	69 62 67 63 	call  a589a174 <__end+0x658977dc>
 3ec:	63 2f 2e 2e 	call  8cbcbca4 <__end+0x4cbc930c>
 3f0:	2f 67 63 63 	unknown
 3f4:	00 00 6c 69 	unimp  0x6c69
 3f8:	62 67 63 63 	call  899d9184 <__end+0x499d67ec>
 3fc:	32 2e 68 00 	unknown
 400:	01 00 00 6c 	sethi  %hi(0x1b000), %g0
 404:	69 62 67 63 	call  a589a190 <__end+0x658977f8>
 408:	63 32 2e 63 	call  8cc8bd94 <__end+0x4cc893fc>
 40c:	00 01 00 00 	unimp  0x10000
 410:	00 00 00 00 	unimp  0
 414:	6d 00 02 00 	call  b4000c14 <__end+0x73ffe27c>
 418:	00 00 51 04 	unimp  0x5104
 41c:	01 fb 0e 0d 	cbn  ffec3c50 <__end+0xbfec12b8>
 420:	00 01 01 01 	unimp  0x10101
 424:	01 00 00 00 	nop 
 428:	01 00 00 01 	sethi  %hi(0x400), %g0
 42c:	2e 2e 2f 2e 	unknown
 430:	2e 2f 2e 2e 	unknown
 434:	2f 2e 2e 2f 	sethi  %hi(0xb8b8bc00), %l7
 438:	67 63 63 2d 	call  9d8d90ec <__end+0x5d8d6754>
 43c:	34 2e 34 2e 	unknown
 440:	32 2f 6c 69 	unknown
 444:	62 67 63 63 	call  899d91d0 <__end+0x499d6838>
 448:	2f 2e 2e 2f 	sethi  %hi(0xb8b8bc00), %l7
 44c:	67 63 63 00 	call  9d8d904c <__end+0x5d8d66b4>
 450:	00 6c 69 62 	unknown
 454:	67 63 63 32 	call  9d8d911c <__end+0x5d8d6784>
 458:	2e 63 00 01 	unknown
 45c:	00 00 6c 69 	unimp  0x6c69
 460:	62 67 63 63 	call  899d91ec <__end+0x499d6854>
 464:	32 2e 68 00 	unknown
 468:	01 00 00 00 	nop 
 46c:	00 05 02 40 	unimp  0x50240
 470:	00 0d 24 03 	unimp  0xd2403
 474:	a8 04 01 23 	unknown
 478:	02 27 11 23 	unknown
 47c:	86 02 02 00 	unknown
 480:	01 01 00 00 	sethi  %hi(0x4000000), %g0
 484:	00 a0 00 02 	bn  ff80048c <__end+0xbf7fdaf4>
 488:	00 00 00 52 	unimp  0x52
 48c:	04 01 fb 0e 	unknown
 490:	0d 00 01 01 	sethi  %hi(0x40400), %g6
 494:	01 01 00 00 	sethi  %hi(0x4000000), %g0
 498:	00 01 00 00 	unimp  0x10000
 49c:	01 2e 2e 2f 	sethi  %hi(0xb8b8bc00), %g0
 4a0:	2e 2e 2f 2e 	unknown
 4a4:	2e 2f 2e 2e 	unknown
 4a8:	2f 67 63 63 	unknown
 4ac:	2d 34 2e 34 	sethi  %hi(0xd0b8d000), %l6
 4b0:	2e 32 2f 6c 	unknown
 4b4:	69 62 67 63 	call  a589a240 <__end+0x658978a8>
 4b8:	63 2f 2e 2e 	call  8cbcbd70 <__end+0x4cbc93d8>
 4bc:	2f 67 63 63 	unknown
 4c0:	2f 63 6f 6e 	unknown
 4c4:	66 69 67 2f 	call  99a5a180 <__end+0x59a577e8>
 4c8:	73 70 61 72 	call  cdc18a90 <__end+0x8dc160f8>
 4cc:	63 00 00 6c 	call  8c00067c <__end+0x4bffdce4>
 4d0:	62 31 73 70 	call  88c5d290 <__end+0x48c5a8f8>
 4d4:	63 2e 61 73 	call  8cb98aa0 <__end+0x4cb96108>
 4d8:	6d 00 01 00 	call  b40008d8 <__end+0x73ffdf40>
 4dc:	00 00 00 05 	unimp  0x5
 4e0:	02 40 00 0d 	unknown
 4e4:	f0 03 0d 01 	ld  [ %o4 + %g1 ], %i0
 4e8:	21 21 21 21 	sethi  %hi(0x84848400), %l0
 4ec:	24 21 21 21 	unknown
 4f0:	21 21 21 21 	sethi  %hi(0x84848400), %l0
 4f4:	21 21 21 21 	sethi  %hi(0x84848400), %l0
 4f8:	21 21 21 21 	sethi  %hi(0x84848400), %l0
 4fc:	21 21 21 21 	sethi  %hi(0x84848400), %l0
 500:	21 21 21 21 	sethi  %hi(0x84848400), %l0
 504:	21 21 21 21 	sethi  %hi(0x84848400), %l0
 508:	21 21 21 21 	sethi  %hi(0x84848400), %l0
 50c:	21 22 21 25 	sethi  %hi(0x88849400), %l0
 510:	21 21 21 21 	sethi  %hi(0x84848400), %l0
 514:	21 21 21 21 	sethi  %hi(0x84848400), %l0
 518:	21 21 21 21 	sethi  %hi(0x84848400), %l0
 51c:	21 21 21 21 	sethi  %hi(0x84848400), %l0
 520:	21 02 01 00 	sethi  %hi(0x8040000), %l0
 524:	01 01 00 00 	sethi  %hi(0x4000000), %g0
 528:	00 43 00 02 	unknown
 52c:	00 00 00 1d 	unimp  0x1d
 530:	04 01 fb 0e 	unknown
 534:	0d 00 01 01 	sethi  %hi(0x40400), %g6
 538:	01 01 00 00 	sethi  %hi(0x4000000), %g0
 53c:	00 01 00 00 	unimp  0x10000
 540:	01 00 63 72 	sethi  %hi(0x18dc800), %g0
 544:	74 6e 2e 73 	call  d1b8bf10 <__end+0x91b89578>
 548:	00 00 00 00 	unimp  0
 54c:	00 00 05 02 	unimp  0x502
 550:	40 00 20 54 	call  86a0 <_trap_table-0x3fff7960>
 554:	03 2c 01 21 	sethi  %hi(0xb0048400), %g1
 558:	02 01 00 01 	unknown
 55c:	01 00 05 02 	sethi  %hi(0x140800), %g0
 560:	40 00 20 68 	call  8700 <_trap_table-0x3fff7900>
 564:	03 38 01 21 	sethi  %hi(0xe0048400), %g1
 568:	02 01 00 01 	unknown
 56c:	Address 0x0000056c is out of bounds.


Disassembly of section .debug_str:

00000000 <.debug_str>:
   0:	70 6e 70 69 	call  c1b9c1a4 <__end+0x81b9980c>
   4:	6e 69 74 00 	call  b9a5d004 <__end+0x79a5a66c>
   8:	73 68 6f 72 	call  cda1bdd0 <__end+0x8da19438>
   c:	74 20 75 6e 	call  d081d5c4 <__end+0x9081ac2c>
  10:	73 69 67 6e 	call  cda59dc8 <__end+0x8da57430>
  14:	65 64 20 69 	call  959081b8 <__end+0x55905820>
  18:	6e 74 00 2e 	call  b9d000d0 <__end+0x79cfd738>
  1c:	2e 2f 2e 2e 	unknown
  20:	2f 2e 2e 2f 	sethi  %hi(0xb8b8bc00), %l7
  24:	2e 2e 2f 2e 	unknown
  28:	2e 2f 6e 65 	unknown
  2c:	77 6c 69 62 	call  ddb1a5b4 <__end+0x9db17c1c>
  30:	2d 31 2e 31 	sethi  %hi(0xc4b8c400), %l6
  34:	33 2e 30 2f 	sethi  %hi(0xb8c0bc00), %i1
  38:	6c 69 62 67 	call  b1a589d4 <__end+0x71a5603c>
  3c:	6c 6f 73 73 	call  b1bdce08 <__end+0x71bda470>
  40:	2f 73 70 61 	unknown
  44:	72 63 5f 6c 	call  c98d7df4 <__end+0x898d545c>
  48:	65 6f 6e 2f 	call  95bdb904 <__end+0x55bd8f6c>
  4c:	70 6e 70 69 	call  c1b9c1f0 <__end+0x81b99858>
  50:	6e 69 74 5f 	call  b9a5d1cc <__end+0x79a5a834>
  54:	73 69 6d 70 	call  cda5b614 <__end+0x8da58c7c>
  58:	6c 65 2e 63 	call  b194b9e4 <__end+0x7194904c>
  5c:	00 73 68 6f 	unknown
  60:	72 74 20 69 	call  c9d08204 <__end+0x89d0586c>
  64:	6e 74 00 6c 	call  b9d00214 <__end+0x79cfd87c>
  68:	6f 6e 67 20 	call  bdb99ce8 <__end+0x7db97350>
  6c:	6c 6f 6e 67 	call  b1bdba08 <__end+0x71bd9070>
  70:	20 75 6e 73 	unknown
  74:	69 67 6e 65 	call  a59dba08 <__end+0x659d9070>
  78:	64 20 69 6e 	call  9081a630 <__end+0x50817c98>
  7c:	74 00 2f 6f 	call  d000be38 <__end+0x900094a0>
  80:	70 74 2f 62 	call  c1d0be08 <__end+0x81d09470>
  84:	75 69 6c 64 	call  d5a5b214 <__end+0x95a5887c>
  88:	2d 62 63 63 	unknown
  8c:	2f 62 63 63 	unknown
  90:	2f 67 63 63 	unknown
  94:	2d 34 2e 34 	sethi  %hi(0xd0b8d000), %l6
  98:	2e 32 2d 31 	unknown
  9c:	2e 30 2e 34 	unknown
  a0:	35 6e 65 77 	unknown
  a4:	6c 69 62 2d 	call  b1a58958 <__end+0x71a55fc0>
  a8:	31 2e 31 33 	sethi  %hi(0xb8c4cc00), %i0
  ac:	2e 30 2d 62 	unknown
  b0:	75 69 6c 64 	call  d5a5b240 <__end+0x95a588a8>
  b4:	2f 73 70 61 	unknown
  b8:	72 63 2d 65 	call  c98cb64c <__end+0x898c8cb4>
  bc:	6c 66 2f 73 	call  b198be88 <__end+0x719894f0>
  c0:	6f 66 74 2f 	call  bd99d17c <__end+0x7d99a7e4>
  c4:	6c 69 62 67 	call  b1a58a60 <__end+0x71a560c8>
  c8:	6c 6f 73 73 	call  b1bdce94 <__end+0x71bda4fc>
  cc:	2f 73 70 61 	unknown
  d0:	72 63 5f 6c 	call  c98d7e80 <__end+0x898d54e8>
  d4:	65 6f 6e 00 	call  95bdb8d4 <__end+0x55bd8f3c>
  d8:	75 6e 73 69 	call  d5b9ce7c <__end+0x95b9a4e4>
  dc:	67 6e 65 64 	call  9db9966c <__end+0x5db96cd4>
  e0:	20 63 68 61 	unknown
  e4:	72 00 47 4e 	call  c8011e1c <__end+0x8800f484>
  e8:	55 20 43 20 	call  54810d68 <__end+0x1480e3d0>
  ec:	34 2e 34 2e 	unknown
  f0:	32 00 6c 6f 	unknown
  f4:	6e 67 20 6c 	call  b99c82a4 <__end+0x799c590c>
  f8:	6f 6e 67 20 	call  bdb99d78 <__end+0x7db973e0>
  fc:	69 6e 74 00 	call  a5b9d0fc <__end+0x65b9a764>
 100:	68 69 67 68 	call  a1a59ea0 <__end+0x61a57508>
 104:	00 5f 5f 75 	unknown
 108:	64 69 76 6d 	call  91a5dabc <__end+0x51a5b124>
 10c:	6f 64 64 69 	call  bd9192b0 <__end+0x7d916918>
 110:	34 00 63 6f 	unknown
 114:	6d 70 6c 65 	call  b5c1b2a8 <__end+0x75c18910>
 118:	78 20 66 6c 	call  e0819ac8 <__end+0xa0817130>
 11c:	6f 61 74 00 	call  bd85d11c <__end+0x7d85a784>
 120:	55 53 49 74 	call  554d26f0 <__end+0x154cfd58>
 124:	79 70 65 00 	call  e5c19524 <__end+0xa5c16b8c>
 128:	2e 2e 2f 2e 	unknown
 12c:	2e 2f 2e 2e 	unknown
 130:	2f 2e 2e 2f 	sethi  %hi(0xb8b8bc00), %l7
 134:	67 63 63 2d 	call  9d8d8de8 <__end+0x5d8d6450>
 138:	34 2e 34 2e 	unknown
 13c:	32 2f 6c 69 	unknown
 140:	62 67 63 63 	call  899d8ecc <__end+0x499d6534>
 144:	2f 2e 2e 2f 	sethi  %hi(0xb8b8bc00), %l7
 148:	67 63 63 2f 	call  9d8d8e04 <__end+0x5d8d646c>
 14c:	6c 69 62 67 	call  b1a58ae8 <__end+0x71a56150>
 150:	63 63 32 2e 	call  8d8cca08 <__end+0x4d8ca070>
 154:	63 00 44 57 	call  8c0112b0 <__end+0x4c00e918>
 158:	75 6e 69 6f 	call  d5b9a714 <__end+0x95b97d7c>
 15c:	6e 00 2f 6f 	call  b800bf18 <__end+0x78009580>
 160:	70 74 2f 62 	call  c1d0bee8 <__end+0x81d09550>
 164:	75 69 6c 64 	call  d5a5b2f4 <__end+0x95a5895c>
 168:	2d 62 63 63 	unknown
 16c:	2f 62 63 63 	unknown
 170:	2f 67 63 63 	unknown
 174:	2d 34 2e 34 	sethi  %hi(0xd0b8d000), %l6
 178:	2e 32 2d 31 	unknown
 17c:	2e 30 2e 34 	unknown
 180:	35 67 63 63 	unknown
 184:	2d 34 2e 34 	sethi  %hi(0xd0b8d000), %l6
 188:	2e 32 2d 62 	unknown
 18c:	75 69 6c 64 	call  d5a5b31c <__end+0x95a58984>
 190:	2f 73 70 61 	unknown
 194:	72 63 2d 65 	call  c98cb728 <__end+0x898c8d90>
 198:	6c 66 2f 73 	call  b198bf64 <__end+0x719895cc>
 19c:	6f 66 74 2f 	call  bd99d258 <__end+0x7d99a8c0>
 1a0:	6c 69 62 67 	call  b1a58b3c <__end+0x71a561a4>
 1a4:	63 63 00 55 	call  8d8c02f8 <__end+0x4d8bd960>
 1a8:	51 49 74 79 	call  4525d38c <__end+0x525a9f4>
 1ac:	70 65 00 5f 	call  c1940328 <__end+0x8193d990>
 1b0:	5f 63 6c 7a 	call  7d8db398 <__end+0x3d8d8a00>
 1b4:	5f 74 61 62 	call  7dd1873c <__end+0x3dd15da4>
 1b8:	00 55 44 49 	unknown
 1bc:	74 79 70 65 	call  d1e5c350 <__end+0x91e599b8>
 1c0:	00 5f 5f 75 	unknown
 1c4:	64 69 76 64 	call  91a5db54 <__end+0x51a5b1bc>
 1c8:	69 33 00 5f 	call  a4cc0344 <__end+0x64cbd9ac>
 1cc:	5f 78 72 00 	call  7de1c9cc <__end+0x3de1a034>
 1d0:	63 6f 6d 70 	call  8dbdb790 <__end+0x4dbd8df8>
 1d4:	6c 65 78 20 	call  b195e254 <__end+0x7195b8bc>
 1d8:	64 6f 75 62 	call  91bdd760 <__end+0x51bdadc8>
 1dc:	6c 65 00 44 	call  b19402ec <__end+0x7193d954>
 1e0:	57 73 74 72 	call  5dcdd3a8 <__end+0x1dcdaa10>
 1e4:	75 63 74 00 	call  d58dd1e4 <__end+0x958da84c>
 1e8:	5f 5f 6d 75 	call  7d7db7bc <__end+0x3d7d8e24>
 1ec:	6c 64 69 33 	call  b191a6b8 <__end+0x71917d20>
 1f0:	Address 0x000001f0 is out of bounds.


Disassembly of section .debug_loc:

00000000 <.debug_loc>:
   0:	00 00 00 00 	unimp  0
   4:	00 00 00 04 	unimp  0x4
   8:	00 01 5e 00 	unimp  0x15e00
   c:	00 00 04 00 	unimp  0x400
  10:	00 03 44 00 	unimp  0x34400
  14:	01 6e 00 00 	unknown
	...
  24:	00 88 00 06 	bn  20003c <_trap_table-0x3fdfffc4>
  28:	68 93 04 69 	call  a24c11cc <__end+0x624be834>
  2c:	93 04 00 00 	taddcc  %l0, %g0, %o1
  30:	00 e4 00 00 	unknown
  34:	01 68 00 06 	unknown
  38:	68 93 04 69 	call  a24c11dc <__end+0x624be844>
  3c:	93 04 00 00 	taddcc  %l0, %g0, %o1
  40:	01 70 00 00 	unknown
  44:	01 c4 00 06 	cbn  10005c <_trap_table-0x3fefffa4>
  48:	68 93 04 69 	call  a24c11ec <__end+0x624be854>
  4c:	93 04 00 00 	taddcc  %l0, %g0, %o1
  50:	01 d0 00 00 	cbn  400050 <_trap_table-0x3fbfffb0>
  54:	01 ec 00 06 	cbn  ffb0006c <__end+0xbfafd6d4>
  58:	68 93 04 69 	call  a24c11fc <__end+0x624be864>
  5c:	93 04 00 00 	taddcc  %l0, %g0, %o1
  60:	01 f4 00 00 	cbn  ffd00060 <__end+0xbfcfd6c8>
  64:	02 08 00 06 	unknown
  68:	68 93 04 69 	call  a24c120c <__end+0x624be874>
  6c:	93 04 00 00 	taddcc  %l0, %g0, %o1
	...
  7c:	02 0c 00 06 	unknown
  80:	6a 93 04 6b 	call  aa4c122c <__end+0x6a4be894>
  84:	93 04 00 00 	taddcc  %l0, %g0, %o1
	...
  90:	00 08 00 00 	unimp  0x80000
  94:	00 24 00 01 	unimp  0xffe40001
  98:	58 00 00 00 	call  60000098 <__end+0x1fffd700>
  9c:	24 00 00 00 	unknown
  a0:	e4 00 01 6b 	ld  [ %g0 + %o3 ], %l2
  a4:	00 00 00 e4 	unimp  0xe4
  a8:	00 00 01 fc 	unimp  0x1fc
  ac:	00 01 58 00 	unimp  0x15800
  b0:	00 01 fc 00 	unimp  0x1fc00
  b4:	00 03 00 00 	unimp  0x30000
  b8:	01 54 00 00 	unknown
	...
  c4:	00 08 00 00 	unimp  0x80000
  c8:	02 0c 00 01 	unknown
  cc:	6a 00 00 02 	call  a80000d4 <__end+0x67ffd73c>
  d0:	10 00 00 03 	unknown
  d4:	44 00 01 6b 	call  10000680 <_trap_table-0x2ffff980>
  d8:	00 00 00 00 	unimp  0
  dc:	00 00 00 00 	unimp  0
  e0:	00 00 00 dc 	unimp  0xdc
  e4:	00 00 00 e4 	unimp  0xe4
  e8:	00 01 52 00 	unimp  0x15200
  ec:	00 01 c4 00 	unimp  0x1c400
  f0:	00 01 c8 00 	unimp  0x1c800
  f4:	01 68 00 00 	unknown
	...
 100:	00 14 00 00 	unimp  0x140000
 104:	00 34 00 01 	unimp  0xfff40001
 108:	68 00 00 00 	call  a0000108 <__end+0x5fffd770>
 10c:	34 00 00 00 	unknown
 110:	dc 00 01 52 	ld  [ %g0 + %l2 ], %sp
 114:	00 00 00 e8 	unimp  0xe8
 118:	00 00 01 68 	unimp  0x168
 11c:	00 01 68 00 	unimp  0x16800
 120:	00 01 70 00 	unimp  0x17000
 124:	00 01 c4 00 	unimp  0x1c400
 128:	01 68 00 00 	unknown
 12c:	01 d0 00 00 	cbn  40012c <_trap_table-0x3fbffed4>
 130:	01 ec 00 01 	cbn  ffb00134 <__end+0xbfafd79c>
 134:	68 00 00 01 	call  a0000138 <__end+0x5fffd7a0>
 138:	f4 00 00 02 	ld  [ %g0 + %g2 ], %i2
 13c:	00 00 01 68 	unimp  0x168
 140:	00 00 02 00 	unimp  0x200
 144:	00 00 02 64 	unimp  0x264
 148:	00 01 52 00 	unimp  0x15200
 14c:	00 02 64 00 	unimp  0x26400
 150:	00 03 24 00 	unimp  0x32400
 154:	01 68 00 00 	unknown
 158:	03 2c 00 00 	sethi  %hi(0xb0000000), %g1
 15c:	03 3c 00 01 	sethi  %hi(0xf0000400), %g1
 160:	68 00 00 00 	call  a0000160 <__end+0x5fffd7c8>
 164:	00 00 00 00 	unimp  0
 168:	00 00 00 02 	unimp  0x2
 16c:	08 00 00 02 	unknown
 170:	64 00 01 68 	call  90000710 <__end+0x4fffdd78>
 174:	00 00 00 00 	unimp  0
 178:	00 00 00 00 	unimp  0
 17c:	00 00 00 dc 	unimp  0xdc
 180:	00 00 00 e4 	unimp  0xe4
 184:	00 01 69 00 	unimp  0x16900
 188:	00 02 64 00 	unimp  0x26400
 18c:	00 03 44 00 	unimp  0x34400
 190:	01 52 00 00 	unknown
	...
 19c:	00 88 00 00 	bn  20019c <_trap_table-0x3fdffe64>
 1a0:	00 dc 00 01 	unknown
 1a4:	68 00 00 00 	call  a00001a4 <__end+0x5fffd80c>
 1a8:	00 00 00 00 	unimp  0
 1ac:	00 00 00 01 	unimp  0x1
 1b0:	40 00 00 01 	call  1b4 <_trap_table-0x3ffffe4c>
 1b4:	70 00 01 53 	call  c0000700 <__end+0x7fffdd68>
 1b8:	00 00 01 e8 	unimp  0x1e8
 1bc:	00 00 03 44 	unimp  0x344
 1c0:	00 01 53 00 	unimp  0x15300
	...
 1cc:	00 01 14 00 	unimp  0x11400
 1d0:	00 01 38 00 	unimp  0x13800
 1d4:	01 51 00 00 	unknown
 1d8:	01 d4 00 00 	cbn  5001d8 <_trap_table-0x3faffe28>
 1dc:	01 e8 00 01 	cbn  ffa001e0 <__end+0xbf9fd848>
 1e0:	51 00 00 00 	call  440001e0 <__end+0x3ffd848>
 1e4:	00 00 00 00 	unimp  0
	...
 1f0:	04 00 01 5e 	unknown
 1f4:	00 00 00 04 	unimp  0x4
 1f8:	00 00 00 cc 	unimp  0xcc
 1fc:	00 01 6e 00 	unimp  0x16e00
	...
 20c:	00 00 c4 00 	unimp  0xc400
 210:	06 68 93 04 	unknown
 214:	69 93 04 00 	call  a64c1214 <__end+0x664be87c>
 218:	00 00 00 00 	unimp  0
 21c:	Address 0x0000021c is out of bounds.


Disassembly of section .debug_ranges:

00000000 <.debug_ranges>:
   0:	ff ff ff ff 	unknown
   4:	00 00 00 00 	unimp  0
   8:	40 00 20 40 	call  8108 <_trap_table-0x3fff7ef8>
   c:	40 00 20 44 	call  811c <_trap_table-0x3fff7ee4>
  10:	40 00 20 5c 	call  8180 <_trap_table-0x3fff7e80>
  14:	40 00 20 60 	call  8194 <_trap_table-0x3fff7e6c>
  18:	00 00 00 00 	unimp  0
  1c:	00 00 00 00 	unimp  0
  20:	00 00 00 04 	unimp  0x4
  24:	00 00 00 dc 	unimp  0xdc
  28:	00 00 03 2c 	unimp  0x32c
  2c:	00 00 03 3c 	unimp  0x33c
  30:	00 00 01 f4 	unimp  0x1f4
  34:	00 00 03 24 	unimp  0x324
  38:	00 00 01 d0 	unimp  0x1d0
  3c:	00 00 01 ec 	unimp  0x1ec
  40:	00 00 01 70 	unimp  0x170
  44:	00 00 01 c8 	unimp  0x1c8
  48:	00 00 00 e4 	unimp  0xe4
  4c:	00 00 01 68 	unimp  0x168
	...
  58:	00 00 00 04 	unimp  0x4
  5c:	00 00 00 dc 	unimp  0xdc
  60:	00 00 03 2c 	unimp  0x32c
  64:	00 00 03 3c 	unimp  0x33c
  68:	00 00 01 f4 	unimp  0x1f4
  6c:	00 00 03 24 	unimp  0x324
  70:	00 00 01 d0 	unimp  0x1d0
  74:	00 00 01 ec 	unimp  0x1ec
  78:	00 00 01 70 	unimp  0x170
  7c:	00 00 01 c8 	unimp  0x1c8
  80:	00 00 00 e4 	unimp  0xe4
  84:	00 00 01 68 	unimp  0x168
	...
  90:	00 00 00 f0 	unimp  0xf0
  94:	00 00 01 3c 	unimp  0x13c
  98:	00 00 01 d0 	unimp  0x1d0
  9c:	00 00 01 e8 	unimp  0x1e8
	...
  a8:	00 00 01 60 	unimp  0x160
  ac:	00 00 01 68 	unimp  0x168
  b0:	00 00 03 2c 	unimp  0x32c
  b4:	00 00 03 3c 	unimp  0x33c
  b8:	00 00 01 f4 	unimp  0x1f4
  bc:	00 00 03 24 	unimp  0x324
	...
  c8:	ff ff ff ff 	unknown
  cc:	00 00 00 00 	unimp  0
  d0:	40 00 20 54 	call  8220 <_trap_table-0x3fff7de0>
  d4:	40 00 20 5c 	call  8244 <_trap_table-0x3fff7dbc>
  d8:	40 00 20 68 	call  8278 <_trap_table-0x3fff7d88>
  dc:	40 00 20 70 	call  829c <_trap_table-0x3fff7d64>
  e0:	00 00 00 00 	unimp  0
  e4:	00 00 00 00 	unimp  0
