	.file	"smp_posix.c"
! GNU C (GCC) version 4.9.3 20141107 (prerelease) (sparc-rtems)
!	compiled by GNU C version 4.2.4, GMP version 5.1.3, MPFR version 3.1.2, MPC version 1.0.2
! warning: MPFR header version 3.1.2 differs from library version 3.1.2-p3.
! warning: MPC header version 1.0.2 differs from library version 1.0.1.
! GGC heuristics: --param ggc-min-expand=100 --param ggc-min-heapsize=131072
! options passed:  -imultilib soft/leon3/user-mode
! -iprefix /home/pvilla/phd/rtems-4.11/bin/../lib/gcc/sparc-rtems/4.9.3/
! -isystem /opt/rtems-4.11/sparc-rtems/leon3smp/lib/include -D__leon__
! -D__sparc_v8__ -D_SOFT_FLOAT smp_posix.c
! -isystem /opt/rtems-4.11/sparc-rtems/leon3/lib/include -mcpu=leon3
! -msoft-float -muser-mode -auxbase-strip o-optimize/smp_posix.S -g -O0
! -Wall -ffunction-sections -fdata-sections -fverbose-asm
! options enabled:  -faggressive-loop-optimizations -fauto-inc-dec -fcommon
! -fdata-sections -fdelete-null-pointer-checks -fdwarf2-cfi-asm
! -fearly-inlining -feliminate-unused-debug-types -ffunction-cse
! -ffunction-sections -fgcse-lm -fgnu-runtime -fgnu-unique -fident
! -finline-atomics -fira-hoist-pressure -fira-share-spill-slots -fivopts
! -fkeep-static-consts -fleading-underscore -fmath-errno
! -fmerge-debug-strings -fpcc-struct-return -fpeephole
! -fprefetch-loop-arrays -fsched-critical-path-heuristic
! -fsched-dep-count-heuristic -fsched-group-heuristic -fsched-interblock
! -fsched-last-insn-heuristic -fsched-rank-heuristic -fsched-spec
! -fsched-spec-insn-heuristic -fsched-stalled-insns-dep -fshow-column
! -fsigned-zeros -fsplit-ivs-in-unroller -fstrict-volatile-bitfields
! -fsync-libcalls -ftrapping-math -ftree-coalesce-vars -ftree-cselim
! -ftree-forwprop -ftree-loop-if-convert -ftree-loop-im -ftree-loop-ivcanon
! -ftree-loop-optimize -ftree-parallelize-loops= -ftree-phiprop
! -ftree-reassoc -ftree-scev-cprop -funit-at-a-time -fverbose-asm
! -fzero-initialized-in-bss -m32 -mapp-regs -mptr32 -msoft-quad-float
! -muser-mode

	.section	".text"
.LLtext0:
	.cfi_sections	.debug_frame
	.section	.text.sparc_disable_interrupts,"ax",@progbits
	.align 4
	.type	sparc_disable_interrupts, #function
	.proc	016
sparc_disable_interrupts:
.LLFB29:
	.file 1 "/opt/rtems-4.11/sparc-rtems/leon3smp/lib/include/rtems/score/sparc.h"
	.loc 1 315 0
	.cfi_startproc
	save	%sp, -96, %sp	!
.LLCFI0:
	.cfi_window_save
	.cfi_register 15, 31
	.cfi_def_cfa_register 30
	.loc 1 317 0
! 317 "/opt/rtems-4.11/sparc-rtems/leon3smp/lib/include/rtems/score/sparc.h" 1
	ta 9	!
	
! 0 "" 2
	.loc 1 319 0
	mov	%g1, %i0	! <retval>,
	restore
	jmp	%o7+8
	 nop
	.cfi_endproc
.LLFE29:
	.size	sparc_disable_interrupts, .-sparc_disable_interrupts
	.section	.text.sparc_enable_interrupts,"ax",@progbits
	.align 4
	.type	sparc_enable_interrupts, #function
	.proc	020
sparc_enable_interrupts:
.LLFB30:
	.loc 1 329 0
	.cfi_startproc
	save	%sp, -96, %sp	!
.LLCFI1:
	.cfi_window_save
	.cfi_register 15, 31
	.cfi_def_cfa_register 30
	st	%i0, [%fp+68]	! psr, psr
	.loc 1 330 0
	ld	[%fp+68], %g1	! psr, _psr
	.loc 1 331 0
! 331 "/opt/rtems-4.11/sparc-rtems/leon3smp/lib/include/rtems/score/sparc.h" 1
	ta 10	!

! 0 "" 2
	.loc 1 332 0
	restore
	jmp	%o7+8
	 nop
	.cfi_endproc
.LLFE30:
	.size	sparc_enable_interrupts, .-sparc_enable_interrupts
	.section	.text._Per_CPU_Get,"ax",@progbits
	.align 4
	.type	_Per_CPU_Get, #function
	.proc	0110
_Per_CPU_Get:
.LLFB71:
	.file 2 "/opt/rtems-4.11/sparc-rtems/leon3smp/lib/include/rtems/score/percpu.h"
	.loc 2 491 0
	.cfi_startproc
	save	%sp, -104, %sp	!
.LLCFI2:
	.cfi_window_save
	.cfi_register 15, 31
	.cfi_def_cfa_register 30
	.loc 2 492 0
	st	%g6, [%fp-4]	! _SPARC_Per_CPU_current, cpu_self
	.loc 2 498 0
	ld	[%fp-4], %g1	! cpu_self, D.8955
	.loc 2 499 0
	mov	%g1, %i0	! <retval>,
	restore
	jmp	%o7+8
	 nop
	.cfi_endproc
.LLFE71:
	.size	_Per_CPU_Get, .-_Per_CPU_Get
	.section	.text._Thread_Get_executing,"ax",@progbits
	.align 4
	.type	_Thread_Get_executing, #function
	.proc	0110
_Thread_Get_executing:
.LLFB110:
	.file 3 "/opt/rtems-4.11/sparc-rtems/leon3smp/lib/include/rtems/score/thread.h"
	.loc 3 697 0
	.cfi_startproc
	save	%sp, -104, %sp	!
.LLCFI3:
	.cfi_window_save
	.cfi_register 15, 31
	.cfi_def_cfa_register 30
	.loc 3 703 0
	call	sparc_disable_interrupts, 0
	 nop	!,
	st	%o0, [%fp-4]	!, level
	.loc 3 706 0
	call	_Per_CPU_Get, 0
	 nop	!,
	mov	%o0, %g1	!, D.8956
	ld	[%g1+20], %g1	! _2->executing, tmp112
	st	%g1, [%fp-8]	! tmp112, executing
	.loc 3 709 0
	ld	[%fp-4], %o0	! level,
	call	sparc_enable_interrupts, 0
	 nop	!,
	.loc 3 712 0
	ld	[%fp-8], %g1	! executing, D.8957
	.loc 3 713 0
	mov	%g1, %i0	! <retval>,
	restore
	jmp	%o7+8
	 nop
	.cfi_endproc
.LLFE110:
	.size	_Thread_Get_executing, .-_Thread_Get_executing
	.section	.text.get_ticks_per_second,"ax",@progbits
	.align 4
	.type	get_ticks_per_second, #function
	.proc	016
get_ticks_per_second:
.LLFB141:
	.file 4 "smp_posix.c"
	.loc 4 12 0
	.cfi_startproc
	save	%sp, -104, %sp	!
.LLCFI4:
	.cfi_window_save
	.cfi_register 15, 31
	.cfi_def_cfa_register 30
	.loc 4 14 0
	add	%fp, -4, %g1	!,, tmp111
	mov	3, %o0	!,
	mov	%g1, %o1	! tmp111,
	call	rtems_clock_get, 0
	 nop	!,
	ld	[%fp-4], %g1	! ticks_per_second, D.8958
	.loc 4 15 0
	mov	%g1, %i0	! <retval>,
	restore
	jmp	%o7+8
	 nop
	.cfi_endproc
.LLFE141:
	.size	get_ticks_per_second, .-get_ticks_per_second
	.common	data,4,4
	.common	mutex,4,4
	.common	ticks,4,4
	.section	".rodata"
	.align 8
.LLC0:
	.asciz	"INFO: found %d processors.\n"
	.align 8
.LLC1:
	.asciz	"%d ticks per second...\n"
	.align 8
.LLC2:
	.asciz	"Thread %d created...\n"
	.align 8
.LLC3:
	.asciz	"Thread %d started...\n"
	.section	.text.POSIX_Init,"ax",@progbits
	.align 4
	.global POSIX_Init
	.type	POSIX_Init, #function
	.proc	0120
POSIX_Init:
.LLFB142:
	.loc 4 27 0
	.cfi_startproc
	save	%sp, -128, %sp	!
.LLCFI5:
	.cfi_window_save
	.cfi_register 15, 31
	.cfi_def_cfa_register 30
	.loc 4 35 0
	call	rtems_get_processor_count, 0
	 nop	!,
	mov	%o0, %g1	!, D.8959
	mov	%g1, %g2	! D.8959, D.8960
	sethi	%hi(.LLC0), %g1	!, tmp119
	or	%g1, %lo(.LLC0), %o0	! tmp119,,
	mov	%g2, %o1	! D.8960,
	call	printf, 0
	 nop	!,
	.loc 4 37 0
	call	get_ticks_per_second, 0
	 nop	!,
	mov	%o0, %g2	!, D.8959
	sethi	%hi(ticks), %g1	!, tmp121
	or	%g1, %lo(ticks), %g1	! tmp121,, tmp120
	st	%g2, [%g1]	! D.8959, ticks
	.loc 4 39 0
	sethi	%hi(ticks), %g1	!, tmp123
	or	%g1, %lo(ticks), %g1	! tmp123,, tmp122
	ld	[%g1], %g1	! ticks, D.8959
	mov	%g1, %g2	! D.8959, D.8960
	sethi	%hi(.LLC1), %g1	!, tmp124
	or	%g1, %lo(.LLC1), %o0	! tmp124,,
	mov	%g2, %o1	! D.8960,
	call	printf, 0
	 nop	!,
	.loc 4 41 0
	mov	5, %o0	!,
	call	sleep, 0
	 nop	!,
	.loc 4 43 0
	st	%g0, [%fp-4]	!, i
	b	.LL11
	 nop	!
.LL12:
.LLBB2:
	.loc 4 44 0 discriminator 3
	mov	4, %o0	!,
	call	malloc, 0
	 nop	!,
	mov	%o0, %g1	!, tmp125
	st	%g1, [%fp-8]	! tmp125, arg
	.loc 4 45 0 discriminator 3
	ld	[%fp-8], %g1	! arg, tmp126
	ld	[%fp-4], %g2	! i, tmp127
	st	%g2, [%g1]	! tmp127, *arg_9
	.loc 4 46 0 discriminator 3
	add	%fp, -24, %g2	!,, tmp128
	ld	[%fp-4], %g1	! i, tmp130
	sll	%g1, 2, %g1	! tmp130,, tmp129
	add	%g2, %g1, %g1	! tmp128, tmp129, D.8961
	mov	%g1, %o0	! D.8961,
	mov	0, %o1	!,
	sethi	%hi(t_task), %g1	!, tmp131
	or	%g1, %lo(t_task), %o2	! tmp131,,
	ld	[%fp-8], %o3	! arg,
	call	pthread_create, 0
	 nop	!,
	.loc 4 47 0 discriminator 3
	sethi	%hi(.LLC2), %g1	!, tmp132
	or	%g1, %lo(.LLC2), %o0	! tmp132,,
	ld	[%fp-4], %o1	! i,
	call	printf, 0
	 nop	!,
	.loc 4 48 0 discriminator 3
	sethi	%hi(999424), %g1	!, tmp133
	or	%g1, 576, %o0	! tmp133,,
	call	usleep, 0
	 nop	!,
.LLBE2:
	.loc 4 43 0 discriminator 3
	ld	[%fp-4], %g1	! i, tmp135
	add	%g1, 1, %g1	! tmp135,, tmp134
	st	%g1, [%fp-4]	! tmp134, i
.LL11:
	.loc 4 43 0 is_stmt 0 discriminator 1
	ld	[%fp-4], %g1	! i, tmp136
	cmp	%g1, 3	! tmp136,
	ble	.LL12
	 nop	!
	.loc 4 51 0 is_stmt 1
	sethi	%hi(mutex), %g1	!, tmp137
	or	%g1, %lo(mutex), %o0	! tmp137,,
	mov	0, %o1	!,
	call	pthread_mutex_init, 0
	 nop	!,
	.loc 4 53 0
	add	%fp, -28, %g1	!,, tmp138
	mov	%g1, %o0	! tmp138,
	mov	0, %o1	!,
	sethi	%hi(t_Producer), %g1	!, tmp139
	or	%g1, %lo(t_Producer), %o2	! tmp139,,
	mov	0, %o3	!,
	call	pthread_create, 0
	 nop	!,
	.loc 4 54 0
	add	%fp, -32, %g1	!,, tmp140
	mov	%g1, %o0	! tmp140,
	mov	0, %o1	!,
	sethi	%hi(t_Consumer), %g1	!, tmp141
	or	%g1, %lo(t_Consumer), %o2	! tmp141,,
	mov	0, %o3	!,
	call	pthread_create, 0
	 nop	!,
	.loc 4 56 0
	st	%g0, [%fp-4]	!, i
	b	.LL13
	 nop	!
.LL14:
	.loc 4 57 0 discriminator 3
	ld	[%fp-4], %g1	! i, tmp142
	sll	%g1, 2, %g1	! tmp142,, tmp143
	add	%fp, %g1, %g1	!, tmp143, tmp144
	ld	[%g1-24], %g1	! dummy, D.8959
	mov	%g1, %o0	! D.8959,
	mov	0, %o1	!,
	call	pthread_join, 0
	 nop	!,
	.loc 4 58 0 discriminator 3
	sethi	%hi(.LLC3), %g1	!, tmp145
	or	%g1, %lo(.LLC3), %o0	! tmp145,,
	ld	[%fp-4], %o1	! i,
	call	printf, 0
	 nop	!,
	.loc 4 59 0 discriminator 3
	sethi	%hi(99328), %g1	!, tmp146
	or	%g1, 672, %o0	! tmp146,,
	call	usleep, 0
	 nop	!,
	.loc 4 56 0 discriminator 3
	ld	[%fp-4], %g1	! i, tmp148
	add	%g1, 1, %g1	! tmp148,, tmp147
	st	%g1, [%fp-4]	! tmp147, i
.LL13:
	.loc 4 56 0 is_stmt 0 discriminator 1
	ld	[%fp-4], %g1	! i, tmp149
	cmp	%g1, 3	! tmp149,
	ble	.LL14
	 nop	!
	.loc 4 61 0 is_stmt 1
	ld	[%fp-28], %g1	! t_prod, D.8959
	mov	%g1, %o0	! D.8959,
	mov	0, %o1	!,
	call	pthread_join, 0
	 nop	!,
	.loc 4 62 0
	ld	[%fp-32], %g1	! t_cons, D.8959
	mov	%g1, %o0	! D.8959,
	mov	0, %o1	!,
	call	pthread_join, 0
	 nop	!,
	.loc 4 64 0
	mov	0, %o0	!,
	call	exit, 0
	 nop	!,
	nop
	.cfi_endproc
.LLFE142:
	.size	POSIX_Init, .-POSIX_Init
	.section	".rodata"
	.align 8
.LLC4:
	.asciz	"CPU %d running taskid %d\n"
	.align 8
.LLC5:
	.asciz	"cpu: %d | tid: %d\n"
	.section	.text.t_task,"ax",@progbits
	.align 4
	.global t_task
	.type	t_task, #function
	.proc	0120
t_task:
.LLFB143:
	.loc 4 67 0
	.cfi_startproc
	save	%sp, -104, %sp	!
.LLCFI6:
	.cfi_window_save
	.cfi_register 15, 31
	.cfi_def_cfa_register 30
	st	%i0, [%fp+68]	! arg, arg
	.loc 4 69 0
	ld	[%fp+68], %g1	! arg, tmp116
	ld	[%g1], %g1	! MEM[(int *)arg_1(D)], tmp117
	st	%g1, [%fp-4]	! tmp117, tid
	.loc 4 70 0
	call	rtems_get_current_processor, 0
	 nop	!,
	mov	%o0, %g1	!, D.8966
	st	%g1, [%fp-8]	! D.8966, curr_cpu
	.loc 4 71 0
	sethi	%hi(.LLC4), %g1	!, tmp118
	or	%g1, %lo(.LLC4), %o0	! tmp118,,
	ld	[%fp-8], %o1	! curr_cpu,
	ld	[%fp-4], %o2	! tid,
	call	printf, 0
	 nop	!,
.LL16:
	.loc 4 73 0 discriminator 1
	call	rtems_get_current_processor, 0
	 nop	!,
	mov	%o0, %g1	!, D.8966
	st	%g1, [%fp-8]	! D.8966, curr_cpu
	.loc 4 74 0 discriminator 1
	sethi	%hi(.LLC5), %g1	!, tmp119
	or	%g1, %lo(.LLC5), %o0	! tmp119,,
	ld	[%fp-8], %o1	! curr_cpu,
	ld	[%fp-4], %o2	! tid,
	call	printf, 0
	 nop	!,
	.loc 4 76 0 discriminator 1
	ld	[%fp-4], %g1	! tid, tmp120
	add	%g1, 1, %g1	! tmp120,, D.8967
	mov	%g1, %g2	! D.8967, D.8966
	sethi	%hi(ticks), %g1	!, tmp122
	or	%g1, %lo(ticks), %g1	! tmp122,, tmp121
	ld	[%g1], %g1	! ticks, D.8966
	smul	%g2, %g1, %g1	! D.8966, D.8966, D.8966
	mov	%g1, %o0	! D.8966,
	call	rtems_task_wake_after, 0
	 nop	!,
	.loc 4 77 0 discriminator 1
	b	.LL16
	 nop	!
	.cfi_endproc
.LLFE143:
	.size	t_task, .-t_task
	.section	".rodata"
	.align 8
.LLC6:
	.asciz	"Producer created"
	.align 8
.LLC7:
	.asciz	"CPU: %d - Produced: %d\n"
	.section	.text.t_Producer,"ax",@progbits
	.align 4
	.global t_Producer
	.type	t_Producer, #function
	.proc	0120
t_Producer:
.LLFB144:
	.loc 4 80 0
	.cfi_startproc
	save	%sp, -104, %sp	!
.LLCFI7:
	.cfi_window_save
	.cfi_register 15, 31
	.cfi_def_cfa_register 30
	st	%i0, [%fp+68]	! unused, unused
	.loc 4 81 0
	st	%g0, [%fp-4]	!, produced
	.loc 4 82 0
	call	rtems_get_current_processor, 0
	 nop	!,
	mov	%o0, %g1	!, D.8970
	st	%g1, [%fp-8]	! D.8970, curr_cpu
	.loc 4 83 0
	sethi	%hi(.LLC6), %g1	!, tmp115
	or	%g1, %lo(.LLC6), %o0	! tmp115,,
	call	puts, 0
	 nop	!,
.LL18:
	.loc 4 85 0 discriminator 1
	sethi	%hi(mutex), %g1	!, tmp116
	or	%g1, %lo(mutex), %o0	! tmp116,,
	call	pthread_mutex_lock, 0
	 nop	!,
	.loc 4 86 0 discriminator 1
	call	rtems_get_current_processor, 0
	 nop	!,
	mov	%o0, %g1	!, D.8970
	st	%g1, [%fp-8]	! D.8970, curr_cpu
	.loc 4 87 0 discriminator 1
	sethi	%hi(data), %g1	!, tmp118
	or	%g1, %lo(data), %g1	! tmp118,, tmp117
	ld	[%fp-4], %g2	! produced, tmp119
	st	%g2, [%g1]	! tmp119, data
	.loc 4 88 0 discriminator 1
	ld	[%fp-4], %g1	! produced, tmp121
	add	%g1, 1, %g1	! tmp121,, tmp120
	st	%g1, [%fp-4]	! tmp120, produced
	.loc 4 89 0 discriminator 1
	sethi	%hi(data), %g1	!, tmp123
	or	%g1, %lo(data), %g1	! tmp123,, tmp122
	ld	[%g1], %g2	! data, D.8971
	sethi	%hi(.LLC7), %g1	!, tmp124
	or	%g1, %lo(.LLC7), %o0	! tmp124,,
	ld	[%fp-8], %o1	! curr_cpu,
	mov	%g2, %o2	! D.8971,
	call	printf, 0
	 nop	!,
	.loc 4 90 0 discriminator 1
	sethi	%hi(mutex), %g1	!, tmp125
	or	%g1, %lo(mutex), %o0	! tmp125,,
	call	pthread_mutex_unlock, 0
	 nop	!,
	.loc 4 92 0 discriminator 1
	sethi	%hi(ticks), %g1	!, tmp127
	or	%g1, %lo(ticks), %g1	! tmp127,, tmp126
	ld	[%g1], %g1	! ticks, D.8970
	sll	%g1, 1, %g1	! D.8970,, D.8970
	mov	%g1, %o0	! D.8970,
	call	rtems_task_wake_after, 0
	 nop	!,
	.loc 4 93 0 discriminator 1
	b	.LL18
	 nop	!
	.cfi_endproc
.LLFE144:
	.size	t_Producer, .-t_Producer
	.section	".rodata"
	.align 8
.LLC8:
	.asciz	"Consumer created"
	.align 8
.LLC9:
	.asciz	"CPU: %d - Consumed: %d\n"
	.section	.text.t_Consumer,"ax",@progbits
	.align 4
	.global t_Consumer
	.type	t_Consumer, #function
	.proc	0120
t_Consumer:
.LLFB145:
	.loc 4 96 0
	.cfi_startproc
	save	%sp, -104, %sp	!
.LLCFI8:
	.cfi_window_save
	.cfi_register 15, 31
	.cfi_def_cfa_register 30
	st	%i0, [%fp+68]	! unused, unused
	.loc 4 97 0
	call	rtems_get_current_processor, 0
	 nop	!,
	mov	%o0, %g1	!, D.8974
	st	%g1, [%fp-4]	! D.8974, curr_cpu
	.loc 4 98 0
	sethi	%hi(.LLC8), %g1	!, tmp115
	or	%g1, %lo(.LLC8), %o0	! tmp115,,
	call	puts, 0
	 nop	!,
.LL20:
	.loc 4 100 0 discriminator 1
	sethi	%hi(mutex), %g1	!, tmp116
	or	%g1, %lo(mutex), %o0	! tmp116,,
	call	pthread_mutex_lock, 0
	 nop	!,
	.loc 4 101 0 discriminator 1
	call	rtems_get_current_processor, 0
	 nop	!,
	mov	%o0, %g1	!, D.8974
	st	%g1, [%fp-4]	! D.8974, curr_cpu
	.loc 4 102 0 discriminator 1
	sethi	%hi(data), %g1	!, tmp118
	or	%g1, %lo(data), %g1	! tmp118,, tmp117
	ld	[%g1], %g2	! data, D.8975
	sethi	%hi(.LLC9), %g1	!, tmp119
	or	%g1, %lo(.LLC9), %o0	! tmp119,,
	ld	[%fp-4], %o1	! curr_cpu,
	mov	%g2, %o2	! D.8975,
	call	printf, 0
	 nop	!,
	.loc 4 103 0 discriminator 1
	sethi	%hi(mutex), %g1	!, tmp120
	or	%g1, %lo(mutex), %o0	! tmp120,,
	call	pthread_mutex_unlock, 0
	 nop	!,
	.loc 4 105 0 discriminator 1
	sethi	%hi(ticks), %g1	!, tmp122
	or	%g1, %lo(ticks), %g1	! tmp122,, tmp121
	ld	[%g1], %g1	! ticks, D.8974
	sll	%g1, 1, %g1	! D.8974,, D.8974
	mov	%g1, %o0	! D.8974,
	call	rtems_task_wake_after, 0
	 nop	!,
	.loc 4 106 0 discriminator 1
	b	.LL20
	 nop	!
	.cfi_endproc
.LLFE145:
	.size	t_Consumer, .-t_Consumer
	.global rtems_libio_init_helper
	.section	.rodata.rtems_libio_init_helper,"a",@progbits
	.align 4
	.type	rtems_libio_init_helper, #object
	.size	rtems_libio_init_helper, 4
rtems_libio_init_helper:
	.long	rtems_libio_init
	.global rtems_libio_post_driver_helper
	.section	.rodata.rtems_libio_post_driver_helper,"a",@progbits
	.align 4
	.type	rtems_libio_post_driver_helper, #object
	.size	rtems_libio_post_driver_helper, 4
rtems_libio_post_driver_helper:
	.long	rtems_libio_post_driver
	.global rtems_libio_exit_helper
	.section	.rodata.rtems_libio_exit_helper,"a",@progbits
	.align 4
	.type	rtems_libio_exit_helper, #object
	.size	rtems_libio_exit_helper, 4
rtems_libio_exit_helper:
	.long	rtems_libio_exit
	.global rtems_fs_init_helper
	.section	.rodata.rtems_fs_init_helper,"a",@progbits
	.align 4
	.type	rtems_fs_init_helper, #object
	.size	rtems_fs_init_helper, 4
rtems_fs_init_helper:
	.long	rtems_filesystem_initialize
	.global rtems_libio_number_iops
	.section	.data.rtems_libio_number_iops,"aw",@progbits
	.align 4
	.type	rtems_libio_number_iops, #object
	.size	rtems_libio_number_iops, 4
rtems_libio_number_iops:
	.long	3
	.global rtems_telnetd_maximum_ptys
	.section	.bss.rtems_telnetd_maximum_ptys,"aw",@nobits
	.align 4
	.type	rtems_telnetd_maximum_ptys, #object
	.size	rtems_telnetd_maximum_ptys, 4
rtems_telnetd_maximum_ptys:
	.skip	4
	.global imfs_rq_memfile_bytes_per_block
	.section	.data.imfs_rq_memfile_bytes_per_block,"aw",@progbits
	.align 4
	.type	imfs_rq_memfile_bytes_per_block, #object
	.size	imfs_rq_memfile_bytes_per_block, 4
imfs_rq_memfile_bytes_per_block:
	.long	128
	.global rtems_filesystem_table
	.section	".rodata"
	.align 8
.LLC10:
	.asciz	"imfs"
	.section	.rodata.rtems_filesystem_table,"a",@progbits
	.align 4
	.type	rtems_filesystem_table, #object
	.size	rtems_filesystem_table, 16
rtems_filesystem_table:
! type:
	.long	.LLC10
! mount_h:
	.long	IMFS_initialize
! type:
	.long	0
! mount_h:
	.long	0
	.global rtems_filesystem_root_configuration
	.section	.rodata.rtems_filesystem_root_configuration,"a",@progbits
	.align 4
	.type	rtems_filesystem_root_configuration, #object
	.size	rtems_filesystem_root_configuration, 20
rtems_filesystem_root_configuration:
! source:
	.long	0
! target:
	.long	0
! filesystemtype:
	.long	.LLC10
! options:
	.long	1
! data:
	.long	0
	.section	.bss._Configuration_Scheduler_priority_SMP_dflt,"aw",@nobits
	.align 4
	.type	_Configuration_Scheduler_priority_SMP_dflt, #object
	.size	_Configuration_Scheduler_priority_SMP_dflt, 3136
_Configuration_Scheduler_priority_SMP_dflt:
	.skip	3136
	.global _Scheduler_Table
	.section	.rodata._Scheduler_Table,"a",@progbits
	.align 4
	.type	_Scheduler_Table, #object
	.size	_Scheduler_Table, 72
_Scheduler_Table:
! context:
	.long	_Configuration_Scheduler_priority_SMP_dflt
! Operations:
! initialize:
	.long	_Scheduler_priority_SMP_Initialize
! schedule:
	.long	_Scheduler_default_Schedule
! yield:
	.long	_Scheduler_priority_SMP_Yield
! block:
	.long	_Scheduler_priority_SMP_Block
! unblock:
	.long	_Scheduler_priority_SMP_Unblock
! change_priority:
	.long	_Scheduler_priority_SMP_Change_priority
! ask_for_help:
	.long	_Scheduler_priority_SMP_Ask_for_help
! node_initialize:
	.long	_Scheduler_priority_SMP_Node_initialize
! node_destroy:
	.long	_Scheduler_default_Node_destroy
! update_priority:
	.long	_Scheduler_priority_SMP_Update_priority
! priority_compare:
	.long	_Scheduler_priority_Priority_compare
! release_job:
	.long	_Scheduler_default_Release_job
! tick:
	.long	_Scheduler_default_Tick
! start_idle:
	.long	_Scheduler_SMP_Start_idle
! get_affinity:
	.long	_Scheduler_default_Get_affinity
! set_affinity:
	.long	_Scheduler_default_Set_affinity
! name:
	.long	1297105952
	.global _Scheduler_Count
	.section	.rodata._Scheduler_Count,"a",@progbits
	.align 4
	.type	_Scheduler_Count, #object
	.size	_Scheduler_Count, 4
_Scheduler_Count:
	.long	1
	.global _Scheduler_Assignments
	.section	.rodata._Scheduler_Assignments,"a",@progbits
	.align 4
	.type	_Scheduler_Assignments, #object
	.size	_Scheduler_Assignments, 16
_Scheduler_Assignments:
! scheduler:
	.long	_Scheduler_Table
! attributes:
	.long	0
! scheduler:
	.long	_Scheduler_Table
! attributes:
	.long	0
	.global _Scheduler_FIXME_thread_priority_queues_are_broken
	.section	.rodata._Scheduler_FIXME_thread_priority_queues_are_broken,"a",@progbits
	.type	_Scheduler_FIXME_thread_priority_queues_are_broken, #object
	.size	_Scheduler_FIXME_thread_priority_queues_are_broken, 1
_Scheduler_FIXME_thread_priority_queues_are_broken:
	.skip	1
	.common	RTEMS_Malloc_Area,88,4
	.global RTEMS_Malloc_Heap
	.section	.data.RTEMS_Malloc_Heap,"aw",@progbits
	.align 4
	.type	RTEMS_Malloc_Heap, #object
	.size	RTEMS_Malloc_Heap, 4
RTEMS_Malloc_Heap:
	.long	RTEMS_Malloc_Area
	.global rtems_malloc_statistics_helpers
	.section	.bss.rtems_malloc_statistics_helpers,"aw",@nobits
	.align 4
	.type	rtems_malloc_statistics_helpers, #object
	.size	rtems_malloc_statistics_helpers, 4
rtems_malloc_statistics_helpers:
	.skip	4
	.global rtems_malloc_extend_handler
	.section	.rodata.rtems_malloc_extend_handler,"a",@progbits
	.align 4
	.type	rtems_malloc_extend_handler, #object
	.size	rtems_malloc_extend_handler, 4
rtems_malloc_extend_handler:
	.long	rtems_heap_null_extend
	.global rtems_malloc_dirty_helper
	.section	.bss.rtems_malloc_dirty_helper,"aw",@nobits
	.align 4
	.type	rtems_malloc_dirty_helper, #object
	.size	rtems_malloc_dirty_helper, 4
rtems_malloc_dirty_helper:
	.skip	4
	.global _IO_Driver_address_table
	.section	.data._IO_Driver_address_table,"aw",@progbits
	.align 4
	.type	_IO_Driver_address_table, #object
	.size	_IO_Driver_address_table, 48
_IO_Driver_address_table:
! initialization_entry:
	.long	console_initialize
! open_entry:
	.long	console_open
! close_entry:
	.long	console_close
! read_entry:
	.long	console_read
! write_entry:
	.long	console_write
! control_entry:
	.long	console_control
! initialization_entry:
	.long	Clock_initialize
! open_entry:
	.long	0
! close_entry:
	.long	0
! read_entry:
	.long	0
! write_entry:
	.long	0
! control_entry:
	.long	0
	.global _IO_Number_of_drivers
	.section	.rodata._IO_Number_of_drivers,"a",@progbits
	.align 4
	.type	_IO_Number_of_drivers, #object
	.size	_IO_Number_of_drivers, 4
_IO_Number_of_drivers:
	.long	2
	.section	.rodata.Configuration_Initial_Extensions,"a",@progbits
	.align 4
	.type	Configuration_Initial_Extensions, #object
	.size	Configuration_Initial_Extensions, 72
Configuration_Initial_Extensions:
! thread_create:
	.long	newlib_create_hook
! thread_start:
	.long	0
! thread_restart:
	.long	0
! thread_delete:
	.long	0
! thread_switch:
	.long	0
! thread_begin:
	.long	0
! thread_exitted:
	.long	0
! fatal:
	.long	0
! thread_terminate:
	.long	newlib_terminate_hook
! thread_create:
	.long	0
! thread_start:
	.long	0
! thread_restart:
	.long	0
! thread_delete:
	.long	0
! thread_switch:
	.long	0
! thread_begin:
	.long	0
! thread_exitted:
	.long	0
! fatal:
	.long	bsp_fatal_extension
! thread_terminate:
	.long	0
	.section	.text.__getreent,"ax",@progbits
	.align 4
	.global __getreent
	.type	__getreent, #function
	.proc	0110
__getreent:
.LLFB268:
	.file 5 "/opt/rtems-4.11/sparc-rtems/leon3smp/lib/include/rtems/confdefs.h"
	.loc 5 1956 0
	.cfi_startproc
	save	%sp, -96, %sp	!
.LLCFI9:
	.cfi_window_save
	.cfi_register 15, 31
	.cfi_def_cfa_register 30
	.loc 5 1960 0
	call	_Thread_Get_executing, 0
	 nop	!,
	mov	%o0, %g1	!, D.8979
	ld	[%g1+364], %g1	! _1->libc_reent, D.8980
	.loc 5 1962 0
	mov	%g1, %i0	! <retval>,
	restore
	jmp	%o7+8
	 nop
	.cfi_endproc
.LLFE268:
	.size	__getreent, .-__getreent
	.global POSIX_Initialization_threads
	.section	.data.POSIX_Initialization_threads,"aw",@progbits
	.align 4
	.type	POSIX_Initialization_threads, #object
	.size	POSIX_Initialization_threads, 8
POSIX_Initialization_threads:
! thread_entry:
	.long	POSIX_Init
! stack_size:
	.long	8192
	.global _Thread_Control_size
	.section	.rodata._Thread_Control_size,"a",@progbits
	.align 4
	.type	_Thread_Control_size, #object
	.size	_Thread_Control_size, 4
_Thread_Control_size:
	.long	1496
	.global _Thread_Control_add_ons
	.section	.rodata._Thread_Control_add_ons,"a",@progbits
	.align 4
	.type	_Thread_Control_add_ons, #object
	.size	_Thread_Control_add_ons, 32
_Thread_Control_add_ons:
! destination_offset:
	.long	164
! source_offset:
	.long	416
! destination_offset:
	.long	368
! source_offset:
	.long	468
! destination_offset:
	.long	364
! source_offset:
	.long	816
! destination_offset:
	.long	372
! source_offset:
	.long	584
	.global _Thread_Control_add_on_count
	.section	.rodata._Thread_Control_add_on_count,"a",@progbits
	.align 4
	.type	_Thread_Control_add_on_count, #object
	.size	_Thread_Control_add_on_count, 4
_Thread_Control_add_on_count:
	.long	4
	.global Configuration_RTEMS_API
	.section	.data.Configuration_RTEMS_API,"aw",@progbits
	.align 4
	.type	Configuration_RTEMS_API, #object
	.size	Configuration_RTEMS_API, 48
Configuration_RTEMS_API:
! maximum_tasks:
	.long	0
! notepads_enabled:
	.byte	1
! maximum_timers:
	.skip	3
	.long	0
! maximum_semaphores:
	.long	7
! maximum_message_queues:
	.long	0
! maximum_partitions:
	.long	0
! maximum_regions:
	.long	0
! maximum_ports:
	.long	0
! maximum_periods:
	.long	0
! maximum_barriers:
	.long	0
! number_of_initialization_tasks:
	.long	0
! User_initialization_tasks_table:
	.long	0
	.global Configuration_POSIX_API
	.section	.data.Configuration_POSIX_API,"aw",@progbits
	.align 4
	.type	Configuration_POSIX_API, #object
	.size	Configuration_POSIX_API, 52
Configuration_POSIX_API:
! maximum_threads:
	.long	10
! maximum_mutexes:
	.long	10
! maximum_condition_variables:
	.long	10
! maximum_timers:
	.long	0
! maximum_queued_signals:
	.long	0
! maximum_message_queues:
	.long	0
! maximum_message_queue_descriptors:
	.long	0
! maximum_semaphores:
	.long	0
! maximum_barriers:
	.long	0
! maximum_rwlocks:
	.long	0
! maximum_spinlocks:
	.long	0
! number_of_initialization_threads:
	.long	1
! User_initialization_threads_table:
	.long	POSIX_Initialization_threads
	.global rtems_minimum_stack_size
	.section	.data.rtems_minimum_stack_size,"aw",@progbits
	.align 4
	.type	rtems_minimum_stack_size, #object
	.size	rtems_minimum_stack_size, 4
rtems_minimum_stack_size:
	.long	4096
	.global rtems_maximum_priority
	.section	.data.rtems_maximum_priority,"aw",@progbits
	.type	rtems_maximum_priority, #object
	.size	rtems_maximum_priority, 1
rtems_maximum_priority:
	.byte	-1
	.global Configuration
	.section	.rodata.Configuration,"a",@progbits
	.align 4
	.type	Configuration, #object
	.size	Configuration, 72
Configuration:
! work_space_size:
	.long	34208
! stack_space_size:
	.long	90208
! maximum_extensions:
	.long	0
! maximum_keys:
	.long	1
! maximum_key_value_pairs:
	.long	0
! microseconds_per_tick:
	.long	10000
! nanoseconds_per_tick:
	.long	10000000
! ticks_per_timeslice:
	.long	50
! idle_task:
	.long	bsp_idle_thread
! idle_task_stack_size:
	.long	4096
! interrupt_stack_size:
	.long	4096
! stack_allocate_init_hook:
	.long	0
! stack_allocate_hook:
	.long	_Workspace_Allocate
! stack_free_hook:
	.long	_Workspace_Free
! do_zero_of_workspace:
	.byte	0
! unified_work_area:
	.byte	0
! stack_allocator_avoids_work_space:
	.byte	0
! smp_enabled:
	.byte	1
! number_of_initial_extensions:
	.long	2
! User_extension_table:
	.long	Configuration_Initial_Extensions
! maximum_processors:
	.long	2
	.common	_Per_CPU_Information,256,32
	.global _RTEMS_tasks_Initialize_user_tasks_p
	.section	.bss._RTEMS_tasks_Initialize_user_tasks_p,"aw",@nobits
	.align 4
	.type	_RTEMS_tasks_Initialize_user_tasks_p, #object
	.size	_RTEMS_tasks_Initialize_user_tasks_p, 4
_RTEMS_tasks_Initialize_user_tasks_p:
	.skip	4
	.global _POSIX_Threads_Initialize_user_threads_p
	.section	.data._POSIX_Threads_Initialize_user_threads_p,"aw",@progbits
	.align 4
	.type	_POSIX_Threads_Initialize_user_threads_p, #object
	.size	_POSIX_Threads_Initialize_user_threads_p, 4
_POSIX_Threads_Initialize_user_threads_p:
	.long	_POSIX_Threads_Initialize_user_threads_body
	.section	".text"
.LLetext0:
	.file 6 "/home/pvilla/phd/rtems-4.11/sparc-rtems/include/machine/_default_types.h"
	.file 7 "/home/pvilla/phd/rtems-4.11/sparc-rtems/include/stdint.h"
	.file 8 "/home/pvilla/phd/rtems-4.11/sparc-rtems/include/machine/_types.h"
	.file 9 "/home/pvilla/phd/rtems-4.11/sparc-rtems/include/sys/lock.h"
	.file 10 "/home/pvilla/phd/rtems-4.11/sparc-rtems/include/sys/_types.h"
	.file 11 "/home/pvilla/phd/rtems-4.11/lib/gcc/sparc-rtems/4.9.3/include/stddef.h"
	.file 12 "/home/pvilla/phd/rtems-4.11/sparc-rtems/include/sys/types.h"
	.file 13 "/home/pvilla/phd/rtems-4.11/sparc-rtems/include/sys/cpuset.h"
	.file 14 "/home/pvilla/phd/rtems-4.11/sparc-rtems/include/sys/reent.h"
	.file 15 "/opt/rtems-4.11/sparc-rtems/leon3smp/lib/include/rtems/score/types.h"
	.file 16 "/opt/rtems-4.11/sparc-rtems/leon3smp/lib/include/rtems/score/cpu.h"
	.file 17 "/opt/rtems-4.11/sparc-rtems/leon3smp/lib/include/rtems/score/isrlevel.h"
	.file 18 "/opt/rtems-4.11/sparc-rtems/leon3smp/lib/include/rtems/score/smplock.h"
	.file 19 "/opt/rtems-4.11/sparc-rtems/leon3smp/lib/include/rtems/score/timestamp64.h"
	.file 20 "/opt/rtems-4.11/sparc-rtems/leon3smp/lib/include/rtems/score/timestamp.h"
	.file 21 "/opt/rtems-4.11/sparc-rtems/leon3smp/lib/include/rtems/score/scheduler.h"
	.file 22 "/opt/rtems-4.11/sparc-rtems/leon3smp/lib/include/rtems/rtems/status.h"
	.file 23 "/opt/rtems-4.11/sparc-rtems/leon3smp/lib/include/rtems/score/heap.h"
	.file 24 "/opt/rtems-4.11/sparc-rtems/leon3smp/lib/include/rtems/score/chain.h"
	.file 25 "/opt/rtems-4.11/sparc-rtems/leon3smp/lib/include/rtems/score/object.h"
	.file 26 "/opt/rtems-4.11/sparc-rtems/leon3smp/lib/include/rtems/score/priority.h"
	.file 27 "/opt/rtems-4.11/sparc-rtems/leon3smp/lib/include/rtems/score/watchdog.h"
	.file 28 "/opt/rtems-4.11/sparc-rtems/leon3smp/lib/include/rtems/rtems/modes.h"
	.file 29 "/opt/rtems-4.11/sparc-rtems/leon3smp/lib/include/rtems/rtems/types.h"
	.file 30 "/opt/rtems-4.11/sparc-rtems/leon3smp/lib/include/rtems/posix/config.h"
	.file 31 "/opt/rtems-4.11/sparc-rtems/leon3smp/lib/include/rtems/score/resource.h"
	.file 32 "/opt/rtems-4.11/sparc-rtems/leon3smp/lib/include/rtems/score/stack.h"
	.file 33 "/opt/rtems-4.11/sparc-rtems/leon3smp/lib/include/rtems/score/states.h"
	.file 34 "/opt/rtems-4.11/sparc-rtems/leon3smp/lib/include/rtems/score/threadsync.h"
	.file 35 "/opt/rtems-4.11/sparc-rtems/leon3smp/lib/include/rtems/score/rbtree.h"
	.file 36 "/opt/rtems-4.11/sparc-rtems/leon3smp/lib/include/rtems/score/threadq.h"
	.file 37 "/opt/rtems-4.11/sparc-rtems/leon3smp/lib/include/rtems/score/isrlock.h"
	.file 38 "/opt/rtems-4.11/sparc-rtems/leon3smp/lib/include/rtems/rtems/attr.h"
	.file 39 "/opt/rtems-4.11/sparc-rtems/leon3smp/lib/include/rtems/rtems/tasks.h"
	.file 40 "/opt/rtems-4.11/sparc-rtems/leon3smp/lib/include/rtems/rtems/config.h"
	.file 41 "/opt/rtems-4.11/sparc-rtems/leon3smp/lib/include/rtems/score/interr.h"
	.file 42 "/opt/rtems-4.11/sparc-rtems/leon3smp/lib/include/rtems/score/userext.h"
	.file 43 "/opt/rtems-4.11/sparc-rtems/leon3smp/lib/include/rtems/extension.h"
	.file 44 "/opt/rtems-4.11/sparc-rtems/leon3smp/lib/include/rtems/config.h"
	.file 45 "/opt/rtems-4.11/sparc-rtems/leon3smp/lib/include/rtems/rtems/intr.h"
	.file 46 "/opt/rtems-4.11/sparc-rtems/leon3smp/lib/include/rtems/rtems/clock.h"
	.file 47 "/opt/rtems-4.11/sparc-rtems/leon3smp/lib/include/rtems/score/coremutex.h"
	.file 48 "/opt/rtems-4.11/sparc-rtems/leon3smp/lib/include/rtems/io.h"
	.file 49 "/opt/rtems-4.11/sparc-rtems/leon3smp/lib/include/grlib.h"
	.file 50 "/opt/rtems-4.11/sparc-rtems/leon3smp/lib/include/rtems/score/apimutex.h"
	.file 51 "/home/pvilla/phd/rtems-4.11/sparc-rtems/include/sys/stat.h"
	.file 52 "/opt/rtems-4.11/sparc-rtems/leon3smp/lib/include/sys/ioccom.h"
	.file 53 "/opt/rtems-4.11/sparc-rtems/leon3smp/lib/include/sys/statvfs.h"
	.file 54 "/opt/rtems-4.11/sparc-rtems/leon3smp/lib/include/sys/_iovec.h"
	.file 55 "/opt/rtems-4.11/sparc-rtems/leon3smp/lib/include/rtems/chain.h"
	.file 56 "/opt/rtems-4.11/sparc-rtems/leon3smp/lib/include/rtems/fs.h"
	.file 57 "/opt/rtems-4.11/sparc-rtems/leon3smp/lib/include/rtems/libio.h"
	.file 58 "/opt/rtems-4.11/sparc-rtems/leon3smp/lib/include/rtems/imfs.h"
	.file 59 "/opt/rtems-4.11/sparc-rtems/leon3smp/lib/include/rtems/score/prioritybitmap.h"
	.file 60 "/opt/rtems-4.11/sparc-rtems/leon3smp/lib/include/rtems/score/schedulersmp.h"
	.file 61 "/opt/rtems-4.11/sparc-rtems/leon3smp/lib/include/rtems/score/schedulerprioritysmp.h"
	.file 62 "/opt/rtems-4.11/sparc-rtems/leon3smp/lib/include/rtems/malloc.h"
	.file 63 "/opt/rtems-4.11/sparc-rtems/leon3smp/lib/include/rtems/score/smp.h"
	.file 64 "/opt/rtems-4.11/sparc-rtems/leon3smp/lib/include/leon.h"
	.file 65 "/opt/rtems-4.11/sparc-rtems/leon3smp/lib/include/rtems/libio_.h"
	.file 66 "/opt/rtems-4.11/sparc-rtems/leon3smp/lib/include/rtems/scheduler.h"